
STemWin_HelloWorld.elf:     file format elf32-littlearm

Sections:
Idx Name          Size      VMA       LMA       File off  Algn
  0 .isr_vector   000001ac  08000000  08000000  00010000  2**0
                  CONTENTS, ALLOC, LOAD, READONLY, DATA
  1 .text         0000b2e0  080001ac  080001ac  000101ac  2**2
                  CONTENTS, ALLOC, LOAD, READONLY, CODE
  2 .rodata       00002e08  0800b48c  0800b48c  0001b48c  2**2
                  CONTENTS, ALLOC, LOAD, READONLY, DATA
  3 .ARM          00000008  0800e294  0800e294  0001e294  2**2
                  CONTENTS, ALLOC, LOAD, READONLY, DATA
  4 .init_array   00000004  0800e29c  0800e29c  0001e29c  2**2
                  CONTENTS, ALLOC, LOAD, DATA
  5 .fini_array   00000004  0800e2a0  0800e2a0  0001e2a0  2**2
                  CONTENTS, ALLOC, LOAD, DATA
  6 .data         000000c4  20000000  0800e2a4  00020000  2**2
                  CONTENTS, ALLOC, LOAD, DATA
  7 .ccmram       00000000  10000000  10000000  000200c4  2**0
                  CONTENTS
  8 .bss          0002913c  200000c4  200000c4  000200c4  2**2
                  ALLOC
  9 ._user_heap_stack 00002000  20029200  20029200  000200c4  2**0
                  ALLOC
 10 .ARM.attributes 00000030  00000000  00000000  000200c4  2**0
                  CONTENTS, READONLY
 11 .debug_line   000224fd  00000000  00000000  000200f4  2**0
                  CONTENTS, READONLY, DEBUGGING, OCTETS
 12 .debug_info   00022e73  00000000  00000000  000425f1  2**0
                  CONTENTS, READONLY, DEBUGGING, OCTETS
 13 .debug_abbrev 0000488a  00000000  00000000  00065464  2**0
                  CONTENTS, READONLY, DEBUGGING, OCTETS
 14 .debug_aranges 00001478  00000000  00000000  00069cf0  2**3
                  CONTENTS, READONLY, DEBUGGING, OCTETS
 15 .debug_str    000ef354  00000000  00000000  0006b168  2**0
                  CONTENTS, READONLY, DEBUGGING, OCTETS
 16 .debug_ranges 00001d28  00000000  00000000  0015a4c0  2**3
                  CONTENTS, READONLY, DEBUGGING, OCTETS
 17 .debug_macro  0002865f  00000000  00000000  0015c1e8  2**0
                  CONTENTS, READONLY, DEBUGGING, OCTETS
 18 .comment      000000be  00000000  00000000  00184847  2**0
                  CONTENTS, READONLY
 19 .debug_frame  0000412c  00000000  00000000  00184908  2**2
                  CONTENTS, READONLY, DEBUGGING, OCTETS
 20 .debug_loc    00015981  00000000  00000000  00188a34  2**0
                  CONTENTS, READONLY, DEBUGGING, OCTETS

Disassembly of section .text:

080001ac <__do_global_dtors_aux>:
 80001ac:	b510      	push	{r4, lr}
 80001ae:	4c05      	ldr	r4, [pc, #20]	; (80001c4 <__do_global_dtors_aux+0x18>)
 80001b0:	7823      	ldrb	r3, [r4, #0]
 80001b2:	b933      	cbnz	r3, 80001c2 <__do_global_dtors_aux+0x16>
 80001b4:	4b04      	ldr	r3, [pc, #16]	; (80001c8 <__do_global_dtors_aux+0x1c>)
 80001b6:	b113      	cbz	r3, 80001be <__do_global_dtors_aux+0x12>
 80001b8:	4804      	ldr	r0, [pc, #16]	; (80001cc <__do_global_dtors_aux+0x20>)
 80001ba:	f3af 8000 	nop.w
 80001be:	2301      	movs	r3, #1
 80001c0:	7023      	strb	r3, [r4, #0]
 80001c2:	bd10      	pop	{r4, pc}
 80001c4:	200000c4 	.word	0x200000c4
 80001c8:	00000000 	.word	0x00000000
 80001cc:	0800b474 	.word	0x0800b474

080001d0 <frame_dummy>:
 80001d0:	b508      	push	{r3, lr}
 80001d2:	4b03      	ldr	r3, [pc, #12]	; (80001e0 <frame_dummy+0x10>)
 80001d4:	b11b      	cbz	r3, 80001de <frame_dummy+0xe>
 80001d6:	4903      	ldr	r1, [pc, #12]	; (80001e4 <frame_dummy+0x14>)
 80001d8:	4803      	ldr	r0, [pc, #12]	; (80001e8 <frame_dummy+0x18>)
 80001da:	f3af 8000 	nop.w
 80001de:	bd08      	pop	{r3, pc}
 80001e0:	00000000 	.word	0x00000000
 80001e4:	200000c8 	.word	0x200000c8
 80001e8:	0800b474 	.word	0x0800b474

080001ec <__aeabi_uldivmod>:
 80001ec:	b953      	cbnz	r3, 8000204 <__aeabi_uldivmod+0x18>
 80001ee:	b94a      	cbnz	r2, 8000204 <__aeabi_uldivmod+0x18>
 80001f0:	2900      	cmp	r1, #0
 80001f2:	bf08      	it	eq
 80001f4:	2800      	cmpeq	r0, #0
 80001f6:	bf1c      	itt	ne
 80001f8:	f04f 31ff 	movne.w	r1, #4294967295	; 0xffffffff
 80001fc:	f04f 30ff 	movne.w	r0, #4294967295	; 0xffffffff
 8000200:	f000 b974 	b.w	80004ec <__aeabi_idiv0>
 8000204:	f1ad 0c08 	sub.w	ip, sp, #8
 8000208:	e96d ce04 	strd	ip, lr, [sp, #-16]!
 800020c:	f000 f806 	bl	800021c <__udivmoddi4>
 8000210:	f8dd e004 	ldr.w	lr, [sp, #4]
 8000214:	e9dd 2302 	ldrd	r2, r3, [sp, #8]
 8000218:	b004      	add	sp, #16
 800021a:	4770      	bx	lr

0800021c <__udivmoddi4>:
 800021c:	e92d 47f0 	stmdb	sp!, {r4, r5, r6, r7, r8, r9, sl, lr}
 8000220:	9d08      	ldr	r5, [sp, #32]
 8000222:	4604      	mov	r4, r0
 8000224:	468e      	mov	lr, r1
 8000226:	2b00      	cmp	r3, #0
 8000228:	d14d      	bne.n	80002c6 <__udivmoddi4+0xaa>
 800022a:	428a      	cmp	r2, r1
 800022c:	4694      	mov	ip, r2
 800022e:	d969      	bls.n	8000304 <__udivmoddi4+0xe8>
 8000230:	fab2 f282 	clz	r2, r2
 8000234:	b152      	cbz	r2, 800024c <__udivmoddi4+0x30>
 8000236:	fa01 f302 	lsl.w	r3, r1, r2
 800023a:	f1c2 0120 	rsb	r1, r2, #32
 800023e:	fa20 f101 	lsr.w	r1, r0, r1
 8000242:	fa0c fc02 	lsl.w	ip, ip, r2
 8000246:	ea41 0e03 	orr.w	lr, r1, r3
 800024a:	4094      	lsls	r4, r2
 800024c:	ea4f 481c 	mov.w	r8, ip, lsr #16
 8000250:	0c21      	lsrs	r1, r4, #16
 8000252:	fbbe f6f8 	udiv	r6, lr, r8
 8000256:	fa1f f78c 	uxth.w	r7, ip
 800025a:	fb08 e316 	mls	r3, r8, r6, lr
 800025e:	ea41 4303 	orr.w	r3, r1, r3, lsl #16
 8000262:	fb06 f107 	mul.w	r1, r6, r7
 8000266:	4299      	cmp	r1, r3
 8000268:	d90a      	bls.n	8000280 <__udivmoddi4+0x64>
 800026a:	eb1c 0303 	adds.w	r3, ip, r3
 800026e:	f106 30ff 	add.w	r0, r6, #4294967295	; 0xffffffff
 8000272:	f080 811f 	bcs.w	80004b4 <__udivmoddi4+0x298>
 8000276:	4299      	cmp	r1, r3
 8000278:	f240 811c 	bls.w	80004b4 <__udivmoddi4+0x298>
 800027c:	3e02      	subs	r6, #2
 800027e:	4463      	add	r3, ip
 8000280:	1a5b      	subs	r3, r3, r1
 8000282:	b2a4      	uxth	r4, r4
 8000284:	fbb3 f0f8 	udiv	r0, r3, r8
 8000288:	fb08 3310 	mls	r3, r8, r0, r3
 800028c:	ea44 4403 	orr.w	r4, r4, r3, lsl #16
 8000290:	fb00 f707 	mul.w	r7, r0, r7
 8000294:	42a7      	cmp	r7, r4
 8000296:	d90a      	bls.n	80002ae <__udivmoddi4+0x92>
 8000298:	eb1c 0404 	adds.w	r4, ip, r4
 800029c:	f100 33ff 	add.w	r3, r0, #4294967295	; 0xffffffff
 80002a0:	f080 810a 	bcs.w	80004b8 <__udivmoddi4+0x29c>
 80002a4:	42a7      	cmp	r7, r4
 80002a6:	f240 8107 	bls.w	80004b8 <__udivmoddi4+0x29c>
 80002aa:	4464      	add	r4, ip
 80002ac:	3802      	subs	r0, #2
 80002ae:	ea40 4006 	orr.w	r0, r0, r6, lsl #16
 80002b2:	1be4      	subs	r4, r4, r7
 80002b4:	2600      	movs	r6, #0
 80002b6:	b11d      	cbz	r5, 80002c0 <__udivmoddi4+0xa4>
 80002b8:	40d4      	lsrs	r4, r2
 80002ba:	2300      	movs	r3, #0
 80002bc:	e9c5 4300 	strd	r4, r3, [r5]
 80002c0:	4631      	mov	r1, r6
 80002c2:	e8bd 87f0 	ldmia.w	sp!, {r4, r5, r6, r7, r8, r9, sl, pc}
 80002c6:	428b      	cmp	r3, r1
 80002c8:	d909      	bls.n	80002de <__udivmoddi4+0xc2>
 80002ca:	2d00      	cmp	r5, #0
 80002cc:	f000 80ef 	beq.w	80004ae <__udivmoddi4+0x292>
 80002d0:	2600      	movs	r6, #0
 80002d2:	e9c5 0100 	strd	r0, r1, [r5]
 80002d6:	4630      	mov	r0, r6
 80002d8:	4631      	mov	r1, r6
 80002da:	e8bd 87f0 	ldmia.w	sp!, {r4, r5, r6, r7, r8, r9, sl, pc}
 80002de:	fab3 f683 	clz	r6, r3
 80002e2:	2e00      	cmp	r6, #0
 80002e4:	d14a      	bne.n	800037c <__udivmoddi4+0x160>
 80002e6:	428b      	cmp	r3, r1
 80002e8:	d302      	bcc.n	80002f0 <__udivmoddi4+0xd4>
 80002ea:	4282      	cmp	r2, r0
 80002ec:	f200 80f9 	bhi.w	80004e2 <__udivmoddi4+0x2c6>
 80002f0:	1a84      	subs	r4, r0, r2
 80002f2:	eb61 0303 	sbc.w	r3, r1, r3
 80002f6:	2001      	movs	r0, #1
 80002f8:	469e      	mov	lr, r3
 80002fa:	2d00      	cmp	r5, #0
 80002fc:	d0e0      	beq.n	80002c0 <__udivmoddi4+0xa4>
 80002fe:	e9c5 4e00 	strd	r4, lr, [r5]
 8000302:	e7dd      	b.n	80002c0 <__udivmoddi4+0xa4>
 8000304:	b902      	cbnz	r2, 8000308 <__udivmoddi4+0xec>
 8000306:	deff      	udf	#255	; 0xff
 8000308:	fab2 f282 	clz	r2, r2
 800030c:	2a00      	cmp	r2, #0
 800030e:	f040 8092 	bne.w	8000436 <__udivmoddi4+0x21a>
 8000312:	eba1 010c 	sub.w	r1, r1, ip
 8000316:	ea4f 471c 	mov.w	r7, ip, lsr #16
 800031a:	fa1f fe8c 	uxth.w	lr, ip
 800031e:	2601      	movs	r6, #1
 8000320:	0c20      	lsrs	r0, r4, #16
 8000322:	fbb1 f3f7 	udiv	r3, r1, r7
 8000326:	fb07 1113 	mls	r1, r7, r3, r1
 800032a:	ea40 4101 	orr.w	r1, r0, r1, lsl #16
 800032e:	fb0e f003 	mul.w	r0, lr, r3
 8000332:	4288      	cmp	r0, r1
 8000334:	d908      	bls.n	8000348 <__udivmoddi4+0x12c>
 8000336:	eb1c 0101 	adds.w	r1, ip, r1
 800033a:	f103 38ff 	add.w	r8, r3, #4294967295	; 0xffffffff
 800033e:	d202      	bcs.n	8000346 <__udivmoddi4+0x12a>
 8000340:	4288      	cmp	r0, r1
 8000342:	f200 80cb 	bhi.w	80004dc <__udivmoddi4+0x2c0>
 8000346:	4643      	mov	r3, r8
 8000348:	1a09      	subs	r1, r1, r0
 800034a:	b2a4      	uxth	r4, r4
 800034c:	fbb1 f0f7 	udiv	r0, r1, r7
 8000350:	fb07 1110 	mls	r1, r7, r0, r1
 8000354:	ea44 4401 	orr.w	r4, r4, r1, lsl #16
 8000358:	fb0e fe00 	mul.w	lr, lr, r0
 800035c:	45a6      	cmp	lr, r4
 800035e:	d908      	bls.n	8000372 <__udivmoddi4+0x156>
 8000360:	eb1c 0404 	adds.w	r4, ip, r4
 8000364:	f100 31ff 	add.w	r1, r0, #4294967295	; 0xffffffff
 8000368:	d202      	bcs.n	8000370 <__udivmoddi4+0x154>
 800036a:	45a6      	cmp	lr, r4
 800036c:	f200 80bb 	bhi.w	80004e6 <__udivmoddi4+0x2ca>
 8000370:	4608      	mov	r0, r1
 8000372:	eba4 040e 	sub.w	r4, r4, lr
 8000376:	ea40 4003 	orr.w	r0, r0, r3, lsl #16
 800037a:	e79c      	b.n	80002b6 <__udivmoddi4+0x9a>
 800037c:	f1c6 0720 	rsb	r7, r6, #32
 8000380:	40b3      	lsls	r3, r6
 8000382:	fa22 fc07 	lsr.w	ip, r2, r7
 8000386:	ea4c 0c03 	orr.w	ip, ip, r3
 800038a:	fa20 f407 	lsr.w	r4, r0, r7
 800038e:	fa01 f306 	lsl.w	r3, r1, r6
 8000392:	431c      	orrs	r4, r3
 8000394:	40f9      	lsrs	r1, r7
 8000396:	ea4f 491c 	mov.w	r9, ip, lsr #16
 800039a:	fa00 f306 	lsl.w	r3, r0, r6
 800039e:	fbb1 f8f9 	udiv	r8, r1, r9
 80003a2:	0c20      	lsrs	r0, r4, #16
 80003a4:	fa1f fe8c 	uxth.w	lr, ip
 80003a8:	fb09 1118 	mls	r1, r9, r8, r1
 80003ac:	ea40 4101 	orr.w	r1, r0, r1, lsl #16
 80003b0:	fb08 f00e 	mul.w	r0, r8, lr
 80003b4:	4288      	cmp	r0, r1
 80003b6:	fa02 f206 	lsl.w	r2, r2, r6
 80003ba:	d90b      	bls.n	80003d4 <__udivmoddi4+0x1b8>
 80003bc:	eb1c 0101 	adds.w	r1, ip, r1
 80003c0:	f108 3aff 	add.w	sl, r8, #4294967295	; 0xffffffff
 80003c4:	f080 8088 	bcs.w	80004d8 <__udivmoddi4+0x2bc>
 80003c8:	4288      	cmp	r0, r1
 80003ca:	f240 8085 	bls.w	80004d8 <__udivmoddi4+0x2bc>
 80003ce:	f1a8 0802 	sub.w	r8, r8, #2
 80003d2:	4461      	add	r1, ip
 80003d4:	1a09      	subs	r1, r1, r0
 80003d6:	b2a4      	uxth	r4, r4
 80003d8:	fbb1 f0f9 	udiv	r0, r1, r9
 80003dc:	fb09 1110 	mls	r1, r9, r0, r1
 80003e0:	ea44 4101 	orr.w	r1, r4, r1, lsl #16
 80003e4:	fb00 fe0e 	mul.w	lr, r0, lr
 80003e8:	458e      	cmp	lr, r1
 80003ea:	d908      	bls.n	80003fe <__udivmoddi4+0x1e2>
 80003ec:	eb1c 0101 	adds.w	r1, ip, r1
 80003f0:	f100 34ff 	add.w	r4, r0, #4294967295	; 0xffffffff
 80003f4:	d26c      	bcs.n	80004d0 <__udivmoddi4+0x2b4>
 80003f6:	458e      	cmp	lr, r1
 80003f8:	d96a      	bls.n	80004d0 <__udivmoddi4+0x2b4>
 80003fa:	3802      	subs	r0, #2
 80003fc:	4461      	add	r1, ip
 80003fe:	ea40 4008 	orr.w	r0, r0, r8, lsl #16
 8000402:	fba0 9402 	umull	r9, r4, r0, r2
 8000406:	eba1 010e 	sub.w	r1, r1, lr
 800040a:	42a1      	cmp	r1, r4
 800040c:	46c8      	mov	r8, r9
 800040e:	46a6      	mov	lr, r4
 8000410:	d356      	bcc.n	80004c0 <__udivmoddi4+0x2a4>
 8000412:	d053      	beq.n	80004bc <__udivmoddi4+0x2a0>
 8000414:	b15d      	cbz	r5, 800042e <__udivmoddi4+0x212>
 8000416:	ebb3 0208 	subs.w	r2, r3, r8
 800041a:	eb61 010e 	sbc.w	r1, r1, lr
 800041e:	fa01 f707 	lsl.w	r7, r1, r7
 8000422:	fa22 f306 	lsr.w	r3, r2, r6
 8000426:	40f1      	lsrs	r1, r6
 8000428:	431f      	orrs	r7, r3
 800042a:	e9c5 7100 	strd	r7, r1, [r5]
 800042e:	2600      	movs	r6, #0
 8000430:	4631      	mov	r1, r6
 8000432:	e8bd 87f0 	ldmia.w	sp!, {r4, r5, r6, r7, r8, r9, sl, pc}
 8000436:	f1c2 0320 	rsb	r3, r2, #32
 800043a:	40d8      	lsrs	r0, r3
 800043c:	fa0c fc02 	lsl.w	ip, ip, r2
 8000440:	fa21 f303 	lsr.w	r3, r1, r3
 8000444:	4091      	lsls	r1, r2
 8000446:	4301      	orrs	r1, r0
 8000448:	ea4f 471c 	mov.w	r7, ip, lsr #16
 800044c:	fa1f fe8c 	uxth.w	lr, ip
 8000450:	fbb3 f0f7 	udiv	r0, r3, r7
 8000454:	fb07 3610 	mls	r6, r7, r0, r3
 8000458:	0c0b      	lsrs	r3, r1, #16
 800045a:	ea43 4306 	orr.w	r3, r3, r6, lsl #16
 800045e:	fb00 f60e 	mul.w	r6, r0, lr
 8000462:	429e      	cmp	r6, r3
 8000464:	fa04 f402 	lsl.w	r4, r4, r2
 8000468:	d908      	bls.n	800047c <__udivmoddi4+0x260>
 800046a:	eb1c 0303 	adds.w	r3, ip, r3
 800046e:	f100 38ff 	add.w	r8, r0, #4294967295	; 0xffffffff
 8000472:	d22f      	bcs.n	80004d4 <__udivmoddi4+0x2b8>
 8000474:	429e      	cmp	r6, r3
 8000476:	d92d      	bls.n	80004d4 <__udivmoddi4+0x2b8>
 8000478:	3802      	subs	r0, #2
 800047a:	4463      	add	r3, ip
 800047c:	1b9b      	subs	r3, r3, r6
 800047e:	b289      	uxth	r1, r1
 8000480:	fbb3 f6f7 	udiv	r6, r3, r7
 8000484:	fb07 3316 	mls	r3, r7, r6, r3
 8000488:	ea41 4103 	orr.w	r1, r1, r3, lsl #16
 800048c:	fb06 f30e 	mul.w	r3, r6, lr
 8000490:	428b      	cmp	r3, r1
 8000492:	d908      	bls.n	80004a6 <__udivmoddi4+0x28a>
 8000494:	eb1c 0101 	adds.w	r1, ip, r1
 8000498:	f106 38ff 	add.w	r8, r6, #4294967295	; 0xffffffff
 800049c:	d216      	bcs.n	80004cc <__udivmoddi4+0x2b0>
 800049e:	428b      	cmp	r3, r1
 80004a0:	d914      	bls.n	80004cc <__udivmoddi4+0x2b0>
 80004a2:	3e02      	subs	r6, #2
 80004a4:	4461      	add	r1, ip
 80004a6:	1ac9      	subs	r1, r1, r3
 80004a8:	ea46 4600 	orr.w	r6, r6, r0, lsl #16
 80004ac:	e738      	b.n	8000320 <__udivmoddi4+0x104>
 80004ae:	462e      	mov	r6, r5
 80004b0:	4628      	mov	r0, r5
 80004b2:	e705      	b.n	80002c0 <__udivmoddi4+0xa4>
 80004b4:	4606      	mov	r6, r0
 80004b6:	e6e3      	b.n	8000280 <__udivmoddi4+0x64>
 80004b8:	4618      	mov	r0, r3
 80004ba:	e6f8      	b.n	80002ae <__udivmoddi4+0x92>
 80004bc:	454b      	cmp	r3, r9
 80004be:	d2a9      	bcs.n	8000414 <__udivmoddi4+0x1f8>
 80004c0:	ebb9 0802 	subs.w	r8, r9, r2
 80004c4:	eb64 0e0c 	sbc.w	lr, r4, ip
 80004c8:	3801      	subs	r0, #1
 80004ca:	e7a3      	b.n	8000414 <__udivmoddi4+0x1f8>
 80004cc:	4646      	mov	r6, r8
 80004ce:	e7ea      	b.n	80004a6 <__udivmoddi4+0x28a>
 80004d0:	4620      	mov	r0, r4
 80004d2:	e794      	b.n	80003fe <__udivmoddi4+0x1e2>
 80004d4:	4640      	mov	r0, r8
 80004d6:	e7d1      	b.n	800047c <__udivmoddi4+0x260>
 80004d8:	46d0      	mov	r8, sl
 80004da:	e77b      	b.n	80003d4 <__udivmoddi4+0x1b8>
 80004dc:	3b02      	subs	r3, #2
 80004de:	4461      	add	r1, ip
 80004e0:	e732      	b.n	8000348 <__udivmoddi4+0x12c>
 80004e2:	4630      	mov	r0, r6
 80004e4:	e709      	b.n	80002fa <__udivmoddi4+0xde>
 80004e6:	4464      	add	r4, ip
 80004e8:	3802      	subs	r0, #2
 80004ea:	e742      	b.n	8000372 <__udivmoddi4+0x156>

080004ec <__aeabi_idiv0>:
 80004ec:	4770      	bx	lr
 80004ee:	bf00      	nop

080004f0 <Reset_Handler>:

    .section  .text.Reset_Handler
  .weak  Reset_Handler
  .type  Reset_Handler, %function
Reset_Handler: 
  ldr   sp, =_estack       /* set stack pointer */
 80004f0:	f8df d034 	ldr.w	sp, [pc, #52]	; 8000528 <LoopFillZerobss+0x14>
 
/* Copy the data segment initializers from flash to SRAM */  
  movs  r1, #0
 80004f4:	2100      	movs	r1, #0
  b  LoopCopyDataInit
 80004f6:	e003      	b.n	8000500 <LoopCopyDataInit>

080004f8 <CopyDataInit>:

CopyDataInit:
  ldr  r3, =_sidata
 80004f8:	4b0c      	ldr	r3, [pc, #48]	; (800052c <LoopFillZerobss+0x18>)
  ldr  r3, [r3, r1]
 80004fa:	585b      	ldr	r3, [r3, r1]
  str  r3, [r0, r1]
 80004fc:	5043      	str	r3, [r0, r1]
  adds  r1, r1, #4
 80004fe:	3104      	adds	r1, #4

08000500 <LoopCopyDataInit>:
    
LoopCopyDataInit:
  ldr  r0, =_sdata
 8000500:	480b      	ldr	r0, [pc, #44]	; (8000530 <LoopFillZerobss+0x1c>)
  ldr  r3, =_edata
 8000502:	4b0c      	ldr	r3, [pc, #48]	; (8000534 <LoopFillZerobss+0x20>)
  adds  r2, r0, r1
 8000504:	1842      	adds	r2, r0, r1
  cmp  r2, r3
 8000506:	429a      	cmp	r2, r3
  bcc  CopyDataInit
 8000508:	d3f6      	bcc.n	80004f8 <CopyDataInit>
  ldr  r2, =_sbss
 800050a:	4a0b      	ldr	r2, [pc, #44]	; (8000538 <LoopFillZerobss+0x24>)
  b  LoopFillZerobss
 800050c:	e002      	b.n	8000514 <LoopFillZerobss>

0800050e <FillZerobss>:
/* Zero fill the bss segment. */  
FillZerobss:
  movs  r3, #0
 800050e:	2300      	movs	r3, #0
  str  r3, [r2], #4
 8000510:	f842 3b04 	str.w	r3, [r2], #4

08000514 <LoopFillZerobss>:
    
LoopFillZerobss:
  ldr  r3, = _ebss
 8000514:	4b09      	ldr	r3, [pc, #36]	; (800053c <LoopFillZerobss+0x28>)
  cmp  r2, r3
 8000516:	429a      	cmp	r2, r3
  bcc  FillZerobss
 8000518:	d3f9      	bcc.n	800050e <FillZerobss>

/* Call the clock system initialization function.*/
  bl  SystemInit   
 800051a:	f001 f9a1 	bl	8001860 <SystemInit>
/* Call static constructors */
    bl __libc_init_array
 800051e:	f00a ff45 	bl	800b3ac <__libc_init_array>
/* Call the application's entry point.*/
  bl  main
 8000522:	f000 f82b 	bl	800057c <main>
  bx  lr    
 8000526:	4770      	bx	lr
  ldr   sp, =_estack       /* set stack pointer */
 8000528:	20030000 	.word	0x20030000
  ldr  r3, =_sidata
 800052c:	0800e2a4 	.word	0x0800e2a4
  ldr  r0, =_sdata
 8000530:	20000000 	.word	0x20000000
  ldr  r3, =_edata
 8000534:	200000c4 	.word	0x200000c4
  ldr  r2, =_sbss
 8000538:	200000c4 	.word	0x200000c4
  ldr  r3, = _ebss
 800053c:	20029200 	.word	0x20029200

08000540 <ADC_IRQHandler>:
 * @retval None       
*/
    .section  .text.Default_Handler,"ax",%progbits
Default_Handler:
Infinite_Loop:
  b  Infinite_Loop
 8000540:	e7fe      	b.n	8000540 <ADC_IRQHandler>
	...

08000544 <MainTask>:
*/
/*********************************************************************
*
*       MainTask
*/
void MainTask(void) {
 8000544:	b508      	push	{r3, lr}
  GUI_Clear();
 8000546:	f005 fb1f 	bl	8005b88 <GUI_Clear>
  GUI_SetFont(&GUI_Font20_1);
 800054a:	480a      	ldr	r0, [pc, #40]	; (8000574 <MainTask+0x30>)
 800054c:	f005 fa52 	bl	80059f4 <GUI_SetFont>
  GUI_DispStringAt("Hello MES!", (LCD_GetXSize()-100)/2, (LCD_GetYSize()-20)/2);
 8000550:	f006 fc6c 	bl	8006e2c <LCD_GetXSize>
 8000554:	4604      	mov	r4, r0
 8000556:	f006 fc71 	bl	8006e3c <LCD_GetYSize>
 800055a:	f1a4 0164 	sub.w	r1, r4, #100	; 0x64
 800055e:	3814      	subs	r0, #20
 8000560:	eb00 70d0 	add.w	r0, r0, r0, lsr #31
 8000564:	eb01 71d1 	add.w	r1, r1, r1, lsr #31
 8000568:	1042      	asrs	r2, r0, #1
 800056a:	1049      	asrs	r1, r1, #1
 800056c:	4802      	ldr	r0, [pc, #8]	; (8000578 <MainTask+0x34>)
 800056e:	f005 fd27 	bl	8005fc0 <GUI_DispStringAt>
  while(1);
 8000572:	e7fe      	b.n	8000572 <MainTask+0x2e>
 8000574:	0800b94c 	.word	0x0800b94c
 8000578:	0800e288 	.word	0x0800e288

0800057c <main>:
  * @brief  Main program
  * @param  None
  * @retval None
  */ 
int main(void)
{  
 800057c:	b500      	push	{lr}
 800057e:	b095      	sub	sp, #84	; 0x54
       - Configure the Flash prefetch, instruction and Data caches
       - Configure the Systick to generate an interrupt each 1 msec
       - Set NVIC Group Priority to 4
       - Global MSP (MCU Support Package) initialization
     */
  HAL_Init();
 8000580:	f001 f9b8 	bl	80018f4 <HAL_Init>
  * @retval None
  */
static void BSP_Config(void)
{
  /* Initialize STM32F429I-DISCO's LEDs */
  BSP_LED_Init(LED3);
 8000584:	2000      	movs	r0, #0
 8000586:	f000 fdf7 	bl	8001178 <BSP_LED_Init>
  BSP_LED_Init(LED4);
 800058a:	2001      	movs	r0, #1
 800058c:	f000 fdf4 	bl	8001178 <BSP_LED_Init>
  
  /* Initialize user button to cause an interrupt */
  BSP_PB_Init(BUTTON_KEY, BUTTON_MODE_EXTI);
 8000590:	2101      	movs	r1, #1
 8000592:	2000      	movs	r0, #0
 8000594:	f000 fe46 	bl	8001224 <BSP_PB_Init>

  /* Initializes the SDRAM device */
  BSP_SDRAM_Init();
 8000598:	f001 f8b0 	bl	80016fc <BSP_SDRAM_Init>
  
  /* Initialize the Touch screen */
  BSP_TS_Init(240, 320);
 800059c:	f44f 71a0 	mov.w	r1, #320	; 0x140
 80005a0:	20f0      	movs	r0, #240	; 0xf0
 80005a2:	f001 f8e9 	bl	8001778 <BSP_TS_Init>
  
  /* Enable the CRC Module */
  __HAL_RCC_CRC_CLK_ENABLE();
 80005a6:	2500      	movs	r5, #0
 80005a8:	4b35      	ldr	r3, [pc, #212]	; (8000680 <main+0x104>)
 80005aa:	9502      	str	r5, [sp, #8]
 80005ac:	6b1a      	ldr	r2, [r3, #48]	; 0x30
 80005ae:	f442 5280 	orr.w	r2, r2, #4096	; 0x1000
 80005b2:	631a      	str	r2, [r3, #48]	; 0x30
 80005b4:	6b1a      	ldr	r2, [r3, #48]	; 0x30
 80005b6:	f402 5280 	and.w	r2, r2, #4096	; 0x1000
 80005ba:	9202      	str	r2, [sp, #8]
 80005bc:	9a02      	ldr	r2, [sp, #8]
{
  RCC_ClkInitTypeDef RCC_ClkInitStruct;
  RCC_OscInitTypeDef RCC_OscInitStruct;
  
  /* Enable Power Control clock */
  __HAL_RCC_PWR_CLK_ENABLE();
 80005be:	9500      	str	r5, [sp, #0]
 80005c0:	6c1a      	ldr	r2, [r3, #64]	; 0x40
 80005c2:	f042 5280 	orr.w	r2, r2, #268435456	; 0x10000000
 80005c6:	641a      	str	r2, [r3, #64]	; 0x40
 80005c8:	6c1b      	ldr	r3, [r3, #64]	; 0x40
 80005ca:	f003 5380 	and.w	r3, r3, #268435456	; 0x10000000
 80005ce:	9300      	str	r3, [sp, #0]
 80005d0:	9b00      	ldr	r3, [sp, #0]
  
  /* The voltage scaling allows optimizing the power consumption when the device is 
     clocked below the maximum system frequency, to update the voltage scaling value 
     regarding system frequency refer to product datasheet.  */
  __HAL_PWR_VOLTAGESCALING_CONFIG(PWR_REGULATOR_VOLTAGE_SCALE1);
 80005d2:	4b2c      	ldr	r3, [pc, #176]	; (8000684 <main+0x108>)
 80005d4:	9501      	str	r5, [sp, #4]
 80005d6:	681a      	ldr	r2, [r3, #0]
 80005d8:	f442 4240 	orr.w	r2, r2, #49152	; 0xc000
 80005dc:	601a      	str	r2, [r3, #0]
 80005de:	681b      	ldr	r3, [r3, #0]
 80005e0:	f403 4340 	and.w	r3, r3, #49152	; 0xc000
 80005e4:	9301      	str	r3, [sp, #4]
 80005e6:	9b01      	ldr	r3, [sp, #4]
  
  /* Enable HSE Oscillator and activate PLL with HSE as source */
  RCC_OscInitStruct.OscillatorType = RCC_OSCILLATORTYPE_HSE;
  RCC_OscInitStruct.HSEState = RCC_HSE_ON;
 80005e8:	2601      	movs	r6, #1
 80005ea:	f44f 3380 	mov.w	r3, #65536	; 0x10000
  RCC_OscInitStruct.PLL.PLLState = RCC_PLL_ON;
  RCC_OscInitStruct.PLL.PLLSource = RCC_PLLSOURCE_HSE;
 80005ee:	2402      	movs	r4, #2
  RCC_OscInitStruct.HSEState = RCC_HSE_ON;
 80005f0:	e9cd 6308 	strd	r6, r3, [sp, #32]
  RCC_OscInitStruct.PLL.PLLSource = RCC_PLLSOURCE_HSE;
 80005f4:	f44f 0380 	mov.w	r3, #4194304	; 0x400000
  RCC_OscInitStruct.PLL.PLLM = 8;
  RCC_OscInitStruct.PLL.PLLN = 360;
 80005f8:	2208      	movs	r2, #8
  RCC_OscInitStruct.PLL.PLLSource = RCC_PLLSOURCE_HSE;
 80005fa:	e9cd 430e 	strd	r4, r3, [sp, #56]	; 0x38
  RCC_OscInitStruct.PLL.PLLN = 360;
 80005fe:	f44f 73b4 	mov.w	r3, #360	; 0x168
 8000602:	e9cd 2310 	strd	r2, r3, [sp, #64]	; 0x40
  RCC_OscInitStruct.PLL.PLLP = RCC_PLLP_DIV2;
  RCC_OscInitStruct.PLL.PLLQ = 7;
  HAL_RCC_OscConfig(&RCC_OscInitStruct);
 8000606:	a808      	add	r0, sp, #32
  RCC_OscInitStruct.PLL.PLLQ = 7;
 8000608:	2307      	movs	r3, #7
 800060a:	9313      	str	r3, [sp, #76]	; 0x4c
  RCC_OscInitStruct.PLL.PLLP = RCC_PLLP_DIV2;
 800060c:	9412      	str	r4, [sp, #72]	; 0x48
  HAL_RCC_OscConfig(&RCC_OscInitStruct);
 800060e:	f002 fb53 	bl	8002cb8 <HAL_RCC_OscConfig>
  
  /* Activate the Over-Drive mode */
  HAL_PWREx_EnableOverDrive();
 8000612:	f002 fb17 	bl	8002c44 <HAL_PWREx_EnableOverDrive>
  
  /* Select PLL as system clock source and configure the HCLK, PCLK1 and PCLK2 
  clocks dividers */
  RCC_ClkInitStruct.ClockType = (RCC_CLOCKTYPE_SYSCLK | RCC_CLOCKTYPE_HCLK | RCC_CLOCKTYPE_PCLK1 | RCC_CLOCKTYPE_PCLK2);
 8000616:	230f      	movs	r3, #15
  RCC_ClkInitStruct.SYSCLKSource = RCC_SYSCLKSOURCE_PLLCLK;
 8000618:	e9cd 3403 	strd	r3, r4, [sp, #12]
  RCC_ClkInitStruct.AHBCLKDivider = RCC_SYSCLK_DIV1;
  RCC_ClkInitStruct.APB1CLKDivider = RCC_HCLK_DIV4;  
  RCC_ClkInitStruct.APB2CLKDivider = RCC_HCLK_DIV2;  
 800061c:	f44f 51a0 	mov.w	r1, #5120	; 0x1400
 8000620:	f44f 5380 	mov.w	r3, #4096	; 0x1000
 8000624:	e9cd 1306 	strd	r1, r3, [sp, #24]
  HAL_RCC_ClockConfig(&RCC_ClkInitStruct, FLASH_LATENCY_5);
 8000628:	a803      	add	r0, sp, #12
 800062a:	2105      	movs	r1, #5
  uwPrescalerValue = (uint32_t) ((SystemCoreClock /2) / 10000) - 1;
 800062c:	4c16      	ldr	r4, [pc, #88]	; (8000688 <main+0x10c>)
  RCC_ClkInitStruct.AHBCLKDivider = RCC_SYSCLK_DIV1;
 800062e:	9505      	str	r5, [sp, #20]
  HAL_RCC_ClockConfig(&RCC_ClkInitStruct, FLASH_LATENCY_5);
 8000630:	f002 fd20 	bl	8003074 <HAL_RCC_ClockConfig>
  uwPrescalerValue = (uint32_t) ((SystemCoreClock /2) / 10000) - 1;
 8000634:	4b15      	ldr	r3, [pc, #84]	; (800068c <main+0x110>)
  TimHandle.Init.ClockDivision = 0;
 8000636:	6165      	str	r5, [r4, #20]
  uwPrescalerValue = (uint32_t) ((SystemCoreClock /2) / 10000) - 1;
 8000638:	f644 6220 	movw	r2, #20000	; 0x4e20
 800063c:	681b      	ldr	r3, [r3, #0]
  TimHandle.Init.CounterMode = TIM_COUNTERMODE_UP;
 800063e:	60e5      	str	r5, [r4, #12]
  uwPrescalerValue = (uint32_t) ((SystemCoreClock /2) / 10000) - 1;
 8000640:	fbb3 f3f2 	udiv	r3, r3, r2
  TimHandle.Init.AutoReloadPreload = TIM_AUTORELOAD_PRELOAD_DISABLE;
 8000644:	61e5      	str	r5, [r4, #28]
  TimHandle.Instance = TIM3;
 8000646:	4a12      	ldr	r2, [pc, #72]	; (8000690 <main+0x114>)
 8000648:	6062      	str	r2, [r4, #4]
  if(HAL_TIM_Base_Init(&TimHandle) != HAL_OK)
 800064a:	1d25      	adds	r5, r4, #4
  uwPrescalerValue = (uint32_t) ((SystemCoreClock /2) / 10000) - 1;
 800064c:	3b01      	subs	r3, #1
  TimHandle.Init.Period = 1000 - 1;
 800064e:	f240 32e7 	movw	r2, #999	; 0x3e7
  if(HAL_TIM_Base_Init(&TimHandle) != HAL_OK)
 8000652:	4628      	mov	r0, r5
  uwPrescalerValue = (uint32_t) ((SystemCoreClock /2) / 10000) - 1;
 8000654:	6023      	str	r3, [r4, #0]
  TimHandle.Init.Period = 1000 - 1;
 8000656:	6122      	str	r2, [r4, #16]
  TimHandle.Init.Prescaler = uwPrescalerValue;
 8000658:	60a3      	str	r3, [r4, #8]
  if(HAL_TIM_Base_Init(&TimHandle) != HAL_OK)
 800065a:	f003 fa4b 	bl	8003af4 <HAL_TIM_Base_Init>
 800065e:	b100      	cbz	r0, 8000662 <main+0xe6>
    while(1) 
 8000660:	e7fe      	b.n	8000660 <main+0xe4>
  if(HAL_TIM_Base_Start_IT(&TimHandle) != HAL_OK)
 8000662:	4628      	mov	r0, r5
 8000664:	f003 f900 	bl	8003868 <HAL_TIM_Base_Start_IT>
 8000668:	b100      	cbz	r0, 800066c <main+0xf0>
    while(1) 
 800066a:	e7fe      	b.n	800066a <main+0xee>
  GUI_Init();
 800066c:	f005 fae6 	bl	8005c3c <GUI_Init>
  WM_SetCreateFlags(WM_CF_MEMDEV);
 8000670:	2004      	movs	r0, #4
  GUI_Initialized = 1;
 8000672:	f884 604c 	strb.w	r6, [r4, #76]	; 0x4c
  WM_SetCreateFlags(WM_CF_MEMDEV);
 8000676:	f009 f91b 	bl	80098b0 <WM_SetCreateFlags>
  MainTask();
 800067a:	f7ff ff63 	bl	8000544 <MainTask>
  while (1) 
 800067e:	e7fe      	b.n	800067e <main+0x102>
 8000680:	40023800 	.word	0x40023800
 8000684:	40007000 	.word	0x40007000
 8000688:	200000e0 	.word	0x200000e0
 800068c:	20000078 	.word	0x20000078
 8000690:	40000400 	.word	0x40000400

08000694 <HAL_GPIO_EXTI_Callback>:
   button_pressed = 1;
 8000694:	4b01      	ldr	r3, [pc, #4]	; (800069c <HAL_GPIO_EXTI_Callback+0x8>)
 8000696:	2201      	movs	r2, #1
 8000698:	651a      	str	r2, [r3, #80]	; 0x50
}
 800069a:	4770      	bx	lr
 800069c:	200000e0 	.word	0x200000e0

080006a0 <HAL_TIM_Base_MspInit>:
{
 80006a0:	b507      	push	{r0, r1, r2, lr}
  __HAL_RCC_TIM3_CLK_ENABLE();
 80006a2:	4b0b      	ldr	r3, [pc, #44]	; (80006d0 <HAL_TIM_Base_MspInit+0x30>)
 80006a4:	2100      	movs	r1, #0
 80006a6:	9101      	str	r1, [sp, #4]
 80006a8:	6c1a      	ldr	r2, [r3, #64]	; 0x40
 80006aa:	f042 0202 	orr.w	r2, r2, #2
 80006ae:	641a      	str	r2, [r3, #64]	; 0x40
 80006b0:	6c1b      	ldr	r3, [r3, #64]	; 0x40
 80006b2:	f003 0302 	and.w	r3, r3, #2
 80006b6:	9301      	str	r3, [sp, #4]
  HAL_NVIC_SetPriority(TIM3_IRQn, 0, 1);
 80006b8:	2201      	movs	r2, #1
 80006ba:	201d      	movs	r0, #29
  __HAL_RCC_TIM3_CLK_ENABLE();
 80006bc:	9b01      	ldr	r3, [sp, #4]
  HAL_NVIC_SetPriority(TIM3_IRQn, 0, 1);
 80006be:	f001 f96b 	bl	8001998 <HAL_NVIC_SetPriority>
  HAL_NVIC_EnableIRQ(TIM3_IRQn);
 80006c2:	201d      	movs	r0, #29
}
 80006c4:	b003      	add	sp, #12
 80006c6:	f85d eb04 	ldr.w	lr, [sp], #4
  HAL_NVIC_EnableIRQ(TIM3_IRQn);
 80006ca:	f001 b997 	b.w	80019fc <HAL_NVIC_EnableIRQ>
 80006ce:	bf00      	nop
 80006d0:	40023800 	.word	0x40023800

080006d4 <BSP_Pointer_Update>:
{
 80006d4:	b570      	push	{r4, r5, r6, lr}
  xDiff = (prev_state.X > ts.X) ? (prev_state.X - ts.X) : (ts.X - prev_state.X);
 80006d6:	4e19      	ldr	r6, [pc, #100]	; (800073c <BSP_Pointer_Update+0x68>)
{
 80006d8:	b086      	sub	sp, #24
  BSP_TS_GetState(&ts);
 80006da:	a801      	add	r0, sp, #4
 80006dc:	f001 f868 	bl	80017b0 <BSP_TS_GetState>
  xDiff = (prev_state.X > ts.X) ? (prev_state.X - ts.X) : (ts.X - prev_state.X);
 80006e0:	f8b6 3056 	ldrh.w	r3, [r6, #86]	; 0x56
 80006e4:	f8bd 5006 	ldrh.w	r5, [sp, #6]
  yDiff = (prev_state.Y > ts.Y) ? (prev_state.Y - ts.Y) : (ts.Y - prev_state.Y);
 80006e8:	f8bd 4008 	ldrh.w	r4, [sp, #8]
  TS_State.Pressed = ts.TouchDetected;
 80006ec:	f8bd 1004 	ldrh.w	r1, [sp, #4]
 80006f0:	f88d 1014 	strb.w	r1, [sp, #20]
  xDiff = (prev_state.X > ts.X) ? (prev_state.X - ts.X) : (ts.X - prev_state.X);
 80006f4:	42ab      	cmp	r3, r5
 80006f6:	bf8c      	ite	hi
 80006f8:	1b5b      	subhi	r3, r3, r5
 80006fa:	1aeb      	subls	r3, r5, r3
 80006fc:	b29a      	uxth	r2, r3
  yDiff = (prev_state.Y > ts.Y) ? (prev_state.Y - ts.Y) : (ts.Y - prev_state.Y);
 80006fe:	f8b6 3058 	ldrh.w	r3, [r6, #88]	; 0x58
 8000702:	42a3      	cmp	r3, r4
 8000704:	bf8c      	ite	hi
 8000706:	1b1b      	subhi	r3, r3, r4
 8000708:	1ae3      	subls	r3, r4, r3
 800070a:	b29b      	uxth	r3, r3
  if(ts.TouchDetected)
 800070c:	b1a1      	cbz	r1, 8000738 <BSP_Pointer_Update+0x64>
    if((prev_state.TouchDetected != ts.TouchDetected )||
 800070e:	f8b6 0054 	ldrh.w	r0, [r6, #84]	; 0x54
 8000712:	4288      	cmp	r0, r1
 8000714:	d103      	bne.n	800071e <BSP_Pointer_Update+0x4a>
 8000716:	2a03      	cmp	r2, #3
 8000718:	d801      	bhi.n	800071e <BSP_Pointer_Update+0x4a>
       (xDiff > 3 )||
 800071a:	2b03      	cmp	r3, #3
 800071c:	d90c      	bls.n	8000738 <BSP_Pointer_Update+0x64>
      prev_state = ts;
 800071e:	ab01      	add	r3, sp, #4
 8000720:	cb03      	ldmia	r3!, {r0, r1}
 8000722:	4b07      	ldr	r3, [pc, #28]	; (8000740 <BSP_Pointer_Update+0x6c>)
 8000724:	6570      	str	r0, [r6, #84]	; 0x54
 8000726:	6059      	str	r1, [r3, #4]
      GUI_TOUCH_StoreStateEx(&TS_State);
 8000728:	a803      	add	r0, sp, #12
      TS_State.Layer = 0;
 800072a:	2300      	movs	r3, #0
      TS_State.y = ts.Y;
 800072c:	e9cd 5403 	strd	r5, r4, [sp, #12]
      TS_State.Layer = 0;
 8000730:	f88d 3015 	strb.w	r3, [sp, #21]
      GUI_TOUCH_StoreStateEx(&TS_State);
 8000734:	f005 fc94 	bl	8006060 <GUI_TOUCH_StoreStateEx>
}
 8000738:	b006      	add	sp, #24
 800073a:	bd70      	pop	{r4, r5, r6, pc}
 800073c:	200000e0 	.word	0x200000e0
 8000740:	20000134 	.word	0x20000134

08000744 <BSP_Background>:
{
 8000744:	b538      	push	{r3, r4, r5, lr}
	if (led_toggle) {
 8000746:	4d19      	ldr	r5, [pc, #100]	; (80007ac <BSP_Background+0x68>)
 8000748:	782c      	ldrb	r4, [r5, #0]
 800074a:	b344      	cbz	r4, 800079e <BSP_Background+0x5a>
		BSP_LED_Toggle(LED3);
 800074c:	2000      	movs	r0, #0
 800074e:	f000 fd5b 	bl	8001208 <BSP_LED_Toggle>
		BSP_LED_Off(LED4);
 8000752:	2001      	movs	r0, #1
	if (button_pressed) {
 8000754:	4c16      	ldr	r4, [pc, #88]	; (80007b0 <BSP_Background+0x6c>)
		BSP_LED_Off(LED3);
 8000756:	f000 fd49 	bl	80011ec <BSP_LED_Off>
	if (button_pressed) {
 800075a:	6d23      	ldr	r3, [r4, #80]	; 0x50
 800075c:	b1bb      	cbz	r3, 800078e <BSP_Background+0x4a>
	  int button = BSP_PB_GetState(BUTTON_KEY);
 800075e:	2000      	movs	r0, #0
 8000760:	f000 fd9a 	bl	8001298 <BSP_PB_GetState>
	  if (button != lastButtonState) {
 8000764:	686b      	ldr	r3, [r5, #4]
	  if (++lastDebounceTime > debounceDelay) {
 8000766:	68aa      	ldr	r2, [r5, #8]
	  if (button != lastButtonState) {
 8000768:	4283      	cmp	r3, r0
	    lastDebounceTime = 0;
 800076a:	bf1c      	itt	ne
 800076c:	2300      	movne	r3, #0
 800076e:	65e3      	strne	r3, [r4, #92]	; 0x5c
	  if (++lastDebounceTime > debounceDelay) {
 8000770:	6de3      	ldr	r3, [r4, #92]	; 0x5c
 8000772:	3301      	adds	r3, #1
 8000774:	4293      	cmp	r3, r2
 8000776:	65e3      	str	r3, [r4, #92]	; 0x5c
 8000778:	dd08      	ble.n	800078c <BSP_Background+0x48>
		  buttonState = button;
 800077a:	6620      	str	r0, [r4, #96]	; 0x60
	      if (buttonState) {
 800077c:	b118      	cbz	r0, 8000786 <BSP_Background+0x42>
	        led_toggle = 1-led_toggle;
 800077e:	782b      	ldrb	r3, [r5, #0]
 8000780:	f1c3 0301 	rsb	r3, r3, #1
 8000784:	702b      	strb	r3, [r5, #0]
	    lastDebounceTime = 0;
 8000786:	2300      	movs	r3, #0
 8000788:	65e3      	str	r3, [r4, #92]	; 0x5c
	    button_pressed = 0;
 800078a:	6523      	str	r3, [r4, #80]	; 0x50
	  lastButtonState = button;
 800078c:	6068      	str	r0, [r5, #4]
  if(GUI_Initialized == 1)
 800078e:	f894 304c 	ldrb.w	r3, [r4, #76]	; 0x4c
 8000792:	2b01      	cmp	r3, #1
 8000794:	d108      	bne.n	80007a8 <BSP_Background+0x64>
}
 8000796:	e8bd 4038 	ldmia.w	sp!, {r3, r4, r5, lr}
    BSP_Pointer_Update();
 800079a:	f7ff bf9b 	b.w	80006d4 <BSP_Pointer_Update>
		BSP_LED_Toggle(LED4);
 800079e:	2001      	movs	r0, #1
 80007a0:	f000 fd32 	bl	8001208 <BSP_LED_Toggle>
		BSP_LED_Off(LED3);
 80007a4:	4620      	mov	r0, r4
 80007a6:	e7d5      	b.n	8000754 <BSP_Background+0x10>
}
 80007a8:	bd38      	pop	{r3, r4, r5, pc}
 80007aa:	bf00      	nop
 80007ac:	20000000 	.word	0x20000000
 80007b0:	200000e0 	.word	0x200000e0

080007b4 <HAL_TIM_PeriodElapsedCallback>:
  BSP_Background();
 80007b4:	f7ff bfc6 	b.w	8000744 <BSP_Background>

080007b8 <NMI_Handler>:
  * @param  None
  * @retval None
  */
void NMI_Handler(void)
{
}
 80007b8:	4770      	bx	lr

080007ba <HardFault_Handler>:
  * @retval None
  */
void HardFault_Handler(void)
{
  /* Go to infinite loop when Hard Fault exception occurs */
  while (1)
 80007ba:	e7fe      	b.n	80007ba <HardFault_Handler>

080007bc <MemManage_Handler>:
  * @retval None
  */
void MemManage_Handler(void)
{
  /* Go to infinite loop when Memory Manage exception occurs */
  while (1)
 80007bc:	e7fe      	b.n	80007bc <MemManage_Handler>

080007be <BusFault_Handler>:
  * @retval None
  */
void BusFault_Handler(void)
{
  /* Go to infinite loop when Bus Fault exception occurs */
  while (1)
 80007be:	e7fe      	b.n	80007be <BusFault_Handler>

080007c0 <UsageFault_Handler>:
  * @retval None
  */
void UsageFault_Handler(void)
{
  /* Go to infinite loop when Usage Fault exception occurs */
  while (1)
 80007c0:	e7fe      	b.n	80007c0 <UsageFault_Handler>

080007c2 <DebugMon_Handler>:
 80007c2:	4770      	bx	lr

080007c4 <SysTick_Handler>:
  * @brief  This function handles SysTick Handler.
  * @param  None
  * @retval None
  */
void SysTick_Handler(void)
{
 80007c4:	b508      	push	{r3, lr}
  /* Update the LocalTime by adding 1 ms each SysTick interrupt */
  HAL_IncTick();
 80007c6:	f001 f8af 	bl	8001928 <HAL_IncTick>
  
  OS_TimeMS++;
 80007ca:	4a02      	ldr	r2, [pc, #8]	; (80007d4 <SysTick_Handler+0x10>)
 80007cc:	6813      	ldr	r3, [r2, #0]
 80007ce:	3301      	adds	r3, #1
 80007d0:	6013      	str	r3, [r2, #0]
}
 80007d2:	bd08      	pop	{r3, pc}
 80007d4:	20025b2c 	.word	0x20025b2c

080007d8 <TIM3_IRQHandler>:
  * @param  None
  * @retval None
  */
void TIM3_IRQHandler(void)
{
  HAL_TIM_IRQHandler(&TimHandle);
 80007d8:	4801      	ldr	r0, [pc, #4]	; (80007e0 <TIM3_IRQHandler+0x8>)
 80007da:	f003 b883 	b.w	80038e4 <HAL_TIM_IRQHandler>
 80007de:	bf00      	nop
 80007e0:	200000e4 	.word	0x200000e4

080007e4 <LTDC_IRQHandler>:
  * @param  None
  * @retval None
  */
void LTDC_IRQHandler(void)
{
  HAL_LTDC_IRQHandler(&hltdc);
 80007e4:	4801      	ldr	r0, [pc, #4]	; (80007ec <LTDC_IRQHandler+0x8>)
 80007e6:	f002 b87f 	b.w	80028e8 <HAL_LTDC_IRQHandler>
 80007ea:	bf00      	nop
 80007ec:	2002884c 	.word	0x2002884c

080007f0 <EXTI0_IRQHandler>:


void EXTI0_IRQHandler(void)
{
	/* Button GPIO handler */
	HAL_GPIO_EXTI_IRQHandler(GPIO_PIN_0);
 80007f0:	2001      	movs	r0, #1
 80007f2:	f001 bb0b 	b.w	8001e0c <HAL_GPIO_EXTI_IRQHandler>

080007f6 <ili9341_Init>:
  * @brief  Power on the LCD.
  * @param  None
  * @retval None
  */
void ili9341_Init(void)
{
 80007f6:	b508      	push	{r3, lr}
  /* Initialize ILI9341 low level bus layer ----------------------------------*/
  LCD_IO_Init();
 80007f8:	f000 fd5a 	bl	80012b0 <LCD_IO_Init>
  * @param  LCD_Reg: address of the selected register.
  * @retval None
  */
void ili9341_WriteReg(uint8_t LCD_Reg)
{
  LCD_IO_WriteReg(LCD_Reg);
 80007fc:	20ca      	movs	r0, #202	; 0xca
 80007fe:	f000 fdd1 	bl	80013a4 <LCD_IO_WriteReg>
  * @param  LCD_Reg: address of the selected register.
  * @retval None
  */
void ili9341_WriteData(uint16_t RegValue)
{
  LCD_IO_WriteData(RegValue);
 8000802:	20c3      	movs	r0, #195	; 0xc3
 8000804:	f000 fdb2 	bl	800136c <LCD_IO_WriteData>
 8000808:	2008      	movs	r0, #8
 800080a:	f000 fdaf 	bl	800136c <LCD_IO_WriteData>
 800080e:	2050      	movs	r0, #80	; 0x50
 8000810:	f000 fdac 	bl	800136c <LCD_IO_WriteData>
  LCD_IO_WriteReg(LCD_Reg);
 8000814:	20cf      	movs	r0, #207	; 0xcf
 8000816:	f000 fdc5 	bl	80013a4 <LCD_IO_WriteReg>
  LCD_IO_WriteData(RegValue);
 800081a:	2000      	movs	r0, #0
 800081c:	f000 fda6 	bl	800136c <LCD_IO_WriteData>
 8000820:	20c1      	movs	r0, #193	; 0xc1
 8000822:	f000 fda3 	bl	800136c <LCD_IO_WriteData>
 8000826:	2030      	movs	r0, #48	; 0x30
 8000828:	f000 fda0 	bl	800136c <LCD_IO_WriteData>
  LCD_IO_WriteReg(LCD_Reg);
 800082c:	20ed      	movs	r0, #237	; 0xed
 800082e:	f000 fdb9 	bl	80013a4 <LCD_IO_WriteReg>
  LCD_IO_WriteData(RegValue);
 8000832:	2064      	movs	r0, #100	; 0x64
 8000834:	f000 fd9a 	bl	800136c <LCD_IO_WriteData>
 8000838:	2003      	movs	r0, #3
 800083a:	f000 fd97 	bl	800136c <LCD_IO_WriteData>
 800083e:	2012      	movs	r0, #18
 8000840:	f000 fd94 	bl	800136c <LCD_IO_WriteData>
 8000844:	2081      	movs	r0, #129	; 0x81
 8000846:	f000 fd91 	bl	800136c <LCD_IO_WriteData>
  LCD_IO_WriteReg(LCD_Reg);
 800084a:	20e8      	movs	r0, #232	; 0xe8
 800084c:	f000 fdaa 	bl	80013a4 <LCD_IO_WriteReg>
  LCD_IO_WriteData(RegValue);
 8000850:	2085      	movs	r0, #133	; 0x85
 8000852:	f000 fd8b 	bl	800136c <LCD_IO_WriteData>
 8000856:	2000      	movs	r0, #0
 8000858:	f000 fd88 	bl	800136c <LCD_IO_WriteData>
 800085c:	2078      	movs	r0, #120	; 0x78
 800085e:	f000 fd85 	bl	800136c <LCD_IO_WriteData>
  LCD_IO_WriteReg(LCD_Reg);
 8000862:	20cb      	movs	r0, #203	; 0xcb
 8000864:	f000 fd9e 	bl	80013a4 <LCD_IO_WriteReg>
  LCD_IO_WriteData(RegValue);
 8000868:	2039      	movs	r0, #57	; 0x39
 800086a:	f000 fd7f 	bl	800136c <LCD_IO_WriteData>
 800086e:	202c      	movs	r0, #44	; 0x2c
 8000870:	f000 fd7c 	bl	800136c <LCD_IO_WriteData>
 8000874:	2000      	movs	r0, #0
 8000876:	f000 fd79 	bl	800136c <LCD_IO_WriteData>
 800087a:	2034      	movs	r0, #52	; 0x34
 800087c:	f000 fd76 	bl	800136c <LCD_IO_WriteData>
 8000880:	2002      	movs	r0, #2
 8000882:	f000 fd73 	bl	800136c <LCD_IO_WriteData>
  LCD_IO_WriteReg(LCD_Reg);
 8000886:	20f7      	movs	r0, #247	; 0xf7
 8000888:	f000 fd8c 	bl	80013a4 <LCD_IO_WriteReg>
  LCD_IO_WriteData(RegValue);
 800088c:	2020      	movs	r0, #32
 800088e:	f000 fd6d 	bl	800136c <LCD_IO_WriteData>
  LCD_IO_WriteReg(LCD_Reg);
 8000892:	20ea      	movs	r0, #234	; 0xea
 8000894:	f000 fd86 	bl	80013a4 <LCD_IO_WriteReg>
  LCD_IO_WriteData(RegValue);
 8000898:	2000      	movs	r0, #0
 800089a:	f000 fd67 	bl	800136c <LCD_IO_WriteData>
 800089e:	2000      	movs	r0, #0
 80008a0:	f000 fd64 	bl	800136c <LCD_IO_WriteData>
  LCD_IO_WriteReg(LCD_Reg);
 80008a4:	20b1      	movs	r0, #177	; 0xb1
 80008a6:	f000 fd7d 	bl	80013a4 <LCD_IO_WriteReg>
  LCD_IO_WriteData(RegValue);
 80008aa:	2000      	movs	r0, #0
 80008ac:	f000 fd5e 	bl	800136c <LCD_IO_WriteData>
 80008b0:	201b      	movs	r0, #27
 80008b2:	f000 fd5b 	bl	800136c <LCD_IO_WriteData>
  LCD_IO_WriteReg(LCD_Reg);
 80008b6:	20b6      	movs	r0, #182	; 0xb6
 80008b8:	f000 fd74 	bl	80013a4 <LCD_IO_WriteReg>
  LCD_IO_WriteData(RegValue);
 80008bc:	200a      	movs	r0, #10
 80008be:	f000 fd55 	bl	800136c <LCD_IO_WriteData>
 80008c2:	20a2      	movs	r0, #162	; 0xa2
 80008c4:	f000 fd52 	bl	800136c <LCD_IO_WriteData>
  LCD_IO_WriteReg(LCD_Reg);
 80008c8:	20c0      	movs	r0, #192	; 0xc0
 80008ca:	f000 fd6b 	bl	80013a4 <LCD_IO_WriteReg>
  LCD_IO_WriteData(RegValue);
 80008ce:	2010      	movs	r0, #16
 80008d0:	f000 fd4c 	bl	800136c <LCD_IO_WriteData>
  LCD_IO_WriteReg(LCD_Reg);
 80008d4:	20c1      	movs	r0, #193	; 0xc1
 80008d6:	f000 fd65 	bl	80013a4 <LCD_IO_WriteReg>
  LCD_IO_WriteData(RegValue);
 80008da:	2010      	movs	r0, #16
 80008dc:	f000 fd46 	bl	800136c <LCD_IO_WriteData>
  LCD_IO_WriteReg(LCD_Reg);
 80008e0:	20c5      	movs	r0, #197	; 0xc5
 80008e2:	f000 fd5f 	bl	80013a4 <LCD_IO_WriteReg>
  LCD_IO_WriteData(RegValue);
 80008e6:	2045      	movs	r0, #69	; 0x45
 80008e8:	f000 fd40 	bl	800136c <LCD_IO_WriteData>
 80008ec:	2015      	movs	r0, #21
 80008ee:	f000 fd3d 	bl	800136c <LCD_IO_WriteData>
  LCD_IO_WriteReg(LCD_Reg);
 80008f2:	20c7      	movs	r0, #199	; 0xc7
 80008f4:	f000 fd56 	bl	80013a4 <LCD_IO_WriteReg>
  LCD_IO_WriteData(RegValue);
 80008f8:	2090      	movs	r0, #144	; 0x90
 80008fa:	f000 fd37 	bl	800136c <LCD_IO_WriteData>
  LCD_IO_WriteReg(LCD_Reg);
 80008fe:	2036      	movs	r0, #54	; 0x36
 8000900:	f000 fd50 	bl	80013a4 <LCD_IO_WriteReg>
  LCD_IO_WriteData(RegValue);
 8000904:	20c8      	movs	r0, #200	; 0xc8
 8000906:	f000 fd31 	bl	800136c <LCD_IO_WriteData>
  LCD_IO_WriteReg(LCD_Reg);
 800090a:	20f2      	movs	r0, #242	; 0xf2
 800090c:	f000 fd4a 	bl	80013a4 <LCD_IO_WriteReg>
  LCD_IO_WriteData(RegValue);
 8000910:	2000      	movs	r0, #0
 8000912:	f000 fd2b 	bl	800136c <LCD_IO_WriteData>
  LCD_IO_WriteReg(LCD_Reg);
 8000916:	20b0      	movs	r0, #176	; 0xb0
 8000918:	f000 fd44 	bl	80013a4 <LCD_IO_WriteReg>
  LCD_IO_WriteData(RegValue);
 800091c:	20c2      	movs	r0, #194	; 0xc2
 800091e:	f000 fd25 	bl	800136c <LCD_IO_WriteData>
  LCD_IO_WriteReg(LCD_Reg);
 8000922:	20b6      	movs	r0, #182	; 0xb6
 8000924:	f000 fd3e 	bl	80013a4 <LCD_IO_WriteReg>
  LCD_IO_WriteData(RegValue);
 8000928:	200a      	movs	r0, #10
 800092a:	f000 fd1f 	bl	800136c <LCD_IO_WriteData>
 800092e:	20a7      	movs	r0, #167	; 0xa7
 8000930:	f000 fd1c 	bl	800136c <LCD_IO_WriteData>
 8000934:	2027      	movs	r0, #39	; 0x27
 8000936:	f000 fd19 	bl	800136c <LCD_IO_WriteData>
 800093a:	2004      	movs	r0, #4
 800093c:	f000 fd16 	bl	800136c <LCD_IO_WriteData>
  LCD_IO_WriteReg(LCD_Reg);
 8000940:	202a      	movs	r0, #42	; 0x2a
 8000942:	f000 fd2f 	bl	80013a4 <LCD_IO_WriteReg>
  LCD_IO_WriteData(RegValue);
 8000946:	2000      	movs	r0, #0
 8000948:	f000 fd10 	bl	800136c <LCD_IO_WriteData>
 800094c:	2000      	movs	r0, #0
 800094e:	f000 fd0d 	bl	800136c <LCD_IO_WriteData>
 8000952:	2000      	movs	r0, #0
 8000954:	f000 fd0a 	bl	800136c <LCD_IO_WriteData>
 8000958:	20ef      	movs	r0, #239	; 0xef
 800095a:	f000 fd07 	bl	800136c <LCD_IO_WriteData>
  LCD_IO_WriteReg(LCD_Reg);
 800095e:	202b      	movs	r0, #43	; 0x2b
 8000960:	f000 fd20 	bl	80013a4 <LCD_IO_WriteReg>
  LCD_IO_WriteData(RegValue);
 8000964:	2000      	movs	r0, #0
 8000966:	f000 fd01 	bl	800136c <LCD_IO_WriteData>
 800096a:	2000      	movs	r0, #0
 800096c:	f000 fcfe 	bl	800136c <LCD_IO_WriteData>
 8000970:	2001      	movs	r0, #1
 8000972:	f000 fcfb 	bl	800136c <LCD_IO_WriteData>
 8000976:	203f      	movs	r0, #63	; 0x3f
 8000978:	f000 fcf8 	bl	800136c <LCD_IO_WriteData>
  LCD_IO_WriteReg(LCD_Reg);
 800097c:	20f6      	movs	r0, #246	; 0xf6
 800097e:	f000 fd11 	bl	80013a4 <LCD_IO_WriteReg>
  LCD_IO_WriteData(RegValue);
 8000982:	2001      	movs	r0, #1
 8000984:	f000 fcf2 	bl	800136c <LCD_IO_WriteData>
 8000988:	2000      	movs	r0, #0
 800098a:	f000 fcef 	bl	800136c <LCD_IO_WriteData>
 800098e:	2006      	movs	r0, #6
 8000990:	f000 fcec 	bl	800136c <LCD_IO_WriteData>
  LCD_IO_WriteReg(LCD_Reg);
 8000994:	202c      	movs	r0, #44	; 0x2c
 8000996:	f000 fd05 	bl	80013a4 <LCD_IO_WriteReg>
  LCD_Delay(200);
 800099a:	20c8      	movs	r0, #200	; 0xc8
 800099c:	f000 fd1e 	bl	80013dc <LCD_Delay>
  LCD_IO_WriteReg(LCD_Reg);
 80009a0:	2026      	movs	r0, #38	; 0x26
 80009a2:	f000 fcff 	bl	80013a4 <LCD_IO_WriteReg>
  LCD_IO_WriteData(RegValue);
 80009a6:	2001      	movs	r0, #1
 80009a8:	f000 fce0 	bl	800136c <LCD_IO_WriteData>
  LCD_IO_WriteReg(LCD_Reg);
 80009ac:	20e0      	movs	r0, #224	; 0xe0
 80009ae:	f000 fcf9 	bl	80013a4 <LCD_IO_WriteReg>
  LCD_IO_WriteData(RegValue);
 80009b2:	200f      	movs	r0, #15
 80009b4:	f000 fcda 	bl	800136c <LCD_IO_WriteData>
 80009b8:	2029      	movs	r0, #41	; 0x29
 80009ba:	f000 fcd7 	bl	800136c <LCD_IO_WriteData>
 80009be:	2024      	movs	r0, #36	; 0x24
 80009c0:	f000 fcd4 	bl	800136c <LCD_IO_WriteData>
 80009c4:	200c      	movs	r0, #12
 80009c6:	f000 fcd1 	bl	800136c <LCD_IO_WriteData>
 80009ca:	200e      	movs	r0, #14
 80009cc:	f000 fcce 	bl	800136c <LCD_IO_WriteData>
 80009d0:	2009      	movs	r0, #9
 80009d2:	f000 fccb 	bl	800136c <LCD_IO_WriteData>
 80009d6:	204e      	movs	r0, #78	; 0x4e
 80009d8:	f000 fcc8 	bl	800136c <LCD_IO_WriteData>
 80009dc:	2078      	movs	r0, #120	; 0x78
 80009de:	f000 fcc5 	bl	800136c <LCD_IO_WriteData>
 80009e2:	203c      	movs	r0, #60	; 0x3c
 80009e4:	f000 fcc2 	bl	800136c <LCD_IO_WriteData>
 80009e8:	2009      	movs	r0, #9
 80009ea:	f000 fcbf 	bl	800136c <LCD_IO_WriteData>
 80009ee:	2013      	movs	r0, #19
 80009f0:	f000 fcbc 	bl	800136c <LCD_IO_WriteData>
 80009f4:	2005      	movs	r0, #5
 80009f6:	f000 fcb9 	bl	800136c <LCD_IO_WriteData>
 80009fa:	2017      	movs	r0, #23
 80009fc:	f000 fcb6 	bl	800136c <LCD_IO_WriteData>
 8000a00:	2011      	movs	r0, #17
 8000a02:	f000 fcb3 	bl	800136c <LCD_IO_WriteData>
 8000a06:	2000      	movs	r0, #0
 8000a08:	f000 fcb0 	bl	800136c <LCD_IO_WriteData>
  LCD_IO_WriteReg(LCD_Reg);
 8000a0c:	20e1      	movs	r0, #225	; 0xe1
 8000a0e:	f000 fcc9 	bl	80013a4 <LCD_IO_WriteReg>
  LCD_IO_WriteData(RegValue);
 8000a12:	2000      	movs	r0, #0
 8000a14:	f000 fcaa 	bl	800136c <LCD_IO_WriteData>
 8000a18:	2016      	movs	r0, #22
 8000a1a:	f000 fca7 	bl	800136c <LCD_IO_WriteData>
 8000a1e:	201b      	movs	r0, #27
 8000a20:	f000 fca4 	bl	800136c <LCD_IO_WriteData>
 8000a24:	2004      	movs	r0, #4
 8000a26:	f000 fca1 	bl	800136c <LCD_IO_WriteData>
 8000a2a:	2011      	movs	r0, #17
 8000a2c:	f000 fc9e 	bl	800136c <LCD_IO_WriteData>
 8000a30:	2007      	movs	r0, #7
 8000a32:	f000 fc9b 	bl	800136c <LCD_IO_WriteData>
 8000a36:	2031      	movs	r0, #49	; 0x31
 8000a38:	f000 fc98 	bl	800136c <LCD_IO_WriteData>
 8000a3c:	2033      	movs	r0, #51	; 0x33
 8000a3e:	f000 fc95 	bl	800136c <LCD_IO_WriteData>
 8000a42:	2042      	movs	r0, #66	; 0x42
 8000a44:	f000 fc92 	bl	800136c <LCD_IO_WriteData>
 8000a48:	2005      	movs	r0, #5
 8000a4a:	f000 fc8f 	bl	800136c <LCD_IO_WriteData>
 8000a4e:	200c      	movs	r0, #12
 8000a50:	f000 fc8c 	bl	800136c <LCD_IO_WriteData>
 8000a54:	200a      	movs	r0, #10
 8000a56:	f000 fc89 	bl	800136c <LCD_IO_WriteData>
 8000a5a:	2028      	movs	r0, #40	; 0x28
 8000a5c:	f000 fc86 	bl	800136c <LCD_IO_WriteData>
 8000a60:	202f      	movs	r0, #47	; 0x2f
 8000a62:	f000 fc83 	bl	800136c <LCD_IO_WriteData>
 8000a66:	200f      	movs	r0, #15
 8000a68:	f000 fc80 	bl	800136c <LCD_IO_WriteData>
  LCD_IO_WriteReg(LCD_Reg);
 8000a6c:	2011      	movs	r0, #17
 8000a6e:	f000 fc99 	bl	80013a4 <LCD_IO_WriteReg>
  LCD_Delay(200);
 8000a72:	20c8      	movs	r0, #200	; 0xc8
 8000a74:	f000 fcb2 	bl	80013dc <LCD_Delay>
  LCD_IO_WriteReg(LCD_Reg);
 8000a78:	2029      	movs	r0, #41	; 0x29
 8000a7a:	f000 fc93 	bl	80013a4 <LCD_IO_WriteReg>
}
 8000a7e:	e8bd 4008 	ldmia.w	sp!, {r3, lr}
  LCD_IO_WriteReg(LCD_Reg);
 8000a82:	202c      	movs	r0, #44	; 0x2c
 8000a84:	f000 bc8e 	b.w	80013a4 <LCD_IO_WriteReg>

08000a88 <stmpe811_IO_WritePin>:
  *   @arg  STMPE811_PIN_x: where x can be from 0 to 7. 
  * @param PinState: The new IO pin state.
  * @retval None
  */
void stmpe811_IO_WritePin(uint16_t DeviceAddr, uint32_t IO_Pin, uint8_t PinState)
{
 8000a88:	4613      	mov	r3, r2
  /* Apply the bit value to the selected pin */
  if (PinState != 0)
  {
    /* Set the register */
    IOE_Write(DeviceAddr, STMPE811_REG_IO_SET_PIN, (uint8_t)IO_Pin);
 8000a8a:	b2c0      	uxtb	r0, r0
 8000a8c:	b2ca      	uxtb	r2, r1
  if (PinState != 0)
 8000a8e:	b113      	cbz	r3, 8000a96 <stmpe811_IO_WritePin+0xe>
    IOE_Write(DeviceAddr, STMPE811_REG_IO_SET_PIN, (uint8_t)IO_Pin);
 8000a90:	2110      	movs	r1, #16
  }
  else
  {
    /* Set the register */
    IOE_Write(DeviceAddr, STMPE811_REG_IO_CLR_PIN, (uint8_t)IO_Pin);
 8000a92:	f000 bcd1 	b.w	8001438 <IOE_Write>
 8000a96:	2111      	movs	r1, #17
 8000a98:	e7fb      	b.n	8000a92 <stmpe811_IO_WritePin+0xa>

08000a9a <stmpe811_Reset>:
{
 8000a9a:	b510      	push	{r4, lr}
  IOE_Write(DeviceAddr, STMPE811_REG_SYS_CTRL1, 2);
 8000a9c:	b2c4      	uxtb	r4, r0
 8000a9e:	2202      	movs	r2, #2
 8000aa0:	2103      	movs	r1, #3
 8000aa2:	4620      	mov	r0, r4
 8000aa4:	f000 fcc8 	bl	8001438 <IOE_Write>
  IOE_Delay(10); 
 8000aa8:	200a      	movs	r0, #10
 8000aaa:	f000 fd15 	bl	80014d8 <IOE_Delay>
  IOE_Write(DeviceAddr, STMPE811_REG_SYS_CTRL1, 0);
 8000aae:	4620      	mov	r0, r4
 8000ab0:	2200      	movs	r2, #0
 8000ab2:	2103      	movs	r1, #3
 8000ab4:	f000 fcc0 	bl	8001438 <IOE_Write>
}
 8000ab8:	e8bd 4010 	ldmia.w	sp!, {r4, lr}
  IOE_Delay(2); 
 8000abc:	2002      	movs	r0, #2
 8000abe:	f000 bd0b 	b.w	80014d8 <IOE_Delay>

08000ac2 <stmpe811_ReadID>:
{
 8000ac2:	b538      	push	{r3, r4, r5, lr}
 8000ac4:	4604      	mov	r4, r0
  return ((IOE_Read(DeviceAddr, STMPE811_REG_CHP_ID_LSB) << 8) |\
 8000ac6:	b2e4      	uxtb	r4, r4
  IOE_Init(); 
 8000ac8:	f000 fc8a 	bl	80013e0 <IOE_Init>
  return ((IOE_Read(DeviceAddr, STMPE811_REG_CHP_ID_LSB) << 8) |\
 8000acc:	2100      	movs	r1, #0
 8000ace:	4620      	mov	r0, r4
 8000ad0:	f000 fccc 	bl	800146c <IOE_Read>
          (IOE_Read(DeviceAddr, STMPE811_REG_CHP_ID_MSB)));
 8000ad4:	2101      	movs	r1, #1
  return ((IOE_Read(DeviceAddr, STMPE811_REG_CHP_ID_LSB) << 8) |\
 8000ad6:	4605      	mov	r5, r0
          (IOE_Read(DeviceAddr, STMPE811_REG_CHP_ID_MSB)));
 8000ad8:	4620      	mov	r0, r4
 8000ada:	f000 fcc7 	bl	800146c <IOE_Read>
  return ((IOE_Read(DeviceAddr, STMPE811_REG_CHP_ID_LSB) << 8) |\
 8000ade:	ea40 2005 	orr.w	r0, r0, r5, lsl #8
}
 8000ae2:	b280      	uxth	r0, r0
 8000ae4:	bd38      	pop	{r3, r4, r5, pc}

08000ae6 <stmpe811_IO_ReadPin>:
  *        of the following values:
  *   @arg  STMPE811_PIN_x: where x can be from 0 to 7. 
  * @retval IO pin(s) state.
  */
uint32_t stmpe811_IO_ReadPin(uint16_t DeviceAddr, uint32_t IO_Pin)
{
 8000ae6:	b510      	push	{r4, lr}
  return((uint32_t)(IOE_Read(DeviceAddr, STMPE811_REG_IO_MP_STA) & (uint8_t)IO_Pin));
 8000ae8:	b2c0      	uxtb	r0, r0
{
 8000aea:	460c      	mov	r4, r1
  return((uint32_t)(IOE_Read(DeviceAddr, STMPE811_REG_IO_MP_STA) & (uint8_t)IO_Pin));
 8000aec:	2112      	movs	r1, #18
 8000aee:	f000 fcbd 	bl	800146c <IOE_Read>
 8000af2:	4020      	ands	r0, r4
}
 8000af4:	b2c0      	uxtb	r0, r0
 8000af6:	bd10      	pop	{r4, pc}

08000af8 <stmpe811_IO_ITStatus>:
  * @param  IO_Pin: The IO interrupt to be checked could be:
  *   @arg  STMPE811_PIN_x Where x can be from 0 to 7.             
  * @retval Status of the checked IO pin(s).
  */
uint32_t stmpe811_IO_ITStatus(uint16_t DeviceAddr, uint32_t IO_Pin)
{
 8000af8:	b510      	push	{r4, lr}
  /* Get the Interrupt status */
  return(IOE_Read(DeviceAddr, STMPE811_REG_IO_INT_STA) & (uint8_t)IO_Pin); 
 8000afa:	b2c0      	uxtb	r0, r0
{
 8000afc:	460c      	mov	r4, r1
  return(IOE_Read(DeviceAddr, STMPE811_REG_IO_INT_STA) & (uint8_t)IO_Pin); 
 8000afe:	210d      	movs	r1, #13
 8000b00:	f000 fcb4 	bl	800146c <IOE_Read>
 8000b04:	4020      	ands	r0, r4
}
 8000b06:	b2c0      	uxtb	r0, r0
 8000b08:	bd10      	pop	{r4, pc}

08000b0a <stmpe811_TS_DetectTouch>:
  * @brief  Return if there is touch detected or not.
  * @param  DeviceAddr: Device address on communication Bus.
  * @retval Touch detected state.
  */
uint8_t stmpe811_TS_DetectTouch(uint16_t DeviceAddr)
{
 8000b0a:	b510      	push	{r4, lr}
  uint8_t state;
  uint8_t ret = 0;
  
  state = ((IOE_Read(DeviceAddr, STMPE811_REG_TSC_CTRL) & (uint8_t)STMPE811_TS_CTRL_STATUS) == (uint8_t)0x80);
 8000b0c:	b2c4      	uxtb	r4, r0
 8000b0e:	2140      	movs	r1, #64	; 0x40
 8000b10:	4620      	mov	r0, r4
 8000b12:	f000 fcab 	bl	800146c <IOE_Read>
  
  if(state > 0)
 8000b16:	0603      	lsls	r3, r0, #24
 8000b18:	d507      	bpl.n	8000b2a <stmpe811_TS_DetectTouch+0x20>
  {
    if(IOE_Read(DeviceAddr, STMPE811_REG_FIFO_SIZE) > 0)
 8000b1a:	214c      	movs	r1, #76	; 0x4c
 8000b1c:	4620      	mov	r0, r4
 8000b1e:	f000 fca5 	bl	800146c <IOE_Read>
    {
      ret = 1;
 8000b22:	3800      	subs	r0, #0
 8000b24:	bf18      	it	ne
 8000b26:	2001      	movne	r0, #1
    /* Enable the FIFO again */
    IOE_Write(DeviceAddr, STMPE811_REG_FIFO_STA, 0x00);
  }
  
  return ret;
}
 8000b28:	bd10      	pop	{r4, pc}
    IOE_Write(DeviceAddr, STMPE811_REG_FIFO_STA, 0x01);
 8000b2a:	2201      	movs	r2, #1
 8000b2c:	214b      	movs	r1, #75	; 0x4b
 8000b2e:	4620      	mov	r0, r4
 8000b30:	f000 fc82 	bl	8001438 <IOE_Write>
    IOE_Write(DeviceAddr, STMPE811_REG_FIFO_STA, 0x00);
 8000b34:	4620      	mov	r0, r4
 8000b36:	2200      	movs	r2, #0
 8000b38:	214b      	movs	r1, #75	; 0x4b
 8000b3a:	f000 fc7d 	bl	8001438 <IOE_Write>
  uint8_t ret = 0;
 8000b3e:	2000      	movs	r0, #0
 8000b40:	e7f2      	b.n	8000b28 <stmpe811_TS_DetectTouch+0x1e>

08000b42 <stmpe811_TS_GetXY>:
  * @param  X: Pointer to X position value
  * @param  Y: Pointer to Y position value   
  * @retval None.
  */
void stmpe811_TS_GetXY(uint16_t DeviceAddr, uint16_t *X, uint16_t *Y)
{
 8000b42:	b573      	push	{r0, r1, r4, r5, r6, lr}
  uint8_t  dataXYZ[4];
  uint32_t uldataXYZ;
  
  IOE_ReadMultiple(DeviceAddr, STMPE811_REG_TSC_DATA_NON_INC, dataXYZ, sizeof(dataXYZ)) ;
 8000b44:	2304      	movs	r3, #4
 8000b46:	b2c4      	uxtb	r4, r0
{
 8000b48:	460e      	mov	r6, r1
 8000b4a:	4615      	mov	r5, r2
  IOE_ReadMultiple(DeviceAddr, STMPE811_REG_TSC_DATA_NON_INC, dataXYZ, sizeof(dataXYZ)) ;
 8000b4c:	21d7      	movs	r1, #215	; 0xd7
 8000b4e:	eb0d 0203 	add.w	r2, sp, r3
 8000b52:	4620      	mov	r0, r4
 8000b54:	f000 fca8 	bl	80014a8 <IOE_ReadMultiple>
  
  /* Calculate positions values */
  uldataXYZ = (dataXYZ[0] << 24)|(dataXYZ[1] << 16)|(dataXYZ[2] << 8)|(dataXYZ[3] << 0);     
 8000b58:	9b01      	ldr	r3, [sp, #4]
 8000b5a:	ba1b      	rev	r3, r3
  *X = (uldataXYZ >> 20) & 0x00000FFF;     
 8000b5c:	0d1a      	lsrs	r2, r3, #20
  *Y = (uldataXYZ >>  8) & 0x00000FFF;     
 8000b5e:	f3c3 230b 	ubfx	r3, r3, #8, #12
  *X = (uldataXYZ >> 20) & 0x00000FFF;     
 8000b62:	8032      	strh	r2, [r6, #0]
  
  /* Reset FIFO */
  IOE_Write(DeviceAddr, STMPE811_REG_FIFO_STA, 0x01);
 8000b64:	4620      	mov	r0, r4
  *Y = (uldataXYZ >>  8) & 0x00000FFF;     
 8000b66:	802b      	strh	r3, [r5, #0]
  IOE_Write(DeviceAddr, STMPE811_REG_FIFO_STA, 0x01);
 8000b68:	2201      	movs	r2, #1
 8000b6a:	214b      	movs	r1, #75	; 0x4b
 8000b6c:	f000 fc64 	bl	8001438 <IOE_Write>
  /* Enable the FIFO again */
  IOE_Write(DeviceAddr, STMPE811_REG_FIFO_STA, 0x00);
 8000b70:	2200      	movs	r2, #0
 8000b72:	214b      	movs	r1, #75	; 0x4b
 8000b74:	4620      	mov	r0, r4
 8000b76:	f000 fc5f 	bl	8001438 <IOE_Write>
}
 8000b7a:	b002      	add	sp, #8
 8000b7c:	bd70      	pop	{r4, r5, r6, pc}
	...

08000b80 <stmpe811_Init>:
{
 8000b80:	b510      	push	{r4, lr}
  uint8_t idx = 0;
  
  /* Check all the registered instances */
  for(idx = 0; idx < STMPE811_MAX_INSTANCE ; idx ++)
  {
    if(stmpe811[idx] == DeviceAddr)
 8000b82:	4b0a      	ldr	r3, [pc, #40]	; (8000bac <stmpe811_Init+0x2c>)
 8000b84:	781a      	ldrb	r2, [r3, #0]
 8000b86:	4290      	cmp	r0, r2
{
 8000b88:	4604      	mov	r4, r0
    if(stmpe811[idx] == DeviceAddr)
 8000b8a:	d00d      	beq.n	8000ba8 <stmpe811_Init+0x28>
 8000b8c:	7859      	ldrb	r1, [r3, #1]
 8000b8e:	4288      	cmp	r0, r1
 8000b90:	d00a      	beq.n	8000ba8 <stmpe811_Init+0x28>
 8000b92:	b10a      	cbz	r2, 8000b98 <stmpe811_Init+0x18>
 8000b94:	b941      	cbnz	r1, 8000ba8 <stmpe811_Init+0x28>
  for(idx = 0; idx < STMPE811_MAX_INSTANCE ; idx ++)
 8000b96:	2201      	movs	r2, #1
      stmpe811[empty] = DeviceAddr;
 8000b98:	549c      	strb	r4, [r3, r2]
      IOE_Init(); 
 8000b9a:	f000 fc21 	bl	80013e0 <IOE_Init>
      stmpe811_Reset(DeviceAddr);
 8000b9e:	4620      	mov	r0, r4
}
 8000ba0:	e8bd 4010 	ldmia.w	sp!, {r4, lr}
      stmpe811_Reset(DeviceAddr);
 8000ba4:	f7ff bf79 	b.w	8000a9a <stmpe811_Reset>
}
 8000ba8:	bd10      	pop	{r4, pc}
 8000baa:	bf00      	nop
 8000bac:	20000144 	.word	0x20000144

08000bb0 <stmpe811_EnableGlobalIT>:
{
 8000bb0:	b510      	push	{r4, lr}
  tmp = IOE_Read(DeviceAddr, STMPE811_REG_INT_CTRL);
 8000bb2:	b2c4      	uxtb	r4, r0
 8000bb4:	2109      	movs	r1, #9
 8000bb6:	4620      	mov	r0, r4
 8000bb8:	f000 fc58 	bl	800146c <IOE_Read>
  tmp |= (uint8_t)STMPE811_GIT_EN;
 8000bbc:	f040 0001 	orr.w	r0, r0, #1
  IOE_Write(DeviceAddr, STMPE811_REG_INT_CTRL, tmp); 
 8000bc0:	b2c2      	uxtb	r2, r0
 8000bc2:	2109      	movs	r1, #9
 8000bc4:	4620      	mov	r0, r4
}
 8000bc6:	e8bd 4010 	ldmia.w	sp!, {r4, lr}
  IOE_Write(DeviceAddr, STMPE811_REG_INT_CTRL, tmp); 
 8000bca:	f000 bc35 	b.w	8001438 <IOE_Write>

08000bce <stmpe811_DisableGlobalIT>:
{
 8000bce:	b510      	push	{r4, lr}
  tmp = IOE_Read(DeviceAddr, STMPE811_REG_INT_CTRL);
 8000bd0:	b2c4      	uxtb	r4, r0
 8000bd2:	2109      	movs	r1, #9
 8000bd4:	4620      	mov	r0, r4
 8000bd6:	f000 fc49 	bl	800146c <IOE_Read>
  IOE_Write(DeviceAddr, STMPE811_REG_INT_CTRL, tmp);
 8000bda:	2109      	movs	r1, #9
 8000bdc:	f000 02fe 	and.w	r2, r0, #254	; 0xfe
 8000be0:	4620      	mov	r0, r4
}
 8000be2:	e8bd 4010 	ldmia.w	sp!, {r4, lr}
  IOE_Write(DeviceAddr, STMPE811_REG_INT_CTRL, tmp);
 8000be6:	f000 bc27 	b.w	8001438 <IOE_Write>

08000bea <stmpe811_EnableITSource>:
{
 8000bea:	b538      	push	{r3, r4, r5, lr}
  tmp = IOE_Read(DeviceAddr, STMPE811_REG_INT_EN);
 8000bec:	b2c4      	uxtb	r4, r0
{
 8000bee:	460d      	mov	r5, r1
  tmp = IOE_Read(DeviceAddr, STMPE811_REG_INT_EN);
 8000bf0:	4620      	mov	r0, r4
 8000bf2:	210a      	movs	r1, #10
 8000bf4:	f000 fc3a 	bl	800146c <IOE_Read>
  tmp |= Source; 
 8000bf8:	4328      	orrs	r0, r5
  IOE_Write(DeviceAddr, STMPE811_REG_INT_EN, tmp);   
 8000bfa:	b2c2      	uxtb	r2, r0
 8000bfc:	210a      	movs	r1, #10
 8000bfe:	4620      	mov	r0, r4
}
 8000c00:	e8bd 4038 	ldmia.w	sp!, {r3, r4, r5, lr}
  IOE_Write(DeviceAddr, STMPE811_REG_INT_EN, tmp);   
 8000c04:	f000 bc18 	b.w	8001438 <IOE_Write>

08000c08 <stmpe811_IO_EnableIT>:
{ 
 8000c08:	b507      	push	{r0, r1, r2, lr}
 8000c0a:	9001      	str	r0, [sp, #4]
  IOE_ITConfig();
 8000c0c:	f000 fbea 	bl	80013e4 <IOE_ITConfig>
  stmpe811_EnableITSource(DeviceAddr, STMPE811_GIT_IO);
 8000c10:	9801      	ldr	r0, [sp, #4]
 8000c12:	2180      	movs	r1, #128	; 0x80
 8000c14:	f7ff ffe9 	bl	8000bea <stmpe811_EnableITSource>
  stmpe811_EnableGlobalIT(DeviceAddr); 
 8000c18:	9801      	ldr	r0, [sp, #4]
}
 8000c1a:	b003      	add	sp, #12
 8000c1c:	f85d eb04 	ldr.w	lr, [sp], #4
  stmpe811_EnableGlobalIT(DeviceAddr); 
 8000c20:	f7ff bfc6 	b.w	8000bb0 <stmpe811_EnableGlobalIT>

08000c24 <stmpe811_TS_EnableIT>:
{
 8000c24:	b507      	push	{r0, r1, r2, lr}
 8000c26:	9001      	str	r0, [sp, #4]
  IOE_ITConfig();
 8000c28:	f000 fbdc 	bl	80013e4 <IOE_ITConfig>
  stmpe811_EnableITSource(DeviceAddr, STMPE811_TS_IT); 
 8000c2c:	9801      	ldr	r0, [sp, #4]
 8000c2e:	211f      	movs	r1, #31
 8000c30:	f7ff ffdb 	bl	8000bea <stmpe811_EnableITSource>
  stmpe811_EnableGlobalIT(DeviceAddr);
 8000c34:	9801      	ldr	r0, [sp, #4]
}
 8000c36:	b003      	add	sp, #12
 8000c38:	f85d eb04 	ldr.w	lr, [sp], #4
  stmpe811_EnableGlobalIT(DeviceAddr);
 8000c3c:	f7ff bfb8 	b.w	8000bb0 <stmpe811_EnableGlobalIT>

08000c40 <stmpe811_DisableITSource>:
{
 8000c40:	b538      	push	{r3, r4, r5, lr}
  tmp = IOE_Read(DeviceAddr, STMPE811_REG_INT_EN);
 8000c42:	b2c4      	uxtb	r4, r0
{
 8000c44:	460d      	mov	r5, r1
  tmp = IOE_Read(DeviceAddr, STMPE811_REG_INT_EN);
 8000c46:	4620      	mov	r0, r4
 8000c48:	210a      	movs	r1, #10
 8000c4a:	f000 fc0f 	bl	800146c <IOE_Read>
  tmp &= ~Source; 
 8000c4e:	ea20 0005 	bic.w	r0, r0, r5
  IOE_Write(DeviceAddr, STMPE811_REG_INT_EN, tmp);   
 8000c52:	b2c2      	uxtb	r2, r0
 8000c54:	210a      	movs	r1, #10
 8000c56:	4620      	mov	r0, r4
}
 8000c58:	e8bd 4038 	ldmia.w	sp!, {r3, r4, r5, lr}
  IOE_Write(DeviceAddr, STMPE811_REG_INT_EN, tmp);   
 8000c5c:	f000 bbec 	b.w	8001438 <IOE_Write>

08000c60 <stmpe811_IO_DisableIT>:
{
 8000c60:	b510      	push	{r4, lr}
 8000c62:	4604      	mov	r4, r0
  stmpe811_DisableGlobalIT(DeviceAddr);
 8000c64:	f7ff ffb3 	bl	8000bce <stmpe811_DisableGlobalIT>
  stmpe811_DisableITSource(DeviceAddr, STMPE811_GIT_IO);    
 8000c68:	4620      	mov	r0, r4
 8000c6a:	2180      	movs	r1, #128	; 0x80
}
 8000c6c:	e8bd 4010 	ldmia.w	sp!, {r4, lr}
  stmpe811_DisableITSource(DeviceAddr, STMPE811_GIT_IO);    
 8000c70:	f7ff bfe6 	b.w	8000c40 <stmpe811_DisableITSource>

08000c74 <stmpe811_TS_DisableIT>:
{
 8000c74:	b510      	push	{r4, lr}
 8000c76:	4604      	mov	r4, r0
  stmpe811_DisableGlobalIT(DeviceAddr);
 8000c78:	f7ff ffa9 	bl	8000bce <stmpe811_DisableGlobalIT>
  stmpe811_DisableITSource(DeviceAddr, STMPE811_TS_IT); 
 8000c7c:	4620      	mov	r0, r4
 8000c7e:	211f      	movs	r1, #31
}
 8000c80:	e8bd 4010 	ldmia.w	sp!, {r4, lr}
  stmpe811_DisableITSource(DeviceAddr, STMPE811_TS_IT); 
 8000c84:	f7ff bfdc 	b.w	8000c40 <stmpe811_DisableITSource>

08000c88 <stmpe811_SetITPolarity>:
{
 8000c88:	b538      	push	{r3, r4, r5, lr}
  tmp = IOE_Read(DeviceAddr, STMPE811_REG_INT_CTRL);
 8000c8a:	b2c4      	uxtb	r4, r0
{
 8000c8c:	460d      	mov	r5, r1
  tmp = IOE_Read(DeviceAddr, STMPE811_REG_INT_CTRL);
 8000c8e:	4620      	mov	r0, r4
 8000c90:	2109      	movs	r1, #9
 8000c92:	f000 fbeb 	bl	800146c <IOE_Read>
  tmp &= ~(uint8_t)0x04;
 8000c96:	f000 00fb 	and.w	r0, r0, #251	; 0xfb
  IOE_Write(DeviceAddr, STMPE811_REG_INT_CTRL, tmp);
 8000c9a:	ea40 0205 	orr.w	r2, r0, r5
 8000c9e:	2109      	movs	r1, #9
 8000ca0:	4620      	mov	r0, r4
}
 8000ca2:	e8bd 4038 	ldmia.w	sp!, {r3, r4, r5, lr}
  IOE_Write(DeviceAddr, STMPE811_REG_INT_CTRL, tmp);
 8000ca6:	f000 bbc7 	b.w	8001438 <IOE_Write>

08000caa <stmpe811_SetITType>:
{
 8000caa:	b538      	push	{r3, r4, r5, lr}
  tmp = IOE_Read(DeviceAddr, STMPE811_REG_INT_CTRL);
 8000cac:	b2c4      	uxtb	r4, r0
{
 8000cae:	460d      	mov	r5, r1
  tmp = IOE_Read(DeviceAddr, STMPE811_REG_INT_CTRL);
 8000cb0:	4620      	mov	r0, r4
 8000cb2:	2109      	movs	r1, #9
 8000cb4:	f000 fbda 	bl	800146c <IOE_Read>
  tmp &= ~(uint8_t)0x02;
 8000cb8:	f000 00fd 	and.w	r0, r0, #253	; 0xfd
  IOE_Write(DeviceAddr, STMPE811_REG_INT_CTRL, tmp);
 8000cbc:	ea40 0205 	orr.w	r2, r0, r5
 8000cc0:	2109      	movs	r1, #9
 8000cc2:	4620      	mov	r0, r4
}
 8000cc4:	e8bd 4038 	ldmia.w	sp!, {r3, r4, r5, lr}
  IOE_Write(DeviceAddr, STMPE811_REG_INT_CTRL, tmp);
 8000cc8:	f000 bbb6 	b.w	8001438 <IOE_Write>

08000ccc <stmpe811_ReadGITStatus>:
{
 8000ccc:	b510      	push	{r4, lr}
  return((IOE_Read(DeviceAddr, STMPE811_REG_INT_STA) & Source));
 8000cce:	b2c0      	uxtb	r0, r0
{
 8000cd0:	460c      	mov	r4, r1
  return((IOE_Read(DeviceAddr, STMPE811_REG_INT_STA) & Source));
 8000cd2:	210b      	movs	r1, #11
 8000cd4:	f000 fbca 	bl	800146c <IOE_Read>
}
 8000cd8:	4020      	ands	r0, r4
 8000cda:	bd10      	pop	{r4, pc}

08000cdc <stmpe811_TS_ITStatus>:
  return(stmpe811_ReadGITStatus(DeviceAddr, STMPE811_TS_IT));
 8000cdc:	211f      	movs	r1, #31
 8000cde:	f7ff bff5 	b.w	8000ccc <stmpe811_ReadGITStatus>

08000ce2 <stmpe811_ClearGlobalIT>:
{
 8000ce2:	460a      	mov	r2, r1
  IOE_Write(DeviceAddr, STMPE811_REG_INT_STA, Source);
 8000ce4:	b2c0      	uxtb	r0, r0
 8000ce6:	210b      	movs	r1, #11
 8000ce8:	f000 bba6 	b.w	8001438 <IOE_Write>

08000cec <stmpe811_IO_ClearIT>:
{
 8000cec:	b537      	push	{r0, r1, r2, r4, r5, lr}
 8000cee:	4604      	mov	r4, r0
 8000cf0:	460d      	mov	r5, r1
  stmpe811_ClearGlobalIT(DeviceAddr, STMPE811_GIT_IO);
 8000cf2:	2180      	movs	r1, #128	; 0x80
 8000cf4:	f7ff fff5 	bl	8000ce2 <stmpe811_ClearGlobalIT>
  IOE_Write(DeviceAddr, STMPE811_REG_IO_INT_STA, (uint8_t)IO_Pin);  
 8000cf8:	b2e0      	uxtb	r0, r4
 8000cfa:	b2ea      	uxtb	r2, r5
 8000cfc:	210d      	movs	r1, #13
 8000cfe:	9201      	str	r2, [sp, #4]
 8000d00:	9000      	str	r0, [sp, #0]
 8000d02:	f000 fb99 	bl	8001438 <IOE_Write>
  IOE_Write(DeviceAddr, STMPE811_REG_IO_ED, (uint8_t)IO_Pin);
 8000d06:	9a01      	ldr	r2, [sp, #4]
 8000d08:	9800      	ldr	r0, [sp, #0]
 8000d0a:	2114      	movs	r1, #20
 8000d0c:	f000 fb94 	bl	8001438 <IOE_Write>
  IOE_Write(DeviceAddr, STMPE811_REG_IO_RE, (uint8_t)IO_Pin);
 8000d10:	9a01      	ldr	r2, [sp, #4]
 8000d12:	9800      	ldr	r0, [sp, #0]
 8000d14:	2115      	movs	r1, #21
 8000d16:	f000 fb8f 	bl	8001438 <IOE_Write>
  IOE_Write(DeviceAddr, STMPE811_REG_IO_FE, (uint8_t)IO_Pin); 
 8000d1a:	9a01      	ldr	r2, [sp, #4]
 8000d1c:	9800      	ldr	r0, [sp, #0]
 8000d1e:	2116      	movs	r1, #22
}
 8000d20:	b003      	add	sp, #12
 8000d22:	e8bd 4030 	ldmia.w	sp!, {r4, r5, lr}
  IOE_Write(DeviceAddr, STMPE811_REG_IO_FE, (uint8_t)IO_Pin); 
 8000d26:	f000 bb87 	b.w	8001438 <IOE_Write>

08000d2a <stmpe811_TS_ClearIT>:
  stmpe811_ClearGlobalIT(DeviceAddr, STMPE811_TS_IT);
 8000d2a:	211f      	movs	r1, #31
 8000d2c:	f7ff bfd9 	b.w	8000ce2 <stmpe811_ClearGlobalIT>

08000d30 <stmpe811_IO_InitPin>:
{
 8000d30:	b570      	push	{r4, r5, r6, lr}
  tmp = IOE_Read(DeviceAddr, STMPE811_REG_IO_DIR);
 8000d32:	b2c4      	uxtb	r4, r0
{
 8000d34:	460d      	mov	r5, r1
 8000d36:	4616      	mov	r6, r2
  tmp = IOE_Read(DeviceAddr, STMPE811_REG_IO_DIR);
 8000d38:	2113      	movs	r1, #19
 8000d3a:	4620      	mov	r0, r4
 8000d3c:	f000 fb96 	bl	800146c <IOE_Read>
  if (Direction != STMPE811_DIRECTION_IN)
 8000d40:	b146      	cbz	r6, 8000d54 <stmpe811_IO_InitPin+0x24>
    tmp |= (uint8_t)IO_Pin;
 8000d42:	ea40 0105 	orr.w	r1, r0, r5
 8000d46:	b2ca      	uxtb	r2, r1
  IOE_Write(DeviceAddr, STMPE811_REG_IO_DIR, tmp);   
 8000d48:	4620      	mov	r0, r4
 8000d4a:	2113      	movs	r1, #19
}
 8000d4c:	e8bd 4070 	ldmia.w	sp!, {r4, r5, r6, lr}
  IOE_Write(DeviceAddr, STMPE811_REG_IO_DIR, tmp);   
 8000d50:	f000 bb72 	b.w	8001438 <IOE_Write>
    tmp &= ~(uint8_t)IO_Pin;
 8000d54:	ea20 0205 	bic.w	r2, r0, r5
 8000d58:	b2d2      	uxtb	r2, r2
 8000d5a:	e7f5      	b.n	8000d48 <stmpe811_IO_InitPin+0x18>

08000d5c <stmpe811_IO_DisableAF>:
{
 8000d5c:	b538      	push	{r3, r4, r5, lr}
  tmp = IOE_Read(DeviceAddr, STMPE811_REG_IO_AF);
 8000d5e:	b2c4      	uxtb	r4, r0
{
 8000d60:	460d      	mov	r5, r1
  tmp = IOE_Read(DeviceAddr, STMPE811_REG_IO_AF);
 8000d62:	4620      	mov	r0, r4
 8000d64:	2117      	movs	r1, #23
 8000d66:	f000 fb81 	bl	800146c <IOE_Read>
  tmp |= (uint8_t)IO_Pin;
 8000d6a:	4328      	orrs	r0, r5
  IOE_Write(DeviceAddr, STMPE811_REG_IO_AF, tmp);
 8000d6c:	b2c2      	uxtb	r2, r0
 8000d6e:	2117      	movs	r1, #23
 8000d70:	4620      	mov	r0, r4
}
 8000d72:	e8bd 4038 	ldmia.w	sp!, {r3, r4, r5, lr}
  IOE_Write(DeviceAddr, STMPE811_REG_IO_AF, tmp);
 8000d76:	f000 bb5f 	b.w	8001438 <IOE_Write>

08000d7a <stmpe811_IO_Start>:
{
 8000d7a:	b570      	push	{r4, r5, r6, lr}
  mode = IOE_Read(DeviceAddr, STMPE811_REG_SYS_CTRL2);
 8000d7c:	b2c6      	uxtb	r6, r0
{
 8000d7e:	4604      	mov	r4, r0
 8000d80:	460d      	mov	r5, r1
  mode = IOE_Read(DeviceAddr, STMPE811_REG_SYS_CTRL2);
 8000d82:	4630      	mov	r0, r6
 8000d84:	2104      	movs	r1, #4
 8000d86:	f000 fb71 	bl	800146c <IOE_Read>
  IOE_Write(DeviceAddr, STMPE811_REG_SYS_CTRL2, mode); 
 8000d8a:	2104      	movs	r1, #4
 8000d8c:	f000 02fa 	and.w	r2, r0, #250	; 0xfa
 8000d90:	4630      	mov	r0, r6
 8000d92:	f000 fb51 	bl	8001438 <IOE_Write>
  stmpe811_IO_DisableAF(DeviceAddr, (uint8_t)IO_Pin);
 8000d96:	b2e9      	uxtb	r1, r5
 8000d98:	4620      	mov	r0, r4
}
 8000d9a:	e8bd 4070 	ldmia.w	sp!, {r4, r5, r6, lr}
  stmpe811_IO_DisableAF(DeviceAddr, (uint8_t)IO_Pin);
 8000d9e:	f7ff bfdd 	b.w	8000d5c <stmpe811_IO_DisableAF>

08000da2 <stmpe811_IO_EnableAF>:
{
 8000da2:	b538      	push	{r3, r4, r5, lr}
  tmp = IOE_Read(DeviceAddr, STMPE811_REG_IO_AF);
 8000da4:	b2c4      	uxtb	r4, r0
{
 8000da6:	460d      	mov	r5, r1
  tmp = IOE_Read(DeviceAddr, STMPE811_REG_IO_AF);
 8000da8:	4620      	mov	r0, r4
 8000daa:	2117      	movs	r1, #23
 8000dac:	f000 fb5e 	bl	800146c <IOE_Read>
  tmp &= ~(uint8_t)IO_Pin;   
 8000db0:	ea20 0005 	bic.w	r0, r0, r5
  IOE_Write(DeviceAddr, STMPE811_REG_IO_AF, tmp); 
 8000db4:	b2c2      	uxtb	r2, r0
 8000db6:	2117      	movs	r1, #23
 8000db8:	4620      	mov	r0, r4
}
 8000dba:	e8bd 4038 	ldmia.w	sp!, {r3, r4, r5, lr}
  IOE_Write(DeviceAddr, STMPE811_REG_IO_AF, tmp); 
 8000dbe:	f000 bb3b 	b.w	8001438 <IOE_Write>

08000dc2 <stmpe811_TS_Start>:
{
 8000dc2:	b570      	push	{r4, r5, r6, lr}
  mode = IOE_Read(DeviceAddr, STMPE811_REG_SYS_CTRL2);
 8000dc4:	b2c4      	uxtb	r4, r0
{
 8000dc6:	4606      	mov	r6, r0
  mode = IOE_Read(DeviceAddr, STMPE811_REG_SYS_CTRL2);
 8000dc8:	2104      	movs	r1, #4
 8000dca:	4620      	mov	r0, r4
 8000dcc:	f000 fb4e 	bl	800146c <IOE_Read>
  IOE_Write(DeviceAddr, STMPE811_REG_SYS_CTRL2, mode); 
 8000dd0:	2104      	movs	r1, #4
 8000dd2:	f000 02fb 	and.w	r2, r0, #251	; 0xfb
  mode = IOE_Read(DeviceAddr, STMPE811_REG_SYS_CTRL2);
 8000dd6:	4605      	mov	r5, r0
  IOE_Write(DeviceAddr, STMPE811_REG_SYS_CTRL2, mode); 
 8000dd8:	4620      	mov	r0, r4
 8000dda:	f000 fb2d 	bl	8001438 <IOE_Write>
  stmpe811_IO_EnableAF(DeviceAddr, STMPE811_TOUCH_IO_ALL);
 8000dde:	4630      	mov	r0, r6
 8000de0:	21f0      	movs	r1, #240	; 0xf0
 8000de2:	f7ff ffde 	bl	8000da2 <stmpe811_IO_EnableAF>
  IOE_Write(DeviceAddr, STMPE811_REG_SYS_CTRL2, mode); 
 8000de6:	f005 02f8 	and.w	r2, r5, #248	; 0xf8
 8000dea:	4620      	mov	r0, r4
 8000dec:	2104      	movs	r1, #4
 8000dee:	f000 fb23 	bl	8001438 <IOE_Write>
  IOE_Write(DeviceAddr, STMPE811_REG_ADC_CTRL1, 0x49);
 8000df2:	2249      	movs	r2, #73	; 0x49
 8000df4:	2120      	movs	r1, #32
 8000df6:	4620      	mov	r0, r4
 8000df8:	f000 fb1e 	bl	8001438 <IOE_Write>
  IOE_Delay(2); 
 8000dfc:	2002      	movs	r0, #2
 8000dfe:	f000 fb6b 	bl	80014d8 <IOE_Delay>
  IOE_Write(DeviceAddr, STMPE811_REG_ADC_CTRL2, 0x01);
 8000e02:	4620      	mov	r0, r4
 8000e04:	2201      	movs	r2, #1
 8000e06:	2121      	movs	r1, #33	; 0x21
 8000e08:	f000 fb16 	bl	8001438 <IOE_Write>
  IOE_Write(DeviceAddr, STMPE811_REG_TSC_CFG, 0x9A); 
 8000e0c:	4620      	mov	r0, r4
 8000e0e:	229a      	movs	r2, #154	; 0x9a
 8000e10:	2141      	movs	r1, #65	; 0x41
 8000e12:	f000 fb11 	bl	8001438 <IOE_Write>
  IOE_Write(DeviceAddr, STMPE811_REG_FIFO_TH, 0x01);
 8000e16:	4620      	mov	r0, r4
 8000e18:	2201      	movs	r2, #1
 8000e1a:	214a      	movs	r1, #74	; 0x4a
 8000e1c:	f000 fb0c 	bl	8001438 <IOE_Write>
  IOE_Write(DeviceAddr, STMPE811_REG_FIFO_STA, 0x01);
 8000e20:	4620      	mov	r0, r4
 8000e22:	2201      	movs	r2, #1
 8000e24:	214b      	movs	r1, #75	; 0x4b
 8000e26:	f000 fb07 	bl	8001438 <IOE_Write>
  IOE_Write(DeviceAddr, STMPE811_REG_FIFO_STA, 0x00);
 8000e2a:	4620      	mov	r0, r4
 8000e2c:	2200      	movs	r2, #0
 8000e2e:	214b      	movs	r1, #75	; 0x4b
 8000e30:	f000 fb02 	bl	8001438 <IOE_Write>
  IOE_Write(DeviceAddr, STMPE811_REG_TSC_FRACT_XYZ, 0x01);
 8000e34:	4620      	mov	r0, r4
 8000e36:	2201      	movs	r2, #1
 8000e38:	2156      	movs	r1, #86	; 0x56
 8000e3a:	f000 fafd 	bl	8001438 <IOE_Write>
  IOE_Write(DeviceAddr, STMPE811_REG_TSC_I_DRIVE, 0x01);
 8000e3e:	4620      	mov	r0, r4
 8000e40:	2201      	movs	r2, #1
 8000e42:	2158      	movs	r1, #88	; 0x58
 8000e44:	f000 faf8 	bl	8001438 <IOE_Write>
  IOE_Write(DeviceAddr, STMPE811_REG_TSC_CTRL, 0x01);
 8000e48:	4620      	mov	r0, r4
 8000e4a:	2201      	movs	r2, #1
 8000e4c:	2140      	movs	r1, #64	; 0x40
 8000e4e:	f000 faf3 	bl	8001438 <IOE_Write>
  IOE_Write(DeviceAddr, STMPE811_REG_INT_STA, 0xFF);
 8000e52:	4620      	mov	r0, r4
 8000e54:	22ff      	movs	r2, #255	; 0xff
 8000e56:	210b      	movs	r1, #11
 8000e58:	f000 faee 	bl	8001438 <IOE_Write>
}
 8000e5c:	e8bd 4070 	ldmia.w	sp!, {r4, r5, r6, lr}
  IOE_Delay(2); 
 8000e60:	2002      	movs	r0, #2
 8000e62:	f000 bb39 	b.w	80014d8 <IOE_Delay>

08000e66 <stmpe811_IO_SetEdgeMode>:
{
 8000e66:	e92d 43f8 	stmdb	sp!, {r3, r4, r5, r6, r7, r8, r9, lr}
  tmp1 = IOE_Read(DeviceAddr, STMPE811_REG_IO_FE);
 8000e6a:	b2c7      	uxtb	r7, r0
{
 8000e6c:	4688      	mov	r8, r1
  tmp1 = IOE_Read(DeviceAddr, STMPE811_REG_IO_FE);
 8000e6e:	4638      	mov	r0, r7
 8000e70:	2116      	movs	r1, #22
{
 8000e72:	4691      	mov	r9, r2
  tmp1 = IOE_Read(DeviceAddr, STMPE811_REG_IO_FE);
 8000e74:	f000 fafa 	bl	800146c <IOE_Read>
  tmp1 &= ~(uint8_t)IO_Pin;
 8000e78:	ea6f 0508 	mvn.w	r5, r8
  tmp1 = IOE_Read(DeviceAddr, STMPE811_REG_IO_FE);
 8000e7c:	4606      	mov	r6, r0
  tmp2 = IOE_Read(DeviceAddr, STMPE811_REG_IO_RE);
 8000e7e:	2115      	movs	r1, #21
 8000e80:	4638      	mov	r0, r7
 8000e82:	f000 faf3 	bl	800146c <IOE_Read>
  tmp1 &= ~(uint8_t)IO_Pin;
 8000e86:	b26b      	sxtb	r3, r5
 8000e88:	401e      	ands	r6, r3
 8000e8a:	b2f2      	uxtb	r2, r6
  if (Edge & STMPE811_EDGE_FALLING)
 8000e8c:	f019 0f01 	tst.w	r9, #1
    tmp1 |= (uint8_t)IO_Pin;
 8000e90:	bf18      	it	ne
 8000e92:	ea42 0208 	orrne.w	r2, r2, r8
  tmp2 &= ~(uint8_t)IO_Pin;
 8000e96:	ea00 0003 	and.w	r0, r0, r3
 8000e9a:	b2c4      	uxtb	r4, r0
    tmp1 |= (uint8_t)IO_Pin;
 8000e9c:	bf18      	it	ne
 8000e9e:	b2d2      	uxtbne	r2, r2
  if (Edge & STMPE811_EDGE_RISING)
 8000ea0:	f019 0f02 	tst.w	r9, #2
    tmp2 |= (uint8_t)IO_Pin;
 8000ea4:	bf1c      	itt	ne
 8000ea6:	ea44 0408 	orrne.w	r4, r4, r8
 8000eaa:	b2e4      	uxtbne	r4, r4
  IOE_Write(DeviceAddr, STMPE811_REG_IO_FE, tmp1);
 8000eac:	4638      	mov	r0, r7
 8000eae:	2116      	movs	r1, #22
 8000eb0:	f000 fac2 	bl	8001438 <IOE_Write>
  IOE_Write(DeviceAddr, STMPE811_REG_IO_RE, tmp2);
 8000eb4:	4622      	mov	r2, r4
 8000eb6:	4638      	mov	r0, r7
 8000eb8:	2115      	movs	r1, #21
}
 8000eba:	e8bd 43f8 	ldmia.w	sp!, {r3, r4, r5, r6, r7, r8, r9, lr}
  IOE_Write(DeviceAddr, STMPE811_REG_IO_RE, tmp2);
 8000ebe:	f000 babb 	b.w	8001438 <IOE_Write>

08000ec2 <stmpe811_IO_EnablePinIT>:
{
 8000ec2:	b538      	push	{r3, r4, r5, lr}
  tmp = IOE_Read(DeviceAddr, STMPE811_REG_IO_INT_EN);
 8000ec4:	b2c4      	uxtb	r4, r0
{
 8000ec6:	460d      	mov	r5, r1
  tmp = IOE_Read(DeviceAddr, STMPE811_REG_IO_INT_EN);
 8000ec8:	4620      	mov	r0, r4
 8000eca:	210c      	movs	r1, #12
 8000ecc:	f000 face 	bl	800146c <IOE_Read>
  tmp |= (uint8_t)IO_Pin;
 8000ed0:	4328      	orrs	r0, r5
  IOE_Write(DeviceAddr, STMPE811_REG_IO_INT_EN, tmp);  
 8000ed2:	b2c2      	uxtb	r2, r0
 8000ed4:	210c      	movs	r1, #12
 8000ed6:	4620      	mov	r0, r4
}
 8000ed8:	e8bd 4038 	ldmia.w	sp!, {r3, r4, r5, lr}
  IOE_Write(DeviceAddr, STMPE811_REG_IO_INT_EN, tmp);  
 8000edc:	f000 baac 	b.w	8001438 <IOE_Write>

08000ee0 <stmpe811_IO_Config>:
{
 8000ee0:	b537      	push	{r0, r1, r2, r4, r5, lr}
 8000ee2:	460c      	mov	r4, r1
 8000ee4:	4615      	mov	r5, r2
  switch(IO_Mode)
 8000ee6:	2a05      	cmp	r2, #5
 8000ee8:	d807      	bhi.n	8000efa <stmpe811_IO_Config+0x1a>
 8000eea:	e8df f002 	tbb	[pc, r2]
 8000eee:	0903      	.short	0x0903
 8000ef0:	4b36240e 	.word	0x4b36240e
    stmpe811_IO_InitPin(DeviceAddr, IO_Pin, STMPE811_DIRECTION_IN);
 8000ef4:	2200      	movs	r2, #0
 8000ef6:	f7ff ff1b 	bl	8000d30 <stmpe811_IO_InitPin>
}
 8000efa:	4628      	mov	r0, r5
 8000efc:	b003      	add	sp, #12
 8000efe:	bd30      	pop	{r4, r5, pc}
    stmpe811_IO_InitPin(DeviceAddr, IO_Pin, STMPE811_DIRECTION_OUT);
 8000f00:	2201      	movs	r2, #1
 8000f02:	f7ff ff15 	bl	8000d30 <stmpe811_IO_InitPin>
  uint8_t error_code = 0;
 8000f06:	2500      	movs	r5, #0
    break;    
 8000f08:	e7f7      	b.n	8000efa <stmpe811_IO_Config+0x1a>
    stmpe811_IO_EnableIT(DeviceAddr);
 8000f0a:	9001      	str	r0, [sp, #4]
 8000f0c:	f7ff fe7c 	bl	8000c08 <stmpe811_IO_EnableIT>
    stmpe811_IO_EnablePinIT(DeviceAddr, IO_Pin);
 8000f10:	9801      	ldr	r0, [sp, #4]
 8000f12:	4621      	mov	r1, r4
 8000f14:	f7ff ffd5 	bl	8000ec2 <stmpe811_IO_EnablePinIT>
    stmpe811_IO_InitPin(DeviceAddr, IO_Pin, STMPE811_DIRECTION_IN); 
 8000f18:	2200      	movs	r2, #0
 8000f1a:	9801      	ldr	r0, [sp, #4]
 8000f1c:	4621      	mov	r1, r4
 8000f1e:	f7ff ff07 	bl	8000d30 <stmpe811_IO_InitPin>
    stmpe811_SetITType(DeviceAddr, STMPE811_TYPE_EDGE);      
 8000f22:	9801      	ldr	r0, [sp, #4]
 8000f24:	2102      	movs	r1, #2
 8000f26:	f7ff fec0 	bl	8000caa <stmpe811_SetITType>
    stmpe811_IO_SetEdgeMode(DeviceAddr, IO_Pin, STMPE811_EDGE_RISING); 
 8000f2a:	2202      	movs	r2, #2
    stmpe811_IO_SetEdgeMode(DeviceAddr, IO_Pin, STMPE811_EDGE_FALLING); 
 8000f2c:	9801      	ldr	r0, [sp, #4]
 8000f2e:	4621      	mov	r1, r4
 8000f30:	f7ff ff99 	bl	8000e66 <stmpe811_IO_SetEdgeMode>
    break;
 8000f34:	e7e7      	b.n	8000f06 <stmpe811_IO_Config+0x26>
    stmpe811_IO_EnableIT(DeviceAddr);
 8000f36:	9001      	str	r0, [sp, #4]
 8000f38:	f7ff fe66 	bl	8000c08 <stmpe811_IO_EnableIT>
    stmpe811_IO_EnablePinIT(DeviceAddr, IO_Pin);
 8000f3c:	9801      	ldr	r0, [sp, #4]
 8000f3e:	4621      	mov	r1, r4
 8000f40:	f7ff ffbf 	bl	8000ec2 <stmpe811_IO_EnablePinIT>
    stmpe811_IO_InitPin(DeviceAddr, IO_Pin, STMPE811_DIRECTION_IN); 
 8000f44:	2200      	movs	r2, #0
 8000f46:	9801      	ldr	r0, [sp, #4]
 8000f48:	4621      	mov	r1, r4
 8000f4a:	f7ff fef1 	bl	8000d30 <stmpe811_IO_InitPin>
    stmpe811_SetITType(DeviceAddr, STMPE811_TYPE_EDGE);    
 8000f4e:	9801      	ldr	r0, [sp, #4]
 8000f50:	2102      	movs	r1, #2
 8000f52:	f7ff feaa 	bl	8000caa <stmpe811_SetITType>
    stmpe811_IO_SetEdgeMode(DeviceAddr, IO_Pin, STMPE811_EDGE_FALLING); 
 8000f56:	2201      	movs	r2, #1
 8000f58:	e7e8      	b.n	8000f2c <stmpe811_IO_Config+0x4c>
    stmpe811_IO_EnableIT(DeviceAddr);
 8000f5a:	9001      	str	r0, [sp, #4]
 8000f5c:	f7ff fe54 	bl	8000c08 <stmpe811_IO_EnableIT>
    stmpe811_IO_EnablePinIT(DeviceAddr, IO_Pin);
 8000f60:	9801      	ldr	r0, [sp, #4]
 8000f62:	4621      	mov	r1, r4
 8000f64:	f7ff ffad 	bl	8000ec2 <stmpe811_IO_EnablePinIT>
    stmpe811_IO_InitPin(DeviceAddr, IO_Pin, STMPE811_DIRECTION_IN); 
 8000f68:	9801      	ldr	r0, [sp, #4]
 8000f6a:	2200      	movs	r2, #0
 8000f6c:	4621      	mov	r1, r4
 8000f6e:	f7ff fedf 	bl	8000d30 <stmpe811_IO_InitPin>
    stmpe811_SetITType(DeviceAddr, STMPE811_TYPE_LEVEL);
 8000f72:	2100      	movs	r1, #0
 8000f74:	9801      	ldr	r0, [sp, #4]
 8000f76:	f7ff fe98 	bl	8000caa <stmpe811_SetITType>
    stmpe811_SetITPolarity(DeviceAddr, STMPE811_POLARITY_LOW);      
 8000f7a:	2100      	movs	r1, #0
    stmpe811_SetITPolarity(DeviceAddr, STMPE811_POLARITY_HIGH);  
 8000f7c:	9801      	ldr	r0, [sp, #4]
 8000f7e:	f7ff fe83 	bl	8000c88 <stmpe811_SetITPolarity>
 8000f82:	e7c0      	b.n	8000f06 <stmpe811_IO_Config+0x26>
    stmpe811_IO_EnableIT(DeviceAddr);
 8000f84:	9001      	str	r0, [sp, #4]
 8000f86:	f7ff fe3f 	bl	8000c08 <stmpe811_IO_EnableIT>
    stmpe811_IO_EnablePinIT(DeviceAddr, IO_Pin);
 8000f8a:	9801      	ldr	r0, [sp, #4]
 8000f8c:	4621      	mov	r1, r4
 8000f8e:	f7ff ff98 	bl	8000ec2 <stmpe811_IO_EnablePinIT>
    stmpe811_IO_InitPin(DeviceAddr, IO_Pin, STMPE811_DIRECTION_IN); 
 8000f92:	9801      	ldr	r0, [sp, #4]
 8000f94:	2200      	movs	r2, #0
 8000f96:	4621      	mov	r1, r4
 8000f98:	f7ff feca 	bl	8000d30 <stmpe811_IO_InitPin>
    stmpe811_SetITType(DeviceAddr, STMPE811_TYPE_LEVEL);
 8000f9c:	2100      	movs	r1, #0
 8000f9e:	9801      	ldr	r0, [sp, #4]
 8000fa0:	f7ff fe83 	bl	8000caa <stmpe811_SetITType>
    stmpe811_SetITPolarity(DeviceAddr, STMPE811_POLARITY_HIGH);  
 8000fa4:	2104      	movs	r1, #4
 8000fa6:	e7e9      	b.n	8000f7c <stmpe811_IO_Config+0x9c>

08000fa8 <SPIx_Init>:

/**
  * @brief  SPIx Bus initialization
  */
static void SPIx_Init(void)
{
 8000fa8:	b510      	push	{r4, lr}
  if(HAL_SPI_GetState(&SpiHandle) == HAL_SPI_STATE_RESET)
 8000faa:	4c22      	ldr	r4, [pc, #136]	; (8001034 <SPIx_Init+0x8c>)
{
 8000fac:	b088      	sub	sp, #32
  if(HAL_SPI_GetState(&SpiHandle) == HAL_SPI_STATE_RESET)
 8000fae:	4620      	mov	r0, r4
 8000fb0:	f002 fc57 	bl	8003862 <HAL_SPI_GetState>
 8000fb4:	2800      	cmp	r0, #0
 8000fb6:	d13b      	bne.n	8001030 <SPIx_Init+0x88>
  {
    /* SPI configuration -----------------------------------------------------*/
    SpiHandle.Instance = DISCOVERY_SPIx;
 8000fb8:	4b1f      	ldr	r3, [pc, #124]	; (8001038 <SPIx_Init+0x90>)
 8000fba:	6023      	str	r3, [r4, #0]
       to verify these constraints:
       - ILI9341 LCD SPI interface max baudrate is 10MHz for write and 6.66MHz for read
       - l3gd20 SPI interface max baudrate is 10MHz for write/read
       - PCLK2 frequency is set to 90 MHz 
    */  
    SpiHandle.Init.BaudRatePrescaler = SPI_BAUDRATEPRESCALER_16;
 8000fbc:	2318      	movs	r3, #24
 8000fbe:	61e3      	str	r3, [r4, #28]
    /* Note: To read a register a LCD, SPI_DIRECTION_1LINE should be set */
    SpiHandle.Init.Direction      = SPI_DIRECTION_2LINES;
    SpiHandle.Init.CLKPhase       = SPI_PHASE_1EDGE;
    SpiHandle.Init.CLKPolarity    = SPI_POLARITY_LOW;
    SpiHandle.Init.CRCCalculation = SPI_CRCCALCULATION_DISABLED;
    SpiHandle.Init.CRCPolynomial  = 7;
 8000fc0:	2307      	movs	r3, #7
 8000fc2:	62e3      	str	r3, [r4, #44]	; 0x2c
    SpiHandle.Init.DataSize       = SPI_DATASIZE_8BIT;
    SpiHandle.Init.FirstBit       = SPI_FIRSTBIT_MSB;
    SpiHandle.Init.NSS            = SPI_NSS_SOFT;
 8000fc4:	f44f 7300 	mov.w	r3, #512	; 0x200
    SpiHandle.Init.CLKPolarity    = SPI_POLARITY_LOW;
 8000fc8:	e9c4 0004 	strd	r0, r0, [r4, #16]
    SpiHandle.Init.NSS            = SPI_NSS_SOFT;
 8000fcc:	61a3      	str	r3, [r4, #24]
    SpiHandle.Init.TIMode         = SPI_TIMODE_DISABLED;
    SpiHandle.Init.Mode           = SPI_MODE_MASTER;
 8000fce:	f44f 7382 	mov.w	r3, #260	; 0x104
 8000fd2:	6063      	str	r3, [r4, #4]
static void SPIx_MspInit(SPI_HandleTypeDef *hspi)
{
  GPIO_InitTypeDef   GPIO_InitStructure;

  /* Enable SPIx clock */
  DISCOVERY_SPIx_CLK_ENABLE();
 8000fd4:	4b19      	ldr	r3, [pc, #100]	; (800103c <SPIx_Init+0x94>)
 8000fd6:	9001      	str	r0, [sp, #4]
    SpiHandle.Init.Direction      = SPI_DIRECTION_2LINES;
 8000fd8:	60a0      	str	r0, [r4, #8]
    SpiHandle.Init.CRCCalculation = SPI_CRCCALCULATION_DISABLED;
 8000fda:	62a0      	str	r0, [r4, #40]	; 0x28
    SpiHandle.Init.DataSize       = SPI_DATASIZE_8BIT;
 8000fdc:	60e0      	str	r0, [r4, #12]
    SpiHandle.Init.FirstBit       = SPI_FIRSTBIT_MSB;
 8000fde:	6220      	str	r0, [r4, #32]
    SpiHandle.Init.TIMode         = SPI_TIMODE_DISABLED;
 8000fe0:	6260      	str	r0, [r4, #36]	; 0x24
  DISCOVERY_SPIx_CLK_ENABLE();
 8000fe2:	6c5a      	ldr	r2, [r3, #68]	; 0x44
 8000fe4:	f442 1280 	orr.w	r2, r2, #1048576	; 0x100000
 8000fe8:	645a      	str	r2, [r3, #68]	; 0x44
 8000fea:	6c5a      	ldr	r2, [r3, #68]	; 0x44
 8000fec:	f402 1280 	and.w	r2, r2, #1048576	; 0x100000
 8000ff0:	9201      	str	r2, [sp, #4]
 8000ff2:	9a01      	ldr	r2, [sp, #4]

  /* Enable DISCOVERY_SPI GPIO clock */
  DISCOVERY_SPIx_GPIO_CLK_ENABLE();
 8000ff4:	9002      	str	r0, [sp, #8]
 8000ff6:	6b1a      	ldr	r2, [r3, #48]	; 0x30
 8000ff8:	f042 0220 	orr.w	r2, r2, #32
 8000ffc:	631a      	str	r2, [r3, #48]	; 0x30
 8000ffe:	6b1b      	ldr	r3, [r3, #48]	; 0x30
 8001000:	f003 0320 	and.w	r3, r3, #32
 8001004:	9302      	str	r3, [sp, #8]
 8001006:	9b02      	ldr	r3, [sp, #8]

  /* configure SPI SCK, MOSI and MISO */    
  GPIO_InitStructure.Pin    = (DISCOVERY_SPIx_SCK_PIN | DISCOVERY_SPIx_MOSI_PIN | DISCOVERY_SPIx_MISO_PIN);
  GPIO_InitStructure.Mode   = GPIO_MODE_AF_PP;
 8001008:	f44f 7160 	mov.w	r1, #896	; 0x380
 800100c:	2302      	movs	r3, #2
 800100e:	e9cd 1303 	strd	r1, r3, [sp, #12]
  GPIO_InitStructure.Pull   = GPIO_PULLDOWN;
 8001012:	9305      	str	r3, [sp, #20]
  GPIO_InitStructure.Speed  = GPIO_SPEED_MEDIUM;
  GPIO_InitStructure.Alternate = DISCOVERY_SPIx_AF;
 8001014:	2001      	movs	r0, #1
 8001016:	2305      	movs	r3, #5
 8001018:	e9cd 0306 	strd	r0, r3, [sp, #24]
  HAL_GPIO_Init(DISCOVERY_SPIx_GPIO_PORT, &GPIO_InitStructure);      
 800101c:	a903      	add	r1, sp, #12
 800101e:	4808      	ldr	r0, [pc, #32]	; (8001040 <SPIx_Init+0x98>)
 8001020:	f000 fdfa 	bl	8001c18 <HAL_GPIO_Init>
    HAL_SPI_Init(&SpiHandle);
 8001024:	4620      	mov	r0, r4
}
 8001026:	b008      	add	sp, #32
 8001028:	e8bd 4010 	ldmia.w	sp!, {r4, lr}
    HAL_SPI_Init(&SpiHandle);
 800102c:	f002 badb 	b.w	80035e6 <HAL_SPI_Init>
}
 8001030:	b008      	add	sp, #32
 8001032:	bd10      	pop	{r4, pc}
 8001034:	20000148 	.word	0x20000148
 8001038:	40015000 	.word	0x40015000
 800103c:	40023800 	.word	0x40023800
 8001040:	40021400 	.word	0x40021400

08001044 <SPIx_Write>:
{
 8001044:	b507      	push	{r0, r1, r2, lr}
  status = HAL_SPI_Transmit(&SpiHandle, (uint8_t*) &Value, 1, SpixTimeout);
 8001046:	4b09      	ldr	r3, [pc, #36]	; (800106c <SPIx_Write+0x28>)
{
 8001048:	f8ad 0006 	strh.w	r0, [sp, #6]
  status = HAL_SPI_Transmit(&SpiHandle, (uint8_t*) &Value, 1, SpixTimeout);
 800104c:	681b      	ldr	r3, [r3, #0]
 800104e:	4808      	ldr	r0, [pc, #32]	; (8001070 <SPIx_Write+0x2c>)
 8001050:	2201      	movs	r2, #1
 8001052:	f10d 0106 	add.w	r1, sp, #6
 8001056:	f002 fb3e 	bl	80036d6 <HAL_SPI_Transmit>
  if(status != HAL_OK)
 800105a:	b120      	cbz	r0, 8001066 <SPIx_Write+0x22>
  HAL_SPI_DeInit(&SpiHandle);
 800105c:	4804      	ldr	r0, [pc, #16]	; (8001070 <SPIx_Write+0x2c>)
 800105e:	f002 fb24 	bl	80036aa <HAL_SPI_DeInit>
  SPIx_Init();
 8001062:	f7ff ffa1 	bl	8000fa8 <SPIx_Init>
}
 8001066:	b003      	add	sp, #12
 8001068:	f85d fb04 	ldr.w	pc, [sp], #4
 800106c:	20000060 	.word	0x20000060
 8001070:	20000148 	.word	0x20000148

08001074 <I2Cx_Init>:
{
 8001074:	b570      	push	{r4, r5, r6, lr}
  if(HAL_I2C_GetState(&I2cHandle) == HAL_I2C_STATE_RESET)
 8001076:	4e35      	ldr	r6, [pc, #212]	; (800114c <I2Cx_Init+0xd8>)
{
 8001078:	b088      	sub	sp, #32
  if(HAL_I2C_GetState(&I2cHandle) == HAL_I2C_STATE_RESET)
 800107a:	f106 0058 	add.w	r0, r6, #88	; 0x58
 800107e:	f001 fb09 	bl	8002694 <HAL_I2C_GetState>
 8001082:	4604      	mov	r4, r0
 8001084:	2800      	cmp	r0, #0
 8001086:	d15f      	bne.n	8001148 <I2Cx_Init+0xd4>
    I2cHandle.Init.ClockSpeed       = BSP_I2C_SPEED;
 8001088:	4a31      	ldr	r2, [pc, #196]	; (8001150 <I2Cx_Init+0xdc>)
 800108a:	4b32      	ldr	r3, [pc, #200]	; (8001154 <I2Cx_Init+0xe0>)
    DISCOVERY_I2Cx_SDA_GPIO_CLK_ENABLE();
 800108c:	4d32      	ldr	r5, [pc, #200]	; (8001158 <I2Cx_Init+0xe4>)
 800108e:	9000      	str	r0, [sp, #0]
    I2cHandle.Init.ClockSpeed       = BSP_I2C_SPEED;
 8001090:	e9c6 2316 	strd	r2, r3, [r6, #88]	; 0x58
    I2cHandle.Init.AddressingMode   = I2C_ADDRESSINGMODE_7BIT;
 8001094:	f44f 4380 	mov.w	r3, #16384	; 0x4000
    I2cHandle.Init.OwnAddress1      = 0;
 8001098:	e9c6 0018 	strd	r0, r0, [r6, #96]	; 0x60
    I2cHandle.Init.DualAddressMode  = I2C_DUALADDRESS_DISABLED;
 800109c:	e9c6 301a 	strd	r3, r0, [r6, #104]	; 0x68
    I2cHandle.Init.GeneralCallMode  = I2C_GENERALCALL_DISABLED;
 80010a0:	e9c6 001c 	strd	r0, r0, [r6, #112]	; 0x70
    I2cHandle.Init.NoStretchMode    = I2C_NOSTRETCH_DISABLED;  
 80010a4:	67b0      	str	r0, [r6, #120]	; 0x78
    DISCOVERY_I2Cx_SDA_GPIO_CLK_ENABLE();
 80010a6:	6b2b      	ldr	r3, [r5, #48]	; 0x30
 80010a8:	f043 0304 	orr.w	r3, r3, #4
 80010ac:	632b      	str	r3, [r5, #48]	; 0x30
 80010ae:	6b2b      	ldr	r3, [r5, #48]	; 0x30
 80010b0:	f003 0304 	and.w	r3, r3, #4
 80010b4:	9300      	str	r3, [sp, #0]
 80010b6:	9b00      	ldr	r3, [sp, #0]
    DISCOVERY_I2Cx_SCL_GPIO_CLK_ENABLE();
 80010b8:	9001      	str	r0, [sp, #4]
 80010ba:	6b2b      	ldr	r3, [r5, #48]	; 0x30
 80010bc:	f043 0301 	orr.w	r3, r3, #1
 80010c0:	632b      	str	r3, [r5, #48]	; 0x30
 80010c2:	6b2b      	ldr	r3, [r5, #48]	; 0x30
    GPIO_InitStruct.Pull      = GPIO_NOPULL;
 80010c4:	9005      	str	r0, [sp, #20]
    DISCOVERY_I2Cx_SCL_GPIO_CLK_ENABLE();
 80010c6:	f003 0301 	and.w	r3, r3, #1
 80010ca:	9301      	str	r3, [sp, #4]
 80010cc:	9b01      	ldr	r3, [sp, #4]
    GPIO_InitStruct.Mode      = GPIO_MODE_AF_OD;
 80010ce:	f44f 7180 	mov.w	r1, #256	; 0x100
 80010d2:	2312      	movs	r3, #18
 80010d4:	e9cd 1303 	strd	r1, r3, [sp, #12]
    GPIO_InitStruct.Alternate = DISCOVERY_I2Cx_SCL_SDA_AF;
 80010d8:	2002      	movs	r0, #2
 80010da:	2304      	movs	r3, #4
 80010dc:	e9cd 0306 	strd	r0, r3, [sp, #24]
    HAL_GPIO_Init(DISCOVERY_I2Cx_SCL_GPIO_PORT, &GPIO_InitStruct);
 80010e0:	a903      	add	r1, sp, #12
 80010e2:	481e      	ldr	r0, [pc, #120]	; (800115c <I2Cx_Init+0xe8>)
 80010e4:	f000 fd98 	bl	8001c18 <HAL_GPIO_Init>
    GPIO_InitStruct.Pin = DISCOVERY_I2Cx_SDA_PIN;
 80010e8:	f44f 7300 	mov.w	r3, #512	; 0x200
    HAL_GPIO_Init(DISCOVERY_I2Cx_SDA_GPIO_PORT, &GPIO_InitStruct);
 80010ec:	a903      	add	r1, sp, #12
 80010ee:	481c      	ldr	r0, [pc, #112]	; (8001160 <I2Cx_Init+0xec>)
    GPIO_InitStruct.Pin = DISCOVERY_I2Cx_SDA_PIN;
 80010f0:	9303      	str	r3, [sp, #12]
    HAL_GPIO_Init(DISCOVERY_I2Cx_SDA_GPIO_PORT, &GPIO_InitStruct);
 80010f2:	f000 fd91 	bl	8001c18 <HAL_GPIO_Init>
    DISCOVERY_I2Cx_CLOCK_ENABLE();
 80010f6:	9402      	str	r4, [sp, #8]
 80010f8:	6c2b      	ldr	r3, [r5, #64]	; 0x40
 80010fa:	f443 0300 	orr.w	r3, r3, #8388608	; 0x800000
 80010fe:	642b      	str	r3, [r5, #64]	; 0x40
 8001100:	6c2b      	ldr	r3, [r5, #64]	; 0x40
 8001102:	f403 0300 	and.w	r3, r3, #8388608	; 0x800000
 8001106:	9302      	str	r3, [sp, #8]
 8001108:	9b02      	ldr	r3, [sp, #8]
    DISCOVERY_I2Cx_FORCE_RESET();
 800110a:	6a2b      	ldr	r3, [r5, #32]
 800110c:	f443 0300 	orr.w	r3, r3, #8388608	; 0x800000
 8001110:	622b      	str	r3, [r5, #32]
    DISCOVERY_I2Cx_RELEASE_RESET(); 
 8001112:	6a2b      	ldr	r3, [r5, #32]
 8001114:	f423 0300 	bic.w	r3, r3, #8388608	; 0x800000
 8001118:	622b      	str	r3, [r5, #32]
    HAL_NVIC_SetPriority(DISCOVERY_I2Cx_EV_IRQn, 0x0F, 0);
 800111a:	4622      	mov	r2, r4
 800111c:	210f      	movs	r1, #15
 800111e:	2048      	movs	r0, #72	; 0x48
 8001120:	f000 fc3a 	bl	8001998 <HAL_NVIC_SetPriority>
    HAL_NVIC_EnableIRQ(DISCOVERY_I2Cx_EV_IRQn);
 8001124:	2048      	movs	r0, #72	; 0x48
 8001126:	f000 fc69 	bl	80019fc <HAL_NVIC_EnableIRQ>
    HAL_NVIC_SetPriority(DISCOVERY_I2Cx_ER_IRQn, 0x0F, 0);
 800112a:	4622      	mov	r2, r4
 800112c:	210f      	movs	r1, #15
 800112e:	2049      	movs	r0, #73	; 0x49
 8001130:	f000 fc32 	bl	8001998 <HAL_NVIC_SetPriority>
    HAL_NVIC_EnableIRQ(DISCOVERY_I2Cx_ER_IRQn);  
 8001134:	2049      	movs	r0, #73	; 0x49
 8001136:	f000 fc61 	bl	80019fc <HAL_NVIC_EnableIRQ>
    HAL_I2C_Init(&I2cHandle);
 800113a:	f106 0058 	add.w	r0, r6, #88	; 0x58
}
 800113e:	b008      	add	sp, #32
 8001140:	e8bd 4070 	ldmia.w	sp!, {r4, r5, r6, lr}
    HAL_I2C_Init(&I2cHandle);
 8001144:	f001 b84c 	b.w	80021e0 <HAL_I2C_Init>
}
 8001148:	b008      	add	sp, #32
 800114a:	bd70      	pop	{r4, r5, r6, pc}
 800114c:	20000148 	.word	0x20000148
 8001150:	40005c00 	.word	0x40005c00
 8001154:	000186a0 	.word	0x000186a0
 8001158:	40023800 	.word	0x40023800
 800115c:	40020000 	.word	0x40020000
 8001160:	40020800 	.word	0x40020800

08001164 <I2Cx_Error>:
{
 8001164:	b508      	push	{r3, lr}
  HAL_I2C_DeInit(&I2cHandle);
 8001166:	4803      	ldr	r0, [pc, #12]	; (8001174 <I2Cx_Error+0x10>)
 8001168:	f001 f8e3 	bl	8002332 <HAL_I2C_DeInit>
}
 800116c:	e8bd 4008 	ldmia.w	sp!, {r3, lr}
  I2Cx_Init();
 8001170:	f7ff bf80 	b.w	8001074 <I2Cx_Init>
 8001174:	200001a0 	.word	0x200001a0

08001178 <BSP_LED_Init>:
{
 8001178:	b530      	push	{r4, r5, lr}
 800117a:	b089      	sub	sp, #36	; 0x24
  LEDx_GPIO_CLK_ENABLE(Led);
 800117c:	bb08      	cbnz	r0, 80011c2 <BSP_LED_Init+0x4a>
 800117e:	4b18      	ldr	r3, [pc, #96]	; (80011e0 <BSP_LED_Init+0x68>)
 8001180:	9001      	str	r0, [sp, #4]
 8001182:	6b1a      	ldr	r2, [r3, #48]	; 0x30
 8001184:	f042 0240 	orr.w	r2, r2, #64	; 0x40
 8001188:	631a      	str	r2, [r3, #48]	; 0x30
 800118a:	6b1b      	ldr	r3, [r3, #48]	; 0x30
 800118c:	f003 0340 	and.w	r3, r3, #64	; 0x40
 8001190:	9301      	str	r3, [sp, #4]
 8001192:	9b01      	ldr	r3, [sp, #4]
  HAL_GPIO_Init(GPIO_PORT[Led], &GPIO_InitStruct);
 8001194:	4c13      	ldr	r4, [pc, #76]	; (80011e4 <BSP_LED_Init+0x6c>)
  GPIO_InitStruct.Pin = GPIO_PIN[Led];
 8001196:	4b14      	ldr	r3, [pc, #80]	; (80011e8 <BSP_LED_Init+0x70>)
  HAL_GPIO_Init(GPIO_PORT[Led], &GPIO_InitStruct);
 8001198:	eb04 0480 	add.w	r4, r4, r0, lsl #2
  GPIO_InitStruct.Pin = GPIO_PIN[Led];
 800119c:	f833 5010 	ldrh.w	r5, [r3, r0, lsl #1]
  HAL_GPIO_Init(GPIO_PORT[Led], &GPIO_InitStruct);
 80011a0:	6860      	ldr	r0, [r4, #4]
  GPIO_InitStruct.Pin = GPIO_PIN[Led];
 80011a2:	9503      	str	r5, [sp, #12]
  GPIO_InitStruct.Mode = GPIO_MODE_OUTPUT_PP;
 80011a4:	2301      	movs	r3, #1
  GPIO_InitStruct.Pull = GPIO_PULLUP;
 80011a6:	e9cd 3304 	strd	r3, r3, [sp, #16]
  HAL_GPIO_Init(GPIO_PORT[Led], &GPIO_InitStruct);
 80011aa:	a903      	add	r1, sp, #12
  GPIO_InitStruct.Speed = GPIO_SPEED_FAST;
 80011ac:	2302      	movs	r3, #2
 80011ae:	9306      	str	r3, [sp, #24]
  HAL_GPIO_Init(GPIO_PORT[Led], &GPIO_InitStruct);
 80011b0:	f000 fd32 	bl	8001c18 <HAL_GPIO_Init>
  HAL_GPIO_WritePin(GPIO_PORT[Led], GPIO_PIN[Led], GPIO_PIN_RESET); 
 80011b4:	6860      	ldr	r0, [r4, #4]
 80011b6:	2200      	movs	r2, #0
 80011b8:	4629      	mov	r1, r5
 80011ba:	f000 fe19 	bl	8001df0 <HAL_GPIO_WritePin>
}
 80011be:	b009      	add	sp, #36	; 0x24
 80011c0:	bd30      	pop	{r4, r5, pc}
  LEDx_GPIO_CLK_ENABLE(Led);
 80011c2:	2801      	cmp	r0, #1
 80011c4:	d1e6      	bne.n	8001194 <BSP_LED_Init+0x1c>
 80011c6:	2300      	movs	r3, #0
 80011c8:	9302      	str	r3, [sp, #8]
 80011ca:	4b05      	ldr	r3, [pc, #20]	; (80011e0 <BSP_LED_Init+0x68>)
 80011cc:	6b1a      	ldr	r2, [r3, #48]	; 0x30
 80011ce:	f042 0240 	orr.w	r2, r2, #64	; 0x40
 80011d2:	631a      	str	r2, [r3, #48]	; 0x30
 80011d4:	6b1b      	ldr	r3, [r3, #48]	; 0x30
 80011d6:	f003 0340 	and.w	r3, r3, #64	; 0x40
 80011da:	9302      	str	r3, [sp, #8]
 80011dc:	9b02      	ldr	r3, [sp, #8]
 80011de:	e7d9      	b.n	8001194 <BSP_LED_Init+0x1c>
 80011e0:	40023800 	.word	0x40023800
 80011e4:	20000060 	.word	0x20000060
 80011e8:	0800b48c 	.word	0x0800b48c

080011ec <BSP_LED_Off>:
  HAL_GPIO_WritePin(GPIO_PORT[Led], GPIO_PIN[Led], GPIO_PIN_RESET); 
 80011ec:	4b04      	ldr	r3, [pc, #16]	; (8001200 <BSP_LED_Off+0x14>)
 80011ee:	4905      	ldr	r1, [pc, #20]	; (8001204 <BSP_LED_Off+0x18>)
 80011f0:	eb03 0380 	add.w	r3, r3, r0, lsl #2
 80011f4:	f831 1010 	ldrh.w	r1, [r1, r0, lsl #1]
 80011f8:	6858      	ldr	r0, [r3, #4]
 80011fa:	2200      	movs	r2, #0
 80011fc:	f000 bdf8 	b.w	8001df0 <HAL_GPIO_WritePin>
 8001200:	20000060 	.word	0x20000060
 8001204:	0800b48c 	.word	0x0800b48c

08001208 <BSP_LED_Toggle>:
  HAL_GPIO_TogglePin(GPIO_PORT[Led], GPIO_PIN[Led]);
 8001208:	4b04      	ldr	r3, [pc, #16]	; (800121c <BSP_LED_Toggle+0x14>)
 800120a:	4a05      	ldr	r2, [pc, #20]	; (8001220 <BSP_LED_Toggle+0x18>)
 800120c:	eb03 0380 	add.w	r3, r3, r0, lsl #2
 8001210:	f832 1010 	ldrh.w	r1, [r2, r0, lsl #1]
 8001214:	6858      	ldr	r0, [r3, #4]
 8001216:	f000 bdf0 	b.w	8001dfa <HAL_GPIO_TogglePin>
 800121a:	bf00      	nop
 800121c:	20000060 	.word	0x20000060
 8001220:	0800b48c 	.word	0x0800b48c

08001224 <BSP_PB_Init>:
{
 8001224:	b510      	push	{r4, lr}
 8001226:	b086      	sub	sp, #24
  BUTTONx_GPIO_CLK_ENABLE(Button);
 8001228:	b950      	cbnz	r0, 8001240 <BSP_PB_Init+0x1c>
 800122a:	4b19      	ldr	r3, [pc, #100]	; (8001290 <BSP_PB_Init+0x6c>)
 800122c:	9000      	str	r0, [sp, #0]
 800122e:	6b1a      	ldr	r2, [r3, #48]	; 0x30
 8001230:	f042 0201 	orr.w	r2, r2, #1
 8001234:	631a      	str	r2, [r3, #48]	; 0x30
 8001236:	6b1b      	ldr	r3, [r3, #48]	; 0x30
 8001238:	f003 0301 	and.w	r3, r3, #1
 800123c:	9300      	str	r3, [sp, #0]
 800123e:	9b00      	ldr	r3, [sp, #0]
  if (ButtonMode == BUTTON_MODE_GPIO)
 8001240:	b971      	cbnz	r1, 8001260 <BSP_PB_Init+0x3c>
    GPIO_InitStruct.Pin = BUTTON_PIN[Button];
 8001242:	2301      	movs	r3, #1
    GPIO_InitStruct.Mode = GPIO_MODE_INPUT;
 8001244:	e9cd 3101 	strd	r3, r1, [sp, #4]
    GPIO_InitStruct.Pull = GPIO_PULLDOWN;
 8001248:	2302      	movs	r3, #2
    GPIO_InitStruct.Speed = GPIO_SPEED_FAST;
 800124a:	e9cd 3303 	strd	r3, r3, [sp, #12]
    HAL_GPIO_Init(BUTTON_PORT[Button], &GPIO_InitStruct);
 800124e:	4b11      	ldr	r3, [pc, #68]	; (8001294 <BSP_PB_Init+0x70>)
 8001250:	eb03 0080 	add.w	r0, r3, r0, lsl #2
 8001254:	a901      	add	r1, sp, #4
 8001256:	68c0      	ldr	r0, [r0, #12]
 8001258:	f000 fcde 	bl	8001c18 <HAL_GPIO_Init>
}
 800125c:	b006      	add	sp, #24
 800125e:	bd10      	pop	{r4, pc}
  if (ButtonMode == BUTTON_MODE_EXTI)
 8001260:	2901      	cmp	r1, #1
 8001262:	d1fb      	bne.n	800125c <BSP_PB_Init+0x38>
    GPIO_InitStruct.Mode = GPIO_MODE_IT_RISING; 
 8001264:	2400      	movs	r4, #0
 8001266:	f44f 1388 	mov.w	r3, #1114112	; 0x110000
 800126a:	e9cd 3402 	strd	r3, r4, [sp, #8]
    HAL_GPIO_Init(BUTTON_PORT[Button], &GPIO_InitStruct);
 800126e:	4b09      	ldr	r3, [pc, #36]	; (8001294 <BSP_PB_Init+0x70>)
    GPIO_InitStruct.Pin = BUTTON_PIN[Button];
 8001270:	9101      	str	r1, [sp, #4]
    HAL_GPIO_Init(BUTTON_PORT[Button], &GPIO_InitStruct);
 8001272:	eb03 0080 	add.w	r0, r3, r0, lsl #2
 8001276:	a901      	add	r1, sp, #4
 8001278:	68c0      	ldr	r0, [r0, #12]
 800127a:	f000 fccd 	bl	8001c18 <HAL_GPIO_Init>
    HAL_NVIC_SetPriority((IRQn_Type)(BUTTON_IRQn[Button]), 0x0F, 0x00);
 800127e:	4622      	mov	r2, r4
 8001280:	210f      	movs	r1, #15
 8001282:	2006      	movs	r0, #6
 8001284:	f000 fb88 	bl	8001998 <HAL_NVIC_SetPriority>
    HAL_NVIC_EnableIRQ((IRQn_Type)(BUTTON_IRQn[Button]));
 8001288:	2006      	movs	r0, #6
 800128a:	f000 fbb7 	bl	80019fc <HAL_NVIC_EnableIRQ>
}
 800128e:	e7e5      	b.n	800125c <BSP_PB_Init+0x38>
 8001290:	40023800 	.word	0x40023800
 8001294:	20000060 	.word	0x20000060

08001298 <BSP_PB_GetState>:
{
 8001298:	b508      	push	{r3, lr}
  return HAL_GPIO_ReadPin(BUTTON_PORT[Button], BUTTON_PIN[Button]);
 800129a:	4b04      	ldr	r3, [pc, #16]	; (80012ac <BSP_PB_GetState+0x14>)
 800129c:	eb03 0080 	add.w	r0, r3, r0, lsl #2
 80012a0:	2101      	movs	r1, #1
 80012a2:	68c0      	ldr	r0, [r0, #12]
 80012a4:	f000 fd9e 	bl	8001de4 <HAL_GPIO_ReadPin>
}
 80012a8:	bd08      	pop	{r3, pc}
 80012aa:	bf00      	nop
 80012ac:	20000060 	.word	0x20000060

080012b0 <LCD_IO_Init>:

/**
  * @brief  Configures the LCD_SPI interface.
  */
void LCD_IO_Init(void)
{
 80012b0:	b5f0      	push	{r4, r5, r6, r7, lr}
  GPIO_InitTypeDef GPIO_InitStructure;
  
  if(Is_LCD_IO_Initialized == 0)
 80012b2:	4b2a      	ldr	r3, [pc, #168]	; (800135c <LCD_IO_Init+0xac>)
 80012b4:	f893 50ac 	ldrb.w	r5, [r3, #172]	; 0xac
{
 80012b8:	b089      	sub	sp, #36	; 0x24
  if(Is_LCD_IO_Initialized == 0)
 80012ba:	2d00      	cmp	r5, #0
 80012bc:	d14b      	bne.n	8001356 <LCD_IO_Init+0xa6>
  {
    Is_LCD_IO_Initialized = 1; 
    
    /* Configure NCS in Output Push-Pull mode */
    LCD_WRX_GPIO_CLK_ENABLE();
 80012be:	4c28      	ldr	r4, [pc, #160]	; (8001360 <LCD_IO_Init+0xb0>)
 80012c0:	9500      	str	r5, [sp, #0]
    Is_LCD_IO_Initialized = 1; 
 80012c2:	2601      	movs	r6, #1
 80012c4:	f883 60ac 	strb.w	r6, [r3, #172]	; 0xac
    LCD_WRX_GPIO_CLK_ENABLE();
 80012c8:	6b23      	ldr	r3, [r4, #48]	; 0x30
    GPIO_InitStructure.Pin     = LCD_WRX_PIN;
    GPIO_InitStructure.Mode    = GPIO_MODE_OUTPUT_PP;
    GPIO_InitStructure.Pull    = GPIO_NOPULL;
    GPIO_InitStructure.Speed   = GPIO_SPEED_FAST;
    HAL_GPIO_Init(LCD_WRX_GPIO_PORT, &GPIO_InitStructure);
 80012ca:	4826      	ldr	r0, [pc, #152]	; (8001364 <LCD_IO_Init+0xb4>)
    LCD_WRX_GPIO_CLK_ENABLE();
 80012cc:	f043 0308 	orr.w	r3, r3, #8
 80012d0:	6323      	str	r3, [r4, #48]	; 0x30
 80012d2:	6b23      	ldr	r3, [r4, #48]	; 0x30
    GPIO_InitStructure.Pull    = GPIO_NOPULL;
 80012d4:	9505      	str	r5, [sp, #20]
    LCD_WRX_GPIO_CLK_ENABLE();
 80012d6:	f003 0308 	and.w	r3, r3, #8
 80012da:	9300      	str	r3, [sp, #0]
    GPIO_InitStructure.Speed   = GPIO_SPEED_FAST;
 80012dc:	2702      	movs	r7, #2
    LCD_WRX_GPIO_CLK_ENABLE();
 80012de:	9b00      	ldr	r3, [sp, #0]
    GPIO_InitStructure.Speed   = GPIO_SPEED_FAST;
 80012e0:	9706      	str	r7, [sp, #24]
    GPIO_InitStructure.Pin     = LCD_WRX_PIN;
 80012e2:	f44f 5300 	mov.w	r3, #8192	; 0x2000
    HAL_GPIO_Init(LCD_WRX_GPIO_PORT, &GPIO_InitStructure);
 80012e6:	a903      	add	r1, sp, #12
    GPIO_InitStructure.Mode    = GPIO_MODE_OUTPUT_PP;
 80012e8:	e9cd 3603 	strd	r3, r6, [sp, #12]
    HAL_GPIO_Init(LCD_WRX_GPIO_PORT, &GPIO_InitStructure);
 80012ec:	f000 fc94 	bl	8001c18 <HAL_GPIO_Init>
    
    LCD_RDX_GPIO_CLK_ENABLE();
 80012f0:	9501      	str	r5, [sp, #4]
 80012f2:	6b23      	ldr	r3, [r4, #48]	; 0x30
    GPIO_InitStructure.Pin     = LCD_RDX_PIN;
    GPIO_InitStructure.Mode    = GPIO_MODE_OUTPUT_PP;
    GPIO_InitStructure.Pull    = GPIO_NOPULL;
    GPIO_InitStructure.Speed   = GPIO_SPEED_FAST;
    HAL_GPIO_Init(LCD_RDX_GPIO_PORT, &GPIO_InitStructure);
 80012f4:	481b      	ldr	r0, [pc, #108]	; (8001364 <LCD_IO_Init+0xb4>)
    LCD_RDX_GPIO_CLK_ENABLE();
 80012f6:	f043 0308 	orr.w	r3, r3, #8
 80012fa:	6323      	str	r3, [r4, #48]	; 0x30
 80012fc:	6b23      	ldr	r3, [r4, #48]	; 0x30
 80012fe:	f003 0308 	and.w	r3, r3, #8
 8001302:	9301      	str	r3, [sp, #4]
 8001304:	9b01      	ldr	r3, [sp, #4]
    HAL_GPIO_Init(LCD_RDX_GPIO_PORT, &GPIO_InitStructure);
 8001306:	a903      	add	r1, sp, #12
    GPIO_InitStructure.Pin     = LCD_RDX_PIN;
 8001308:	f44f 5380 	mov.w	r3, #4096	; 0x1000
    GPIO_InitStructure.Mode    = GPIO_MODE_OUTPUT_PP;
 800130c:	e9cd 3603 	strd	r3, r6, [sp, #12]
    GPIO_InitStructure.Speed   = GPIO_SPEED_FAST;
 8001310:	e9cd 5705 	strd	r5, r7, [sp, #20]
    HAL_GPIO_Init(LCD_RDX_GPIO_PORT, &GPIO_InitStructure);
 8001314:	f000 fc80 	bl	8001c18 <HAL_GPIO_Init>
    
    /* Configure the LCD Control pins ----------------------------------------*/
    LCD_NCS_GPIO_CLK_ENABLE();
 8001318:	9502      	str	r5, [sp, #8]
 800131a:	6b23      	ldr	r3, [r4, #48]	; 0x30
    /* Configure NCS in Output Push-Pull mode */
    GPIO_InitStructure.Pin     = LCD_NCS_PIN;
    GPIO_InitStructure.Mode    = GPIO_MODE_OUTPUT_PP;
    GPIO_InitStructure.Pull    = GPIO_NOPULL;
    GPIO_InitStructure.Speed   = GPIO_SPEED_FAST;
    HAL_GPIO_Init(LCD_NCS_GPIO_PORT, &GPIO_InitStructure);
 800131c:	4812      	ldr	r0, [pc, #72]	; (8001368 <LCD_IO_Init+0xb8>)
    LCD_NCS_GPIO_CLK_ENABLE();
 800131e:	f043 0304 	orr.w	r3, r3, #4
 8001322:	6323      	str	r3, [r4, #48]	; 0x30
 8001324:	6b23      	ldr	r3, [r4, #48]	; 0x30
 8001326:	f003 0304 	and.w	r3, r3, #4
    GPIO_InitStructure.Pin     = LCD_NCS_PIN;
 800132a:	2404      	movs	r4, #4
    LCD_NCS_GPIO_CLK_ENABLE();
 800132c:	9302      	str	r3, [sp, #8]
    HAL_GPIO_Init(LCD_NCS_GPIO_PORT, &GPIO_InitStructure);
 800132e:	a903      	add	r1, sp, #12
    LCD_NCS_GPIO_CLK_ENABLE();
 8001330:	9b02      	ldr	r3, [sp, #8]
    GPIO_InitStructure.Mode    = GPIO_MODE_OUTPUT_PP;
 8001332:	e9cd 4603 	strd	r4, r6, [sp, #12]
    GPIO_InitStructure.Speed   = GPIO_SPEED_FAST;
 8001336:	e9cd 5705 	strd	r5, r7, [sp, #20]
    HAL_GPIO_Init(LCD_NCS_GPIO_PORT, &GPIO_InitStructure);
 800133a:	f000 fc6d 	bl	8001c18 <HAL_GPIO_Init>
    
    /* Set or Reset the control line */
    LCD_CS_LOW();
 800133e:	480a      	ldr	r0, [pc, #40]	; (8001368 <LCD_IO_Init+0xb8>)
 8001340:	462a      	mov	r2, r5
 8001342:	4621      	mov	r1, r4
 8001344:	f000 fd54 	bl	8001df0 <HAL_GPIO_WritePin>
    LCD_CS_HIGH();
 8001348:	4807      	ldr	r0, [pc, #28]	; (8001368 <LCD_IO_Init+0xb8>)
 800134a:	4632      	mov	r2, r6
 800134c:	4621      	mov	r1, r4
 800134e:	f000 fd4f 	bl	8001df0 <HAL_GPIO_WritePin>
    
    SPIx_Init();
 8001352:	f7ff fe29 	bl	8000fa8 <SPIx_Init>
  }
}
 8001356:	b009      	add	sp, #36	; 0x24
 8001358:	bdf0      	pop	{r4, r5, r6, r7, pc}
 800135a:	bf00      	nop
 800135c:	20000148 	.word	0x20000148
 8001360:	40023800 	.word	0x40023800
 8001364:	40020c00 	.word	0x40020c00
 8001368:	40020800 	.word	0x40020800

0800136c <LCD_IO_WriteData>:

/**
  * @brief  Writes register value.
  */
void LCD_IO_WriteData(uint16_t RegValue) 
{
 800136c:	b538      	push	{r3, r4, r5, lr}
  /* Set WRX to send data */
  LCD_WRX_HIGH();
  
  /* Reset LCD control line(/CS) and Send data */  
  LCD_CS_LOW();
 800136e:	4d0b      	ldr	r5, [pc, #44]	; (800139c <LCD_IO_WriteData+0x30>)
{
 8001370:	4604      	mov	r4, r0
  LCD_WRX_HIGH();
 8001372:	2201      	movs	r2, #1
 8001374:	480a      	ldr	r0, [pc, #40]	; (80013a0 <LCD_IO_WriteData+0x34>)
 8001376:	f44f 5100 	mov.w	r1, #8192	; 0x2000
 800137a:	f000 fd39 	bl	8001df0 <HAL_GPIO_WritePin>
  LCD_CS_LOW();
 800137e:	2200      	movs	r2, #0
 8001380:	2104      	movs	r1, #4
 8001382:	4628      	mov	r0, r5
 8001384:	f000 fd34 	bl	8001df0 <HAL_GPIO_WritePin>
  SPIx_Write(RegValue);
 8001388:	4620      	mov	r0, r4
 800138a:	f7ff fe5b 	bl	8001044 <SPIx_Write>
  
  /* Deselect: Chip Select high */
  LCD_CS_HIGH();
 800138e:	4628      	mov	r0, r5
 8001390:	2201      	movs	r2, #1
}
 8001392:	e8bd 4038 	ldmia.w	sp!, {r3, r4, r5, lr}
  LCD_CS_HIGH();
 8001396:	2104      	movs	r1, #4
 8001398:	f000 bd2a 	b.w	8001df0 <HAL_GPIO_WritePin>
 800139c:	40020800 	.word	0x40020800
 80013a0:	40020c00 	.word	0x40020c00

080013a4 <LCD_IO_WriteReg>:

/**
  * @brief  Writes register address.
  */
void LCD_IO_WriteReg(uint8_t Reg) 
{
 80013a4:	b538      	push	{r3, r4, r5, lr}
  /* Reset WRX to send command */
  LCD_WRX_LOW();
  
  /* Reset LCD control line(/CS) and Send command */
  LCD_CS_LOW();
 80013a6:	4d0b      	ldr	r5, [pc, #44]	; (80013d4 <LCD_IO_WriteReg+0x30>)
{
 80013a8:	4604      	mov	r4, r0
  LCD_WRX_LOW();
 80013aa:	2200      	movs	r2, #0
 80013ac:	480a      	ldr	r0, [pc, #40]	; (80013d8 <LCD_IO_WriteReg+0x34>)
 80013ae:	f44f 5100 	mov.w	r1, #8192	; 0x2000
 80013b2:	f000 fd1d 	bl	8001df0 <HAL_GPIO_WritePin>
  LCD_CS_LOW();
 80013b6:	2200      	movs	r2, #0
 80013b8:	2104      	movs	r1, #4
 80013ba:	4628      	mov	r0, r5
 80013bc:	f000 fd18 	bl	8001df0 <HAL_GPIO_WritePin>
  SPIx_Write(Reg);
 80013c0:	4620      	mov	r0, r4
 80013c2:	f7ff fe3f 	bl	8001044 <SPIx_Write>
  
  /* Deselect: Chip Select high */
  LCD_CS_HIGH();
 80013c6:	4628      	mov	r0, r5
 80013c8:	2201      	movs	r2, #1
}
 80013ca:	e8bd 4038 	ldmia.w	sp!, {r3, r4, r5, lr}
  LCD_CS_HIGH();
 80013ce:	2104      	movs	r1, #4
 80013d0:	f000 bd0e 	b.w	8001df0 <HAL_GPIO_WritePin>
 80013d4:	40020800 	.word	0x40020800
 80013d8:	40020c00 	.word	0x40020c00

080013dc <LCD_Delay>:
  * @brief  Wait for loop in ms.
  * @param  Delay in ms.
  */
void LCD_Delay(uint32_t Delay)
{
  HAL_Delay(Delay);
 80013dc:	f000 bab6 	b.w	800194c <HAL_Delay>

080013e0 <IOE_Init>:
/**
  * @brief  IOE Low Level Initialization.
  */
void IOE_Init(void) 
{
  I2Cx_Init();
 80013e0:	f7ff be48 	b.w	8001074 <I2Cx_Init>

080013e4 <IOE_ITConfig>:

/**
  * @brief  IOE Low Level Interrupt configuration.
  */
void IOE_ITConfig(void)
{
 80013e4:	b510      	push	{r4, lr}
 80013e6:	b086      	sub	sp, #24
  STMPE811_INT_CLK_ENABLE();
 80013e8:	2400      	movs	r4, #0
 80013ea:	4b11      	ldr	r3, [pc, #68]	; (8001430 <IOE_ITConfig+0x4c>)
 80013ec:	9400      	str	r4, [sp, #0]
 80013ee:	6b1a      	ldr	r2, [r3, #48]	; 0x30
  HAL_GPIO_Init(STMPE811_INT_GPIO_PORT, &GPIO_InitStruct);
 80013f0:	4810      	ldr	r0, [pc, #64]	; (8001434 <IOE_ITConfig+0x50>)
  STMPE811_INT_CLK_ENABLE();
 80013f2:	f042 0201 	orr.w	r2, r2, #1
 80013f6:	631a      	str	r2, [r3, #48]	; 0x30
 80013f8:	6b1b      	ldr	r3, [r3, #48]	; 0x30
 80013fa:	f003 0301 	and.w	r3, r3, #1
 80013fe:	9300      	str	r3, [sp, #0]
 8001400:	9b00      	ldr	r3, [sp, #0]
  GPIO_InitStruct.Pin   = STMPE811_INT_PIN;
 8001402:	f44f 4300 	mov.w	r3, #32768	; 0x8000
 8001406:	9301      	str	r3, [sp, #4]
  GPIO_InitStruct.Pull  = GPIO_PULLUP;
 8001408:	2301      	movs	r3, #1
  GPIO_InitStruct.Speed = GPIO_SPEED_LOW;
 800140a:	e9cd 3403 	strd	r3, r4, [sp, #12]
  HAL_GPIO_Init(STMPE811_INT_GPIO_PORT, &GPIO_InitStruct);
 800140e:	a901      	add	r1, sp, #4
  GPIO_InitStruct.Mode  = GPIO_MODE_IT_FALLING;
 8001410:	f44f 1304 	mov.w	r3, #2162688	; 0x210000
 8001414:	9302      	str	r3, [sp, #8]
  HAL_GPIO_Init(STMPE811_INT_GPIO_PORT, &GPIO_InitStruct);
 8001416:	f000 fbff 	bl	8001c18 <HAL_GPIO_Init>
  HAL_NVIC_SetPriority((IRQn_Type)(STMPE811_INT_EXTI), 0x0F, 0x00);
 800141a:	4622      	mov	r2, r4
 800141c:	210f      	movs	r1, #15
 800141e:	2028      	movs	r0, #40	; 0x28
 8001420:	f000 faba 	bl	8001998 <HAL_NVIC_SetPriority>
  HAL_NVIC_EnableIRQ((IRQn_Type)(STMPE811_INT_EXTI));
 8001424:	2028      	movs	r0, #40	; 0x28
 8001426:	f000 fae9 	bl	80019fc <HAL_NVIC_EnableIRQ>
  I2Cx_ITConfig();
}
 800142a:	b006      	add	sp, #24
 800142c:	bd10      	pop	{r4, pc}
 800142e:	bf00      	nop
 8001430:	40023800 	.word	0x40023800
 8001434:	40020000 	.word	0x40020000

08001438 <IOE_Write>:
  * @param  Addr: I2C Address
  * @param  Reg: Reg Address 
  * @param  Value: Data to be written
  */
void IOE_Write(uint8_t Addr, uint8_t Reg, uint8_t Value)
{
 8001438:	b57f      	push	{r0, r1, r2, r3, r4, r5, r6, lr}
  status = HAL_I2C_Mem_Write(&I2cHandle, Addr, (uint16_t)Reg, I2C_MEMADD_SIZE_8BIT, &Value, 1, I2cxTimeout); 
 800143a:	4b0a      	ldr	r3, [pc, #40]	; (8001464 <IOE_Write+0x2c>)
 800143c:	f88d 2017 	strb.w	r2, [sp, #23]
 8001440:	691b      	ldr	r3, [r3, #16]
 8001442:	9302      	str	r3, [sp, #8]
 8001444:	f10d 0217 	add.w	r2, sp, #23
 8001448:	2301      	movs	r3, #1
 800144a:	9200      	str	r2, [sp, #0]
 800144c:	9301      	str	r3, [sp, #4]
 800144e:	460a      	mov	r2, r1
 8001450:	4601      	mov	r1, r0
 8001452:	4805      	ldr	r0, [pc, #20]	; (8001468 <IOE_Write+0x30>)
 8001454:	f000 ff86 	bl	8002364 <HAL_I2C_Mem_Write>
  if(status != HAL_OK)
 8001458:	b108      	cbz	r0, 800145e <IOE_Write+0x26>
    I2Cx_Error();
 800145a:	f7ff fe83 	bl	8001164 <I2Cx_Error>
  I2Cx_WriteData(Addr, Reg, Value);
}
 800145e:	b007      	add	sp, #28
 8001460:	f85d fb04 	ldr.w	pc, [sp], #4
 8001464:	20000060 	.word	0x20000060
 8001468:	200001a0 	.word	0x200001a0

0800146c <IOE_Read>:
  * @param  Addr: I2C Address
  * @param  Reg: Reg Address 
  * @retval The read data
  */
uint8_t IOE_Read(uint8_t Addr, uint8_t Reg)
{
 800146c:	b57f      	push	{r0, r1, r2, r3, r4, r5, r6, lr}
  uint8_t value = 0;
 800146e:	2300      	movs	r3, #0
 8001470:	f88d 3017 	strb.w	r3, [sp, #23]
  status = HAL_I2C_Mem_Read(&I2cHandle, Addr, Reg, I2C_MEMADD_SIZE_8BIT, &value, 1, I2cxTimeout);
 8001474:	4b0a      	ldr	r3, [pc, #40]	; (80014a0 <IOE_Read+0x34>)
 8001476:	691b      	ldr	r3, [r3, #16]
 8001478:	9302      	str	r3, [sp, #8]
{
 800147a:	460a      	mov	r2, r1
  status = HAL_I2C_Mem_Read(&I2cHandle, Addr, Reg, I2C_MEMADD_SIZE_8BIT, &value, 1, I2cxTimeout);
 800147c:	2301      	movs	r3, #1
 800147e:	f10d 0117 	add.w	r1, sp, #23
 8001482:	9100      	str	r1, [sp, #0]
 8001484:	9301      	str	r3, [sp, #4]
 8001486:	4601      	mov	r1, r0
 8001488:	4806      	ldr	r0, [pc, #24]	; (80014a4 <IOE_Read+0x38>)
 800148a:	f000 fffb 	bl	8002484 <HAL_I2C_Mem_Read>
  if(status != HAL_OK)
 800148e:	b108      	cbz	r0, 8001494 <IOE_Read+0x28>
    I2Cx_Error();
 8001490:	f7ff fe68 	bl	8001164 <I2Cx_Error>
  return I2Cx_ReadData(Addr, Reg);
}
 8001494:	f89d 0017 	ldrb.w	r0, [sp, #23]
 8001498:	b007      	add	sp, #28
 800149a:	f85d fb04 	ldr.w	pc, [sp], #4
 800149e:	bf00      	nop
 80014a0:	20000060 	.word	0x20000060
 80014a4:	200001a0 	.word	0x200001a0

080014a8 <IOE_ReadMultiple>:
  * @param  pBuffer: pointer to data buffer
  * @param  Length: length of the data
  * @retval 0 if no problems to read multiple data
  */
uint16_t IOE_ReadMultiple(uint8_t Addr, uint8_t Reg, uint8_t *pBuffer, uint16_t Length)
{
 80014a8:	b51f      	push	{r0, r1, r2, r3, r4, lr}
  status = HAL_I2C_Mem_Read(&I2cHandle, Addr, (uint16_t)Reg, I2C_MEMADD_SIZE_8BIT, pBuffer, Length, I2cxTimeout);
 80014aa:	4c09      	ldr	r4, [pc, #36]	; (80014d0 <IOE_ReadMultiple+0x28>)
 80014ac:	6924      	ldr	r4, [r4, #16]
 80014ae:	9200      	str	r2, [sp, #0]
 80014b0:	e9cd 3401 	strd	r3, r4, [sp, #4]
 80014b4:	460a      	mov	r2, r1
 80014b6:	2301      	movs	r3, #1
 80014b8:	4601      	mov	r1, r0
 80014ba:	4806      	ldr	r0, [pc, #24]	; (80014d4 <IOE_ReadMultiple+0x2c>)
 80014bc:	f000 ffe2 	bl	8002484 <HAL_I2C_Mem_Read>
  if(status == HAL_OK)
 80014c0:	b110      	cbz	r0, 80014c8 <IOE_ReadMultiple+0x20>
    I2Cx_Error();
 80014c2:	f7ff fe4f 	bl	8001164 <I2Cx_Error>
    return 1;
 80014c6:	2001      	movs	r0, #1
 return I2Cx_ReadBuffer(Addr, Reg, pBuffer, Length);
}
 80014c8:	b280      	uxth	r0, r0
 80014ca:	b004      	add	sp, #16
 80014cc:	bd10      	pop	{r4, pc}
 80014ce:	bf00      	nop
 80014d0:	20000060 	.word	0x20000060
 80014d4:	200001a0 	.word	0x200001a0

080014d8 <IOE_Delay>:
 80014d8:	f000 ba38 	b.w	800194c <HAL_Delay>

080014dc <BSP_SDRAM_Initialization_sequence>:
/**
  * @brief  Programs the SDRAM device.
  * @param  RefreshCount: SDRAM refresh counter value 
  */
void BSP_SDRAM_Initialization_sequence(uint32_t RefreshCount)
{
 80014dc:	e92d 47f3 	stmdb	sp!, {r0, r1, r4, r5, r6, r7, r8, r9, sl, lr}
  __IO uint32_t tmpmrd =0;
  
  /* Step 1:  Configure a clock configuration enable command */
  Command.CommandMode             = FMC_SDRAM_CMD_CLK_ENABLE;
 80014e0:	4c21      	ldr	r4, [pc, #132]	; (8001568 <BSP_SDRAM_Initialization_sequence+0x8c>)
  Command.CommandTarget           = FMC_SDRAM_CMD_TARGET_BANK2;
  Command.AutoRefreshNumber       = 1;
  Command.ModeRegisterDefinition  = 0;

  /* Send the command */
  HAL_SDRAM_SendCommand(&SdramHandle, &Command, SDRAM_TIMEOUT);
 80014e2:	f104 0510 	add.w	r5, r4, #16
  Command.CommandTarget           = FMC_SDRAM_CMD_TARGET_BANK2;
 80014e6:	2601      	movs	r6, #1
  __IO uint32_t tmpmrd =0;
 80014e8:	f04f 0800 	mov.w	r8, #0
  Command.CommandTarget           = FMC_SDRAM_CMD_TARGET_BANK2;
 80014ec:	2708      	movs	r7, #8
  HAL_SDRAM_SendCommand(&SdramHandle, &Command, SDRAM_TIMEOUT);
 80014ee:	4621      	mov	r1, r4
{
 80014f0:	4681      	mov	r9, r0
  HAL_SDRAM_SendCommand(&SdramHandle, &Command, SDRAM_TIMEOUT);
 80014f2:	f64f 72ff 	movw	r2, #65535	; 0xffff
 80014f6:	4628      	mov	r0, r5
  Command.CommandTarget           = FMC_SDRAM_CMD_TARGET_BANK2;
 80014f8:	e9c4 6700 	strd	r6, r7, [r4]
  Command.ModeRegisterDefinition  = 0;
 80014fc:	e9c4 6802 	strd	r6, r8, [r4, #8]
  __IO uint32_t tmpmrd =0;
 8001500:	f8cd 8004 	str.w	r8, [sp, #4]
  HAL_SDRAM_SendCommand(&SdramHandle, &Command, SDRAM_TIMEOUT);
 8001504:	f001 ffad 	bl	8003462 <HAL_SDRAM_SendCommand>

  /* Step 2: Insert 100 us minimum delay */ 
  /* Inserted delay is equal to 1 ms due to systick time base unit (ms) */
  HAL_Delay(1);
 8001508:	4630      	mov	r0, r6
 800150a:	f000 fa1f 	bl	800194c <HAL_Delay>

  /* Step 3: Configure a PALL (precharge all) command */ 
  Command.CommandMode             = FMC_SDRAM_CMD_PALL;
 800150e:	2302      	movs	r3, #2
  Command.CommandTarget           = FMC_SDRAM_CMD_TARGET_BANK2;
  Command.AutoRefreshNumber       = 1;
  Command.ModeRegisterDefinition  = 0;

  /* Send the command */
  HAL_SDRAM_SendCommand(&SdramHandle, &Command, SDRAM_TIMEOUT);  
 8001510:	4621      	mov	r1, r4
 8001512:	f64f 72ff 	movw	r2, #65535	; 0xffff
 8001516:	4628      	mov	r0, r5
  Command.CommandTarget           = FMC_SDRAM_CMD_TARGET_BANK2;
 8001518:	e9c4 3700 	strd	r3, r7, [r4]
  
  /* Step 4: Configure an Auto Refresh command */ 
  Command.CommandMode             = FMC_SDRAM_CMD_AUTOREFRESH_MODE;
  Command.CommandTarget           = FMC_SDRAM_CMD_TARGET_BANK2;
  Command.AutoRefreshNumber       = 4;
 800151c:	f04f 0a04 	mov.w	sl, #4
  Command.ModeRegisterDefinition  = 0;
 8001520:	e9c4 6802 	strd	r6, r8, [r4, #8]
  HAL_SDRAM_SendCommand(&SdramHandle, &Command, SDRAM_TIMEOUT);  
 8001524:	f001 ff9d 	bl	8003462 <HAL_SDRAM_SendCommand>
  Command.CommandMode             = FMC_SDRAM_CMD_AUTOREFRESH_MODE;
 8001528:	2303      	movs	r3, #3
  Command.ModeRegisterDefinition  = 0;

  /* Send the command */
  HAL_SDRAM_SendCommand(&SdramHandle, &Command, SDRAM_TIMEOUT);
 800152a:	4621      	mov	r1, r4
 800152c:	f64f 72ff 	movw	r2, #65535	; 0xffff
 8001530:	4628      	mov	r0, r5
  Command.CommandTarget           = FMC_SDRAM_CMD_TARGET_BANK2;
 8001532:	e9c4 3700 	strd	r3, r7, [r4]
  Command.ModeRegisterDefinition  = 0;
 8001536:	e9c4 a802 	strd	sl, r8, [r4, #8]
  HAL_SDRAM_SendCommand(&SdramHandle, &Command, SDRAM_TIMEOUT);
 800153a:	f001 ff92 	bl	8003462 <HAL_SDRAM_SendCommand>
  
  /* Step 5: Program the external memory mode register */
  tmpmrd = (uint32_t)SDRAM_MODEREG_BURST_LENGTH_1          |
 800153e:	f44f 730c 	mov.w	r3, #560	; 0x230
 8001542:	9301      	str	r3, [sp, #4]
                     SDRAM_MODEREG_WRITEBURST_MODE_SINGLE;
  
  Command.CommandMode             = FMC_SDRAM_CMD_LOAD_MODE;
  Command.CommandTarget           = FMC_SDRAM_CMD_TARGET_BANK2;
  Command.AutoRefreshNumber       = 1;
  Command.ModeRegisterDefinition  = tmpmrd;
 8001544:	9b01      	ldr	r3, [sp, #4]
  Command.AutoRefreshNumber       = 1;
 8001546:	60a6      	str	r6, [r4, #8]

  /* Send the command */
  HAL_SDRAM_SendCommand(&SdramHandle, &Command, SDRAM_TIMEOUT);
 8001548:	4621      	mov	r1, r4
 800154a:	f64f 72ff 	movw	r2, #65535	; 0xffff
 800154e:	4628      	mov	r0, r5
  Command.CommandTarget           = FMC_SDRAM_CMD_TARGET_BANK2;
 8001550:	e9c4 a700 	strd	sl, r7, [r4]
  Command.ModeRegisterDefinition  = tmpmrd;
 8001554:	60e3      	str	r3, [r4, #12]
  HAL_SDRAM_SendCommand(&SdramHandle, &Command, SDRAM_TIMEOUT);
 8001556:	f001 ff84 	bl	8003462 <HAL_SDRAM_SendCommand>
  
  /* Step 6: Set the refresh rate counter */
  /* Set the device refresh rate */
  HAL_SDRAM_ProgramRefreshRate(&SdramHandle, RefreshCount); 
 800155a:	4649      	mov	r1, r9
 800155c:	4628      	mov	r0, r5
}
 800155e:	b002      	add	sp, #8
 8001560:	e8bd 47f0 	ldmia.w	sp!, {r4, r5, r6, r7, r8, r9, sl, lr}
  HAL_SDRAM_ProgramRefreshRate(&SdramHandle, RefreshCount); 
 8001564:	f001 bf9b 	b.w	800349e <HAL_SDRAM_ProgramRefreshRate>
 8001568:	200001f8 	.word	0x200001f8

0800156c <BSP_SDRAM_MspInit>:
  * @note   This function can be surcharged by application code.
  * @param  hsdram: pointer on SDRAM handle
  * @param  Params: pointer on additional configuration parameters, can be NULL.
  */
__weak void BSP_SDRAM_MspInit(SDRAM_HandleTypeDef  *hsdram, void *Params)
{
 800156c:	b570      	push	{r4, r5, r6, lr}
  static DMA_HandleTypeDef dmaHandle;
  GPIO_InitTypeDef GPIO_InitStructure;

  if(hsdram != (SDRAM_HandleTypeDef  *)NULL)
 800156e:	4606      	mov	r6, r0
{
 8001570:	b08e      	sub	sp, #56	; 0x38
  if(hsdram != (SDRAM_HandleTypeDef  *)NULL)
 8001572:	2800      	cmp	r0, #0
 8001574:	f000 80ad 	beq.w	80016d2 <BSP_SDRAM_MspInit+0x166>
  {
  /* Enable FMC clock */
  __HAL_RCC_FMC_CLK_ENABLE();
 8001578:	4b57      	ldr	r3, [pc, #348]	; (80016d8 <BSP_SDRAM_MspInit+0x16c>)
  GPIO_InitStructure.Pull  = GPIO_NOPULL;
  GPIO_InitStructure.Alternate = GPIO_AF12_FMC;

  /* GPIOB configuration */
  GPIO_InitStructure.Pin = GPIO_PIN_5 | GPIO_PIN_6;
  HAL_GPIO_Init(GPIOB, &GPIO_InitStructure);  
 800157a:	4858      	ldr	r0, [pc, #352]	; (80016dc <BSP_SDRAM_MspInit+0x170>)
  __HAL_RCC_FMC_CLK_ENABLE();
 800157c:	2400      	movs	r4, #0
 800157e:	9401      	str	r4, [sp, #4]
 8001580:	6b9a      	ldr	r2, [r3, #56]	; 0x38
 8001582:	f042 0201 	orr.w	r2, r2, #1
 8001586:	639a      	str	r2, [r3, #56]	; 0x38
 8001588:	6b9a      	ldr	r2, [r3, #56]	; 0x38
 800158a:	f002 0201 	and.w	r2, r2, #1
 800158e:	9201      	str	r2, [sp, #4]
 8001590:	9a01      	ldr	r2, [sp, #4]
  __DMAx_CLK_ENABLE();
 8001592:	9402      	str	r4, [sp, #8]
 8001594:	6b1a      	ldr	r2, [r3, #48]	; 0x30
 8001596:	f442 0280 	orr.w	r2, r2, #4194304	; 0x400000
 800159a:	631a      	str	r2, [r3, #48]	; 0x30
 800159c:	6b1a      	ldr	r2, [r3, #48]	; 0x30
 800159e:	f402 0280 	and.w	r2, r2, #4194304	; 0x400000
 80015a2:	9202      	str	r2, [sp, #8]
 80015a4:	9a02      	ldr	r2, [sp, #8]
  __HAL_RCC_GPIOB_CLK_ENABLE();
 80015a6:	9403      	str	r4, [sp, #12]
 80015a8:	6b1a      	ldr	r2, [r3, #48]	; 0x30
 80015aa:	f042 0202 	orr.w	r2, r2, #2
 80015ae:	631a      	str	r2, [r3, #48]	; 0x30
 80015b0:	6b1a      	ldr	r2, [r3, #48]	; 0x30
 80015b2:	f002 0202 	and.w	r2, r2, #2
 80015b6:	9203      	str	r2, [sp, #12]
 80015b8:	9a03      	ldr	r2, [sp, #12]
  __HAL_RCC_GPIOC_CLK_ENABLE();
 80015ba:	9404      	str	r4, [sp, #16]
 80015bc:	6b1a      	ldr	r2, [r3, #48]	; 0x30
 80015be:	f042 0204 	orr.w	r2, r2, #4
 80015c2:	631a      	str	r2, [r3, #48]	; 0x30
 80015c4:	6b1a      	ldr	r2, [r3, #48]	; 0x30
 80015c6:	f002 0204 	and.w	r2, r2, #4
 80015ca:	9204      	str	r2, [sp, #16]
 80015cc:	9a04      	ldr	r2, [sp, #16]
  __HAL_RCC_GPIOD_CLK_ENABLE();
 80015ce:	9405      	str	r4, [sp, #20]
 80015d0:	6b1a      	ldr	r2, [r3, #48]	; 0x30
 80015d2:	f042 0208 	orr.w	r2, r2, #8
 80015d6:	631a      	str	r2, [r3, #48]	; 0x30
 80015d8:	6b1a      	ldr	r2, [r3, #48]	; 0x30
 80015da:	f002 0208 	and.w	r2, r2, #8
 80015de:	9205      	str	r2, [sp, #20]
 80015e0:	9a05      	ldr	r2, [sp, #20]
  __HAL_RCC_GPIOE_CLK_ENABLE();
 80015e2:	9406      	str	r4, [sp, #24]
 80015e4:	6b1a      	ldr	r2, [r3, #48]	; 0x30
 80015e6:	f042 0210 	orr.w	r2, r2, #16
 80015ea:	631a      	str	r2, [r3, #48]	; 0x30
 80015ec:	6b1a      	ldr	r2, [r3, #48]	; 0x30
 80015ee:	f002 0210 	and.w	r2, r2, #16
 80015f2:	9206      	str	r2, [sp, #24]
 80015f4:	9a06      	ldr	r2, [sp, #24]
  __HAL_RCC_GPIOF_CLK_ENABLE();
 80015f6:	9407      	str	r4, [sp, #28]
 80015f8:	6b1a      	ldr	r2, [r3, #48]	; 0x30
 80015fa:	f042 0220 	orr.w	r2, r2, #32
 80015fe:	631a      	str	r2, [r3, #48]	; 0x30
 8001600:	6b1a      	ldr	r2, [r3, #48]	; 0x30
 8001602:	f002 0220 	and.w	r2, r2, #32
 8001606:	9207      	str	r2, [sp, #28]
 8001608:	9a07      	ldr	r2, [sp, #28]
  __HAL_RCC_GPIOG_CLK_ENABLE();
 800160a:	9408      	str	r4, [sp, #32]
 800160c:	6b1a      	ldr	r2, [r3, #48]	; 0x30
 800160e:	f042 0240 	orr.w	r2, r2, #64	; 0x40
 8001612:	631a      	str	r2, [r3, #48]	; 0x30
 8001614:	6b1b      	ldr	r3, [r3, #48]	; 0x30
 8001616:	f003 0340 	and.w	r3, r3, #64	; 0x40
 800161a:	9308      	str	r3, [sp, #32]
 800161c:	9b08      	ldr	r3, [sp, #32]
  GPIO_InitStructure.Mode  = GPIO_MODE_AF_PP;
 800161e:	2302      	movs	r3, #2
  GPIO_InitStructure.Pull  = GPIO_NOPULL;
 8001620:	e9cd 430b 	strd	r4, r3, [sp, #44]	; 0x2c
  GPIO_InitStructure.Mode  = GPIO_MODE_AF_PP;
 8001624:	930a      	str	r3, [sp, #40]	; 0x28
  GPIO_InitStructure.Alternate = GPIO_AF12_FMC;
 8001626:	230c      	movs	r3, #12
 8001628:	930d      	str	r3, [sp, #52]	; 0x34
  HAL_GPIO_Init(GPIOB, &GPIO_InitStructure);  
 800162a:	a909      	add	r1, sp, #36	; 0x24
  GPIO_InitStructure.Pin = GPIO_PIN_5 | GPIO_PIN_6;
 800162c:	2360      	movs	r3, #96	; 0x60
 800162e:	9309      	str	r3, [sp, #36]	; 0x24
  HAL_GPIO_Init(GPIOB, &GPIO_InitStructure);  
 8001630:	f000 faf2 	bl	8001c18 <HAL_GPIO_Init>

  /* GPIOC configuration */
  GPIO_InitStructure.Pin = GPIO_PIN_0;      
 8001634:	2301      	movs	r3, #1
  HAL_GPIO_Init(GPIOC, &GPIO_InitStructure);  
 8001636:	482a      	ldr	r0, [pc, #168]	; (80016e0 <BSP_SDRAM_MspInit+0x174>)
  GPIO_InitStructure.Pin = GPIO_PIN_0;      
 8001638:	9309      	str	r3, [sp, #36]	; 0x24
  HAL_GPIO_Init(GPIOC, &GPIO_InitStructure);  
 800163a:	a909      	add	r1, sp, #36	; 0x24
 800163c:	f000 faec 	bl	8001c18 <HAL_GPIO_Init>
  
  /* GPIOD configuration */
  GPIO_InitStructure.Pin = GPIO_PIN_0 | GPIO_PIN_1  | GPIO_PIN_8 |
 8001640:	f24c 7303 	movw	r3, #50947	; 0xc703
                           GPIO_PIN_9 | GPIO_PIN_10 | GPIO_PIN_14 |
                           GPIO_PIN_15;
  HAL_GPIO_Init(GPIOD, &GPIO_InitStructure);
 8001644:	4827      	ldr	r0, [pc, #156]	; (80016e4 <BSP_SDRAM_MspInit+0x178>)
  GPIO_InitStructure.Pin = GPIO_PIN_0 | GPIO_PIN_1  | GPIO_PIN_8 |
 8001646:	9309      	str	r3, [sp, #36]	; 0x24
  HAL_GPIO_Init(GPIOD, &GPIO_InitStructure);
 8001648:	a909      	add	r1, sp, #36	; 0x24
 800164a:	f000 fae5 	bl	8001c18 <HAL_GPIO_Init>

  /* GPIOE configuration */
  GPIO_InitStructure.Pin = GPIO_PIN_0  | GPIO_PIN_1  | GPIO_PIN_7 |
 800164e:	f64f 7383 	movw	r3, #65411	; 0xff83
                           GPIO_PIN_8  | GPIO_PIN_9  | GPIO_PIN_10 |
                           GPIO_PIN_11 | GPIO_PIN_12 | GPIO_PIN_13 |
                           GPIO_PIN_14 | GPIO_PIN_15;
  HAL_GPIO_Init(GPIOE, &GPIO_InitStructure);
 8001652:	4825      	ldr	r0, [pc, #148]	; (80016e8 <BSP_SDRAM_MspInit+0x17c>)
  GPIO_InitStructure.Pin = GPIO_PIN_0  | GPIO_PIN_1  | GPIO_PIN_7 |
 8001654:	9309      	str	r3, [sp, #36]	; 0x24
  HAL_GPIO_Init(GPIOE, &GPIO_InitStructure);
 8001656:	a909      	add	r1, sp, #36	; 0x24
 8001658:	f000 fade 	bl	8001c18 <HAL_GPIO_Init>

  /* GPIOF configuration */
  GPIO_InitStructure.Pin = GPIO_PIN_0  | GPIO_PIN_1 | GPIO_PIN_2 | 
 800165c:	f64f 033f 	movw	r3, #63551	; 0xf83f
                           GPIO_PIN_3  | GPIO_PIN_4 | GPIO_PIN_5 |
                           GPIO_PIN_11 | GPIO_PIN_12 | GPIO_PIN_13 |
                           GPIO_PIN_14 | GPIO_PIN_15;
  HAL_GPIO_Init(GPIOF, &GPIO_InitStructure);
 8001660:	4822      	ldr	r0, [pc, #136]	; (80016ec <BSP_SDRAM_MspInit+0x180>)
  GPIO_InitStructure.Pin = GPIO_PIN_0  | GPIO_PIN_1 | GPIO_PIN_2 | 
 8001662:	9309      	str	r3, [sp, #36]	; 0x24
  HAL_GPIO_Init(GPIOF, &GPIO_InitStructure);
 8001664:	a909      	add	r1, sp, #36	; 0x24
 8001666:	f000 fad7 	bl	8001c18 <HAL_GPIO_Init>

  /* GPIOG configuration */
  GPIO_InitStructure.Pin = GPIO_PIN_0 | GPIO_PIN_1 | GPIO_PIN_4 |
 800166a:	f248 1333 	movw	r3, #33075	; 0x8133
                           GPIO_PIN_5 | GPIO_PIN_8 | GPIO_PIN_15;
  HAL_GPIO_Init(GPIOG, &GPIO_InitStructure);
 800166e:	4820      	ldr	r0, [pc, #128]	; (80016f0 <BSP_SDRAM_MspInit+0x184>)
  GPIO_InitStructure.Pin = GPIO_PIN_0 | GPIO_PIN_1 | GPIO_PIN_4 |
 8001670:	9309      	str	r3, [sp, #36]	; 0x24
  HAL_GPIO_Init(GPIOG, &GPIO_InitStructure);
 8001672:	a909      	add	r1, sp, #36	; 0x24
 8001674:	f000 fad0 	bl	8001c18 <HAL_GPIO_Init>

  /* Configure common DMA parameters */
  dmaHandle.Init.Channel             = SDRAM_DMAx_CHANNEL;
 8001678:	4b1e      	ldr	r3, [pc, #120]	; (80016f4 <BSP_SDRAM_MspInit+0x188>)
  dmaHandle.Init.Direction           = DMA_MEMORY_TO_MEMORY;
  dmaHandle.Init.PeriphInc           = DMA_PINC_ENABLE;
 800167a:	2180      	movs	r1, #128	; 0x80
 800167c:	f44f 7200 	mov.w	r2, #512	; 0x200
 8001680:	e9c3 1213 	strd	r1, r2, [r3, #76]	; 0x4c
  dmaHandle.Init.MemInc              = DMA_MINC_ENABLE;
  dmaHandle.Init.PeriphDataAlignment = DMA_PDATAALIGN_WORD;
 8001684:	f44f 6080 	mov.w	r0, #1024	; 0x400
 8001688:	f44f 5280 	mov.w	r2, #4096	; 0x1000
 800168c:	e9c3 0215 	strd	r0, r2, [r3, #84]	; 0x54
  dmaHandle.Init.MemDataAlignment    = DMA_MDATAALIGN_WORD;
 8001690:	f44f 4280 	mov.w	r2, #16384	; 0x4000
  dmaHandle.Init.Mode                = DMA_NORMAL;
 8001694:	e9c3 2417 	strd	r2, r4, [r3, #92]	; 0x5c
  dmaHandle.Init.Priority            = DMA_PRIORITY_HIGH;
 8001698:	f44f 3200 	mov.w	r2, #131072	; 0x20000
  dmaHandle.Init.FIFOMode            = DMA_FIFOMODE_DISABLE;
  dmaHandle.Init.FIFOThreshold       = DMA_FIFO_THRESHOLD_FULL;
  dmaHandle.Init.MemBurst            = DMA_MBURST_SINGLE;
  dmaHandle.Init.PeriphBurst         = DMA_PBURST_SINGLE; 
  
  dmaHandle.Instance = SDRAM_DMAx_STREAM;
 800169c:	461d      	mov	r5, r3
  dmaHandle.Init.FIFOMode            = DMA_FIFOMODE_DISABLE;
 800169e:	e9c3 2419 	strd	r2, r4, [r3, #100]	; 0x64
  dmaHandle.Init.FIFOThreshold       = DMA_FIFO_THRESHOLD_FULL;
 80016a2:	2203      	movs	r2, #3
  dmaHandle.Init.MemBurst            = DMA_MBURST_SINGLE;
 80016a4:	e9c3 241b 	strd	r2, r4, [r3, #108]	; 0x6c
  dmaHandle.Instance = SDRAM_DMAx_STREAM;
 80016a8:	4a13      	ldr	r2, [pc, #76]	; (80016f8 <BSP_SDRAM_MspInit+0x18c>)
 80016aa:	f845 2f44 	str.w	r2, [r5, #68]!
  dmaHandle.Init.PeriphBurst         = DMA_PBURST_SINGLE; 
 80016ae:	675c      	str	r4, [r3, #116]	; 0x74
  
  /* Associate the DMA handle */
  __HAL_LINKDMA(hsdram, hdma, dmaHandle);
  
  /* Deinitialize the stream for new transfer */
  HAL_DMA_DeInit(&dmaHandle);
 80016b0:	4628      	mov	r0, r5
  __HAL_LINKDMA(hsdram, hdma, dmaHandle);
 80016b2:	6335      	str	r5, [r6, #48]	; 0x30
  dmaHandle.Init.Channel             = SDRAM_DMAx_CHANNEL;
 80016b4:	649c      	str	r4, [r3, #72]	; 0x48
  __HAL_LINKDMA(hsdram, hdma, dmaHandle);
 80016b6:	67de      	str	r6, [r3, #124]	; 0x7c
  HAL_DMA_DeInit(&dmaHandle);
 80016b8:	f000 fa58 	bl	8001b6c <HAL_DMA_DeInit>
  
  /* Configure the DMA stream */
  HAL_DMA_Init(&dmaHandle); 
 80016bc:	4628      	mov	r0, r5
 80016be:	f000 f9d5 	bl	8001a6c <HAL_DMA_Init>
  
  /* NVIC configuration for DMA transfer complete interrupt */
  HAL_NVIC_SetPriority(SDRAM_DMAx_IRQn, 0x0F, 0);
 80016c2:	2038      	movs	r0, #56	; 0x38
 80016c4:	4622      	mov	r2, r4
 80016c6:	210f      	movs	r1, #15
 80016c8:	f000 f966 	bl	8001998 <HAL_NVIC_SetPriority>
  HAL_NVIC_EnableIRQ(SDRAM_DMAx_IRQn);
 80016cc:	2038      	movs	r0, #56	; 0x38
 80016ce:	f000 f995 	bl	80019fc <HAL_NVIC_EnableIRQ>
  } /* of if(hsdram != (SDRAM_HandleTypeDef  *)NULL) */
}
 80016d2:	b00e      	add	sp, #56	; 0x38
 80016d4:	bd70      	pop	{r4, r5, r6, pc}
 80016d6:	bf00      	nop
 80016d8:	40023800 	.word	0x40023800
 80016dc:	40020400 	.word	0x40020400
 80016e0:	40020800 	.word	0x40020800
 80016e4:	40020c00 	.word	0x40020c00
 80016e8:	40021000 	.word	0x40021000
 80016ec:	40021400 	.word	0x40021400
 80016f0:	40021800 	.word	0x40021800
 80016f4:	200001f8 	.word	0x200001f8
 80016f8:	40026410 	.word	0x40026410

080016fc <BSP_SDRAM_Init>:
{
 80016fc:	b510      	push	{r4, lr}
  SdramHandle.Instance = FMC_SDRAM_DEVICE;
 80016fe:	4c1b      	ldr	r4, [pc, #108]	; (800176c <BSP_SDRAM_Init+0x70>)
 8001700:	4b1b      	ldr	r3, [pc, #108]	; (8001770 <BSP_SDRAM_Init+0x74>)
 8001702:	6123      	str	r3, [r4, #16]
  Timing.SelfRefreshTime      = 4;
 8001704:	2204      	movs	r2, #4
  Timing.ExitSelfRefreshDelay = 7;
 8001706:	2302      	movs	r3, #2
 8001708:	2107      	movs	r1, #7
  Timing.RowCycleDelay        = 7;
 800170a:	e9c4 212b 	strd	r2, r1, [r4, #172]	; 0xac
  Timing.ExitSelfRefreshDelay = 7;
 800170e:	e9c4 3129 	strd	r3, r1, [r4, #164]	; 0xa4
  Timing.RPDelay              = 2;
 8001712:	e9c4 332d 	strd	r3, r3, [r4, #180]	; 0xb4
  SdramHandle.Init.ColumnBitsNumber   = FMC_SDRAM_COLUMN_BITS_NUM_8;
 8001716:	2100      	movs	r1, #0
  Timing.RCDDelay             = 2;
 8001718:	f8c4 30bc 	str.w	r3, [r4, #188]	; 0xbc
  SdramHandle.Init.ColumnBitsNumber   = FMC_SDRAM_COLUMN_BITS_NUM_8;
 800171c:	2301      	movs	r3, #1
 800171e:	e9c4 3105 	strd	r3, r1, [r4, #20]
  SdramHandle.Init.InternalBankNumber = FMC_SDRAM_INTERN_BANKS_NUM_4;
 8001722:	2010      	movs	r0, #16
 8001724:	2340      	movs	r3, #64	; 0x40
 8001726:	e9c4 0308 	strd	r0, r3, [r4, #32]
  SdramHandle.Init.CASLatency         = SDRAM_CAS_LATENCY;
 800172a:	f44f 73c0 	mov.w	r3, #384	; 0x180
  SdramHandle.Init.WriteProtection    = FMC_SDRAM_WRITE_PROTECTION_DISABLE;
 800172e:	e9c4 310a 	strd	r3, r1, [r4, #40]	; 0x28
  SdramHandle.Init.SDClockPeriod      = SDCLOCK_PERIOD;
 8001732:	f44f 6300 	mov.w	r3, #2048	; 0x800
  SdramHandle.Init.ReadBurst          = SDRAM_READBURST;
 8001736:	e9c4 310c 	strd	r3, r1, [r4, #48]	; 0x30
  BSP_SDRAM_MspInit(&SdramHandle, (void *)NULL);
 800173a:	f104 0010 	add.w	r0, r4, #16
  SdramHandle.Init.ReadPipeDelay      = FMC_SDRAM_RPIPE_DELAY_1;
 800173e:	f44f 5300 	mov.w	r3, #8192	; 0x2000
  SdramHandle.Init.RowBitsNumber      = FMC_SDRAM_ROW_BITS_NUM_12;
 8001742:	61e2      	str	r2, [r4, #28]
  SdramHandle.Init.ReadPipeDelay      = FMC_SDRAM_RPIPE_DELAY_1;
 8001744:	63a3      	str	r3, [r4, #56]	; 0x38
  BSP_SDRAM_MspInit(&SdramHandle, (void *)NULL);
 8001746:	f7ff ff11 	bl	800156c <BSP_SDRAM_MspInit>
  if(HAL_SDRAM_Init(&SdramHandle, &Timing) != HAL_OK)
 800174a:	f104 01a4 	add.w	r1, r4, #164	; 0xa4
 800174e:	f1a1 0094 	sub.w	r0, r1, #148	; 0x94
 8001752:	f001 fe66 	bl	8003422 <HAL_SDRAM_Init>
 8001756:	4c07      	ldr	r4, [pc, #28]	; (8001774 <BSP_SDRAM_Init+0x78>)
 8001758:	3800      	subs	r0, #0
 800175a:	bf18      	it	ne
 800175c:	2001      	movne	r0, #1
 800175e:	7020      	strb	r0, [r4, #0]
  BSP_SDRAM_Initialization_sequence(REFRESH_COUNT);
 8001760:	f240 506a 	movw	r0, #1386	; 0x56a
 8001764:	f7ff feba 	bl	80014dc <BSP_SDRAM_Initialization_sequence>
}
 8001768:	7820      	ldrb	r0, [r4, #0]
 800176a:	bd10      	pop	{r4, pc}
 800176c:	200001f8 	.word	0x200001f8
 8001770:	a0000140 	.word	0xa0000140
 8001774:	20000074 	.word	0x20000074

08001778 <BSP_TS_Init>:
  * @param  XSize: The maximum X size of the TS area on LCD
  * @param  YSize: The maximum Y size of the TS area on LCD  
  * @retval TS_OK: if all initializations are OK. Other value if error.
  */
uint8_t BSP_TS_Init(uint16_t XSize, uint16_t YSize)
{
 8001778:	b538      	push	{r3, r4, r5, lr}
  uint8_t ret = TS_ERROR;

  /* Initialize x and y positions boundaries */
  TsXBoundary = XSize;
 800177a:	4c0b      	ldr	r4, [pc, #44]	; (80017a8 <BSP_TS_Init+0x30>)
  TsYBoundary = YSize;

  /* Read ID and verify if the IO expander is ready */
  if(stmpe811_ts_drv.ReadID(TS_I2C_ADDRESS) == STMPE811_ID)
 800177c:	4d0b      	ldr	r5, [pc, #44]	; (80017ac <BSP_TS_Init+0x34>)
  TsXBoundary = XSize;
 800177e:	8020      	strh	r0, [r4, #0]
  if(stmpe811_ts_drv.ReadID(TS_I2C_ADDRESS) == STMPE811_ID)
 8001780:	686b      	ldr	r3, [r5, #4]
  TsYBoundary = YSize;
 8001782:	8061      	strh	r1, [r4, #2]
  if(stmpe811_ts_drv.ReadID(TS_I2C_ADDRESS) == STMPE811_ID)
 8001784:	2082      	movs	r0, #130	; 0x82
 8001786:	4798      	blx	r3
 8001788:	f640 0311 	movw	r3, #2065	; 0x811
 800178c:	4298      	cmp	r0, r3
 800178e:	d109      	bne.n	80017a4 <BSP_TS_Init+0x2c>
  }

  if(ret == TS_OK)
  {
    /* Initialize the LL TS Driver */
    TsDrv->Init(TS_I2C_ADDRESS);
 8001790:	682b      	ldr	r3, [r5, #0]
    TsDrv = &stmpe811_ts_drv;
 8001792:	6065      	str	r5, [r4, #4]
    TsDrv->Init(TS_I2C_ADDRESS);
 8001794:	2082      	movs	r0, #130	; 0x82
 8001796:	4798      	blx	r3
    TsDrv->Start(TS_I2C_ADDRESS);
 8001798:	6863      	ldr	r3, [r4, #4]
 800179a:	2082      	movs	r0, #130	; 0x82
 800179c:	68db      	ldr	r3, [r3, #12]
 800179e:	4798      	blx	r3
    ret = TS_OK;
 80017a0:	2000      	movs	r0, #0
  }

  return ret;
}
 80017a2:	bd38      	pop	{r3, r4, r5, pc}
  uint8_t ret = TS_ERROR;
 80017a4:	2001      	movs	r0, #1
 80017a6:	e7fc      	b.n	80017a2 <BSP_TS_Init+0x2a>
 80017a8:	20000318 	.word	0x20000318
 80017ac:	20000038 	.word	0x20000038

080017b0 <BSP_TS_GetState>:
/**
  * @brief  Returns status and positions of the touch screen.
  * @param  TsState: Pointer to touch screen current state structure
  */
void BSP_TS_GetState(TS_StateTypeDef* TsState)
{
 80017b0:	b573      	push	{r0, r1, r4, r5, r6, lr}
  static uint32_t _x = 0, _y = 0;
  uint16_t xDiff, yDiff , x , y, xr, yr;
  
  TsState->TouchDetected = TsDrv->DetectTouch(TS_I2C_ADDRESS);
 80017b2:	4c2a      	ldr	r4, [pc, #168]	; (800185c <BSP_TS_GetState+0xac>)
 80017b4:	6863      	ldr	r3, [r4, #4]
{
 80017b6:	4605      	mov	r5, r0
  TsState->TouchDetected = TsDrv->DetectTouch(TS_I2C_ADDRESS);
 80017b8:	691b      	ldr	r3, [r3, #16]
 80017ba:	2082      	movs	r0, #130	; 0x82
 80017bc:	4798      	blx	r3
 80017be:	b280      	uxth	r0, r0
 80017c0:	8028      	strh	r0, [r5, #0]
  
  if(TsState->TouchDetected)
 80017c2:	2800      	cmp	r0, #0
 80017c4:	d03e      	beq.n	8001844 <BSP_TS_GetState+0x94>
  {
    TsDrv->GetXY(TS_I2C_ADDRESS, &x, &y);
 80017c6:	6863      	ldr	r3, [r4, #4]
 80017c8:	f10d 0206 	add.w	r2, sp, #6
 80017cc:	695b      	ldr	r3, [r3, #20]
 80017ce:	a901      	add	r1, sp, #4
 80017d0:	2082      	movs	r0, #130	; 0x82
 80017d2:	4798      	blx	r3
    
    /* Y value first correction */
    y -= 360;  
 80017d4:	f8bd 2006 	ldrh.w	r2, [sp, #6]
 80017d8:	f5a2 72b4 	sub.w	r2, r2, #360	; 0x168
 80017dc:	b292      	uxth	r2, r2
    
    /* Y value second correction */
    yr = y / 11;
    
    /* Return y position value */
    if(yr <= 0)
 80017de:	2a0a      	cmp	r2, #10
 80017e0:	d932      	bls.n	8001848 <BSP_TS_GetState+0x98>
    yr = y / 11;
 80017e2:	230b      	movs	r3, #11
 80017e4:	fbb2 f2f3 	udiv	r2, r2, r3
    {
      yr = 0;
    }
    else if (yr > TsYBoundary)
 80017e8:	8863      	ldrh	r3, [r4, #2]
 80017ea:	4293      	cmp	r3, r2
 80017ec:	d201      	bcs.n	80017f2 <BSP_TS_GetState+0x42>
    {
      yr = TsYBoundary - 1;
 80017ee:	3b01      	subs	r3, #1
 80017f0:	b29a      	uxth	r2, r3
    else
    {}
    y = yr;
    
    /* X value first correction */
    if(x <= 3000)
 80017f2:	f8bd 3004 	ldrh.w	r3, [sp, #4]
 80017f6:	f640 31b8 	movw	r1, #3000	; 0xbb8
 80017fa:	428b      	cmp	r3, r1
 80017fc:	d826      	bhi.n	800184c <BSP_TS_GetState+0x9c>
    {
      x = 3870 - x;
 80017fe:	f5c3 6371 	rsb	r3, r3, #3856	; 0xf10
 8001802:	330e      	adds	r3, #14
 8001804:	b29b      	uxth	r3, r3
    {
      x = 3800 - x;
    }
    
    /* X value second correction */  
    xr = x / 15;
 8001806:	210f      	movs	r1, #15
 8001808:	fbb3 f3f1 	udiv	r3, r3, r1
    /* Return X position value */
    if(xr <= 0)
    {
      xr = 0;
    }
    else if (xr > TsXBoundary)
 800180c:	8821      	ldrh	r1, [r4, #0]
 800180e:	4299      	cmp	r1, r3
 8001810:	d201      	bcs.n	8001816 <BSP_TS_GetState+0x66>
    {
      xr = TsXBoundary - 1;
 8001812:	1e4b      	subs	r3, r1, #1
 8001814:	b29b      	uxth	r3, r3
    }
    else 
    {}
    
    x = xr;
    xDiff = x > _x? (x - _x): (_x - x);
 8001816:	68a0      	ldr	r0, [r4, #8]
    yDiff = y > _y? (y - _y): (_y - y); 
 8001818:	68e6      	ldr	r6, [r4, #12]
    xDiff = x > _x? (x - _x): (_x - x);
 800181a:	4283      	cmp	r3, r0
 800181c:	b281      	uxth	r1, r0
 800181e:	bf8c      	ite	hi
 8001820:	1a59      	subhi	r1, r3, r1
 8001822:	1ac9      	subls	r1, r1, r3
    yDiff = y > _y? (y - _y): (_y - y); 
 8001824:	b2b0      	uxth	r0, r6
 8001826:	42b2      	cmp	r2, r6
 8001828:	bf8c      	ite	hi
 800182a:	1a10      	subhi	r0, r2, r0
 800182c:	1a80      	subls	r0, r0, r2
    xDiff = x > _x? (x - _x): (_x - x);
 800182e:	b289      	uxth	r1, r1
    yDiff = y > _y? (y - _y): (_y - y); 
 8001830:	b280      	uxth	r0, r0
    
    if (xDiff + yDiff > 5)
 8001832:	4401      	add	r1, r0
 8001834:	2905      	cmp	r1, #5
    {
      _x = x;
      _y = y; 
 8001836:	bfc8      	it	gt
 8001838:	e9c4 3202 	strdgt	r3, r2, [r4, #8]
    }
    
    /* Update the X position */
    TsState->X = _x;
 800183c:	68a3      	ldr	r3, [r4, #8]
 800183e:	806b      	strh	r3, [r5, #2]
    
    /* Update the Y position */  
    TsState->Y = _y;
 8001840:	68e3      	ldr	r3, [r4, #12]
 8001842:	80ab      	strh	r3, [r5, #4]
  }
}
 8001844:	b002      	add	sp, #8
 8001846:	bd70      	pop	{r4, r5, r6, pc}
      yr = 0;
 8001848:	2200      	movs	r2, #0
 800184a:	e7d2      	b.n	80017f2 <BSP_TS_GetState+0x42>
      x = 3800 - x;
 800184c:	f5c3 636d 	rsb	r3, r3, #3792	; 0xed0
 8001850:	3308      	adds	r3, #8
 8001852:	b29b      	uxth	r3, r3
    if(xr <= 0)
 8001854:	2b0e      	cmp	r3, #14
 8001856:	d8d6      	bhi.n	8001806 <BSP_TS_GetState+0x56>
      xr = 0;
 8001858:	2300      	movs	r3, #0
 800185a:	e7dc      	b.n	8001816 <BSP_TS_GetState+0x66>
 800185c:	20000318 	.word	0x20000318

08001860 <SystemInit>:
  */
void SystemInit(void)
{
  /* FPU settings ------------------------------------------------------------*/
  #if (__FPU_PRESENT == 1) && (__FPU_USED == 1)
    SCB->CPACR |= ((3UL << 10*2)|(3UL << 11*2));  /* set CP10 and CP11 Full Access */
 8001860:	490f      	ldr	r1, [pc, #60]	; (80018a0 <SystemInit+0x40>)
 8001862:	f8d1 3088 	ldr.w	r3, [r1, #136]	; 0x88
 8001866:	f443 0370 	orr.w	r3, r3, #15728640	; 0xf00000
 800186a:	f8c1 3088 	str.w	r3, [r1, #136]	; 0x88
  #endif
  /* Reset the RCC clock configuration to the default reset state ------------*/
  /* Set HSION bit */
  RCC->CR |= (uint32_t)0x00000001;
 800186e:	4b0d      	ldr	r3, [pc, #52]	; (80018a4 <SystemInit+0x44>)
 8001870:	681a      	ldr	r2, [r3, #0]

  /* Reset CFGR register */
  RCC->CFGR = 0x00000000;
 8001872:	2000      	movs	r0, #0
  RCC->CR |= (uint32_t)0x00000001;
 8001874:	f042 0201 	orr.w	r2, r2, #1
 8001878:	601a      	str	r2, [r3, #0]
  RCC->CFGR = 0x00000000;
 800187a:	6098      	str	r0, [r3, #8]

  /* Reset HSEON, CSSON and PLLON bits */
  RCC->CR &= (uint32_t)0xFEF6FFFF;
 800187c:	681a      	ldr	r2, [r3, #0]
 800187e:	f022 7284 	bic.w	r2, r2, #17301504	; 0x1080000
 8001882:	f422 3280 	bic.w	r2, r2, #65536	; 0x10000
 8001886:	601a      	str	r2, [r3, #0]

  /* Reset PLLCFGR register */
  RCC->PLLCFGR = 0x24003010;
 8001888:	4a07      	ldr	r2, [pc, #28]	; (80018a8 <SystemInit+0x48>)
 800188a:	605a      	str	r2, [r3, #4]

  /* Reset HSEBYP bit */
  RCC->CR &= (uint32_t)0xFFFBFFFF;
 800188c:	681a      	ldr	r2, [r3, #0]
 800188e:	f422 2280 	bic.w	r2, r2, #262144	; 0x40000
 8001892:	601a      	str	r2, [r3, #0]

  /* Disable all interrupts */
  RCC->CIR = 0x00000000;
 8001894:	60d8      	str	r0, [r3, #12]

  /* Configure the Vector Table location add offset address ------------------*/
#ifdef VECT_TAB_SRAM
  SCB->VTOR = SRAM_BASE | VECT_TAB_OFFSET; /* Vector Table Relocation in Internal SRAM */
#else
  SCB->VTOR = FLASH_BASE | VECT_TAB_OFFSET; /* Vector Table Relocation in Internal FLASH */
 8001896:	f04f 6300 	mov.w	r3, #134217728	; 0x8000000
 800189a:	608b      	str	r3, [r1, #8]
#endif
}
 800189c:	4770      	bx	lr
 800189e:	bf00      	nop
 80018a0:	e000ed00 	.word	0xe000ed00
 80018a4:	40023800 	.word	0x40023800
 80018a8:	24003010 	.word	0x24003010

080018ac <HAL_MspInit>:
__weak void HAL_MspInit(void)
{
  /* NOTE : This function should not be modified, when the callback is needed,
            the HAL_MspInit could be implemented in the user file
   */
}
 80018ac:	4770      	bx	lr
	...

080018b0 <HAL_InitTick>:
  *       implementation  in user file.
  * @param TickPriority Tick interrupt priority.
  * @retval HAL status
  */
__weak HAL_StatusTypeDef HAL_InitTick(uint32_t TickPriority)
{
 80018b0:	b570      	push	{r4, r5, r6, lr}
  /* Configure the SysTick to have interrupt in 1ms time basis*/
  if (HAL_SYSTICK_Config(SystemCoreClock / (1000U / uwTickFreq)) > 0U)
 80018b2:	4a0e      	ldr	r2, [pc, #56]	; (80018ec <HAL_InitTick+0x3c>)
 80018b4:	4e0e      	ldr	r6, [pc, #56]	; (80018f0 <HAL_InitTick+0x40>)
{
 80018b6:	4605      	mov	r5, r0
  if (HAL_SYSTICK_Config(SystemCoreClock / (1000U / uwTickFreq)) > 0U)
 80018b8:	f44f 737a 	mov.w	r3, #1000	; 0x3e8
 80018bc:	7830      	ldrb	r0, [r6, #0]
 80018be:	fbb3 f3f0 	udiv	r3, r3, r0
 80018c2:	6810      	ldr	r0, [r2, #0]
 80018c4:	fbb0 f0f3 	udiv	r0, r0, r3
 80018c8:	f000 f8a6 	bl	8001a18 <HAL_SYSTICK_Config>
 80018cc:	4604      	mov	r4, r0
 80018ce:	b950      	cbnz	r0, 80018e6 <HAL_InitTick+0x36>
  {
    return HAL_ERROR;
  }

  /* Configure the SysTick IRQ priority */
  if (TickPriority < (1UL << __NVIC_PRIO_BITS))
 80018d0:	2d0f      	cmp	r5, #15
 80018d2:	d808      	bhi.n	80018e6 <HAL_InitTick+0x36>
  {
    HAL_NVIC_SetPriority(SysTick_IRQn, TickPriority, 0U);
 80018d4:	4602      	mov	r2, r0
 80018d6:	4629      	mov	r1, r5
 80018d8:	f04f 30ff 	mov.w	r0, #4294967295	; 0xffffffff
 80018dc:	f000 f85c 	bl	8001998 <HAL_NVIC_SetPriority>
    uwTickPrio = TickPriority;
 80018e0:	6075      	str	r5, [r6, #4]
 80018e2:	4620      	mov	r0, r4
    return HAL_ERROR;
  }

  /* Return function status */
  return HAL_OK;
}
 80018e4:	bd70      	pop	{r4, r5, r6, pc}
    return HAL_ERROR;
 80018e6:	2001      	movs	r0, #1
 80018e8:	e7fc      	b.n	80018e4 <HAL_InitTick+0x34>
 80018ea:	bf00      	nop
 80018ec:	20000078 	.word	0x20000078
 80018f0:	2000007c 	.word	0x2000007c

080018f4 <HAL_Init>:
{
 80018f4:	b508      	push	{r3, lr}
  __HAL_FLASH_INSTRUCTION_CACHE_ENABLE();
 80018f6:	4b0b      	ldr	r3, [pc, #44]	; (8001924 <HAL_Init+0x30>)
 80018f8:	681a      	ldr	r2, [r3, #0]
 80018fa:	f442 7200 	orr.w	r2, r2, #512	; 0x200
 80018fe:	601a      	str	r2, [r3, #0]
  __HAL_FLASH_DATA_CACHE_ENABLE();
 8001900:	681a      	ldr	r2, [r3, #0]
 8001902:	f442 6280 	orr.w	r2, r2, #1024	; 0x400
 8001906:	601a      	str	r2, [r3, #0]
  __HAL_FLASH_PREFETCH_BUFFER_ENABLE();
 8001908:	681a      	ldr	r2, [r3, #0]
 800190a:	f442 7280 	orr.w	r2, r2, #256	; 0x100
 800190e:	601a      	str	r2, [r3, #0]
  HAL_NVIC_SetPriorityGrouping(NVIC_PRIORITYGROUP_4);
 8001910:	2003      	movs	r0, #3
 8001912:	f000 f82f 	bl	8001974 <HAL_NVIC_SetPriorityGrouping>
  HAL_InitTick(TICK_INT_PRIORITY);
 8001916:	200f      	movs	r0, #15
 8001918:	f7ff ffca 	bl	80018b0 <HAL_InitTick>
  HAL_MspInit();
 800191c:	f7ff ffc6 	bl	80018ac <HAL_MspInit>
}
 8001920:	2000      	movs	r0, #0
 8001922:	bd08      	pop	{r3, pc}
 8001924:	40023c00 	.word	0x40023c00

08001928 <HAL_IncTick>:
  *      implementations in user file.
  * @retval None
  */
__weak void HAL_IncTick(void)
{
  uwTick += uwTickFreq;
 8001928:	4a03      	ldr	r2, [pc, #12]	; (8001938 <HAL_IncTick+0x10>)
 800192a:	4b04      	ldr	r3, [pc, #16]	; (800193c <HAL_IncTick+0x14>)
 800192c:	6811      	ldr	r1, [r2, #0]
 800192e:	781b      	ldrb	r3, [r3, #0]
 8001930:	440b      	add	r3, r1
 8001932:	6013      	str	r3, [r2, #0]
}
 8001934:	4770      	bx	lr
 8001936:	bf00      	nop
 8001938:	20000328 	.word	0x20000328
 800193c:	2000007c 	.word	0x2000007c

08001940 <HAL_GetTick>:
  *       implementations in user file.
  * @retval tick value
  */
__weak uint32_t HAL_GetTick(void)
{
  return uwTick;
 8001940:	4b01      	ldr	r3, [pc, #4]	; (8001948 <HAL_GetTick+0x8>)
 8001942:	6818      	ldr	r0, [r3, #0]
}
 8001944:	4770      	bx	lr
 8001946:	bf00      	nop
 8001948:	20000328 	.word	0x20000328

0800194c <HAL_Delay>:
  *       implementations in user file.
  * @param Delay specifies the delay time length, in milliseconds.
  * @retval None
  */
__weak void HAL_Delay(uint32_t Delay)
{
 800194c:	b538      	push	{r3, r4, r5, lr}
 800194e:	4604      	mov	r4, r0
  uint32_t tickstart = HAL_GetTick();
 8001950:	f7ff fff6 	bl	8001940 <HAL_GetTick>
  uint32_t wait = Delay;

  /* Add a freq to guarantee minimum wait */
  if (wait < HAL_MAX_DELAY)
 8001954:	1c63      	adds	r3, r4, #1
  {
    wait += (uint32_t)(uwTickFreq);
 8001956:	bf1c      	itt	ne
 8001958:	4b05      	ldrne	r3, [pc, #20]	; (8001970 <HAL_Delay+0x24>)
 800195a:	781b      	ldrbne	r3, [r3, #0]
  uint32_t tickstart = HAL_GetTick();
 800195c:	4605      	mov	r5, r0
    wait += (uint32_t)(uwTickFreq);
 800195e:	bf18      	it	ne
 8001960:	18e4      	addne	r4, r4, r3
  }

  while((HAL_GetTick() - tickstart) < wait)
 8001962:	f7ff ffed 	bl	8001940 <HAL_GetTick>
 8001966:	1b43      	subs	r3, r0, r5
 8001968:	42a3      	cmp	r3, r4
 800196a:	d3fa      	bcc.n	8001962 <HAL_Delay+0x16>
  {
  }
}
 800196c:	bd38      	pop	{r3, r4, r5, pc}
 800196e:	bf00      	nop
 8001970:	2000007c 	.word	0x2000007c

08001974 <HAL_NVIC_SetPriorityGrouping>:
__STATIC_INLINE void __NVIC_SetPriorityGrouping(uint32_t PriorityGroup)
{
  uint32_t reg_value;
  uint32_t PriorityGroupTmp = (PriorityGroup & (uint32_t)0x07UL);             /* only values 0..7 are used          */

  reg_value  =  SCB->AIRCR;                                                   /* read old register configuration    */
 8001974:	4907      	ldr	r1, [pc, #28]	; (8001994 <HAL_NVIC_SetPriorityGrouping+0x20>)
 8001976:	68ca      	ldr	r2, [r1, #12]
  reg_value &= ~((uint32_t)(SCB_AIRCR_VECTKEY_Msk | SCB_AIRCR_PRIGROUP_Msk)); /* clear bits to change               */
 8001978:	f422 62e0 	bic.w	r2, r2, #1792	; 0x700
  reg_value  =  (reg_value                                   |
                ((uint32_t)0x5FAUL << SCB_AIRCR_VECTKEY_Pos) |
                (PriorityGroupTmp << SCB_AIRCR_PRIGROUP_Pos)  );              /* Insert write key and priority group */
 800197c:	0203      	lsls	r3, r0, #8
  reg_value &= ~((uint32_t)(SCB_AIRCR_VECTKEY_Msk | SCB_AIRCR_PRIGROUP_Msk)); /* clear bits to change               */
 800197e:	0412      	lsls	r2, r2, #16
                (PriorityGroupTmp << SCB_AIRCR_PRIGROUP_Pos)  );              /* Insert write key and priority group */
 8001980:	f403 63e0 	and.w	r3, r3, #1792	; 0x700
  reg_value &= ~((uint32_t)(SCB_AIRCR_VECTKEY_Msk | SCB_AIRCR_PRIGROUP_Msk)); /* clear bits to change               */
 8001984:	0c12      	lsrs	r2, r2, #16
                ((uint32_t)0x5FAUL << SCB_AIRCR_VECTKEY_Pos) |
 8001986:	4313      	orrs	r3, r2
  reg_value  =  (reg_value                                   |
 8001988:	f043 63bf 	orr.w	r3, r3, #100139008	; 0x5f80000
 800198c:	f443 3300 	orr.w	r3, r3, #131072	; 0x20000
  SCB->AIRCR =  reg_value;
 8001990:	60cb      	str	r3, [r1, #12]
  /* Check the parameters */
  assert_param(IS_NVIC_PRIORITY_GROUP(PriorityGroup));
  
  /* Set the PRIGROUP[10:8] bits according to the PriorityGroup parameter value */
  NVIC_SetPriorityGrouping(PriorityGroup);
}
 8001992:	4770      	bx	lr
 8001994:	e000ed00 	.word	0xe000ed00

08001998 <HAL_NVIC_SetPriority>:
  \details Reads the priority grouping field from the NVIC Interrupt Controller.
  \return                Priority grouping field (SCB->AIRCR [10:8] PRIGROUP field).
 */
__STATIC_INLINE uint32_t __NVIC_GetPriorityGrouping(void)
{
  return ((uint32_t)((SCB->AIRCR & SCB_AIRCR_PRIGROUP_Msk) >> SCB_AIRCR_PRIGROUP_Pos));
 8001998:	4b16      	ldr	r3, [pc, #88]	; (80019f4 <HAL_NVIC_SetPriority+0x5c>)
  *         This parameter can be a value between 0 and 15
  *         A lower priority value indicates a higher priority.          
  * @retval None
  */
void HAL_NVIC_SetPriority(IRQn_Type IRQn, uint32_t PreemptPriority, uint32_t SubPriority)
{ 
 800199a:	b530      	push	{r4, r5, lr}
 800199c:	68dc      	ldr	r4, [r3, #12]
 800199e:	f3c4 2402 	ubfx	r4, r4, #8, #3
{
  uint32_t PriorityGroupTmp = (PriorityGroup & (uint32_t)0x07UL);   /* only values 0..7 are used          */
  uint32_t PreemptPriorityBits;
  uint32_t SubPriorityBits;

  PreemptPriorityBits = ((7UL - PriorityGroupTmp) > (uint32_t)(__NVIC_PRIO_BITS)) ? (uint32_t)(__NVIC_PRIO_BITS) : (uint32_t)(7UL - PriorityGroupTmp);
 80019a2:	f1c4 0507 	rsb	r5, r4, #7
  SubPriorityBits     = ((PriorityGroupTmp + (uint32_t)(__NVIC_PRIO_BITS)) < (uint32_t)7UL) ? (uint32_t)0UL : (uint32_t)((PriorityGroupTmp - 7UL) + (uint32_t)(__NVIC_PRIO_BITS));
 80019a6:	1d23      	adds	r3, r4, #4
  PreemptPriorityBits = ((7UL - PriorityGroupTmp) > (uint32_t)(__NVIC_PRIO_BITS)) ? (uint32_t)(__NVIC_PRIO_BITS) : (uint32_t)(7UL - PriorityGroupTmp);
 80019a8:	2d04      	cmp	r5, #4
 80019aa:	bf28      	it	cs
 80019ac:	2504      	movcs	r5, #4
  SubPriorityBits     = ((PriorityGroupTmp + (uint32_t)(__NVIC_PRIO_BITS)) < (uint32_t)7UL) ? (uint32_t)0UL : (uint32_t)((PriorityGroupTmp - 7UL) + (uint32_t)(__NVIC_PRIO_BITS));
 80019ae:	2b06      	cmp	r3, #6

  return (
           ((PreemptPriority & (uint32_t)((1UL << (PreemptPriorityBits)) - 1UL)) << SubPriorityBits) |
 80019b0:	f04f 33ff 	mov.w	r3, #4294967295	; 0xffffffff
  SubPriorityBits     = ((PriorityGroupTmp + (uint32_t)(__NVIC_PRIO_BITS)) < (uint32_t)7UL) ? (uint32_t)0UL : (uint32_t)((PriorityGroupTmp - 7UL) + (uint32_t)(__NVIC_PRIO_BITS));
 80019b4:	bf8c      	ite	hi
 80019b6:	3c03      	subhi	r4, #3
 80019b8:	2400      	movls	r4, #0
           ((PreemptPriority & (uint32_t)((1UL << (PreemptPriorityBits)) - 1UL)) << SubPriorityBits) |
 80019ba:	fa03 f505 	lsl.w	r5, r3, r5
 80019be:	ea21 0105 	bic.w	r1, r1, r5
           ((SubPriority     & (uint32_t)((1UL << (SubPriorityBits    )) - 1UL)))
 80019c2:	40a3      	lsls	r3, r4
 80019c4:	ea22 0203 	bic.w	r2, r2, r3
           ((PreemptPriority & (uint32_t)((1UL << (PreemptPriorityBits)) - 1UL)) << SubPriorityBits) |
 80019c8:	40a1      	lsls	r1, r4
  if ((int32_t)(IRQn) >= 0)
 80019ca:	2800      	cmp	r0, #0
           ((PreemptPriority & (uint32_t)((1UL << (PreemptPriorityBits)) - 1UL)) << SubPriorityBits) |
 80019cc:	ea41 0302 	orr.w	r3, r1, r2
    NVIC->IP[((uint32_t)IRQn)]               = (uint8_t)((priority << (8U - __NVIC_PRIO_BITS)) & (uint32_t)0xFFUL);
 80019d0:	bfac      	ite	ge
 80019d2:	f100 4060 	addge.w	r0, r0, #3758096384	; 0xe0000000
    SCB->SHP[(((uint32_t)IRQn) & 0xFUL)-4UL] = (uint8_t)((priority << (8U - __NVIC_PRIO_BITS)) & (uint32_t)0xFFUL);
 80019d6:	4a08      	ldrlt	r2, [pc, #32]	; (80019f8 <HAL_NVIC_SetPriority+0x60>)
    NVIC->IP[((uint32_t)IRQn)]               = (uint8_t)((priority << (8U - __NVIC_PRIO_BITS)) & (uint32_t)0xFFUL);
 80019d8:	ea4f 1303 	mov.w	r3, r3, lsl #4
    SCB->SHP[(((uint32_t)IRQn) & 0xFUL)-4UL] = (uint8_t)((priority << (8U - __NVIC_PRIO_BITS)) & (uint32_t)0xFFUL);
 80019dc:	bfb8      	it	lt
 80019de:	f000 000f 	andlt.w	r0, r0, #15
    NVIC->IP[((uint32_t)IRQn)]               = (uint8_t)((priority << (8U - __NVIC_PRIO_BITS)) & (uint32_t)0xFFUL);
 80019e2:	b2db      	uxtb	r3, r3
 80019e4:	bfaa      	itet	ge
 80019e6:	f500 4061 	addge.w	r0, r0, #57600	; 0xe100
    SCB->SHP[(((uint32_t)IRQn) & 0xFUL)-4UL] = (uint8_t)((priority << (8U - __NVIC_PRIO_BITS)) & (uint32_t)0xFFUL);
 80019ea:	5413      	strblt	r3, [r2, r0]
    NVIC->IP[((uint32_t)IRQn)]               = (uint8_t)((priority << (8U - __NVIC_PRIO_BITS)) & (uint32_t)0xFFUL);
 80019ec:	f880 3300 	strbge.w	r3, [r0, #768]	; 0x300
  assert_param(IS_NVIC_PREEMPTION_PRIORITY(PreemptPriority));
  
  prioritygroup = NVIC_GetPriorityGrouping();
  
  NVIC_SetPriority(IRQn, NVIC_EncodePriority(prioritygroup, PreemptPriority, SubPriority));
}
 80019f0:	bd30      	pop	{r4, r5, pc}
 80019f2:	bf00      	nop
 80019f4:	e000ed00 	.word	0xe000ed00
 80019f8:	e000ed14 	.word	0xe000ed14

080019fc <HAL_NVIC_EnableIRQ>:
  if ((int32_t)(IRQn) >= 0)
 80019fc:	2800      	cmp	r0, #0
 80019fe:	db08      	blt.n	8001a12 <HAL_NVIC_EnableIRQ+0x16>
    NVIC->ISER[(((uint32_t)IRQn) >> 5UL)] = (uint32_t)(1UL << (((uint32_t)IRQn) & 0x1FUL));
 8001a00:	0942      	lsrs	r2, r0, #5
 8001a02:	2301      	movs	r3, #1
 8001a04:	f000 001f 	and.w	r0, r0, #31
 8001a08:	fa03 f000 	lsl.w	r0, r3, r0
 8001a0c:	4b01      	ldr	r3, [pc, #4]	; (8001a14 <HAL_NVIC_EnableIRQ+0x18>)
 8001a0e:	f843 0022 	str.w	r0, [r3, r2, lsl #2]
  /* Check the parameters */
  assert_param(IS_NVIC_DEVICE_IRQ(IRQn));
  
  /* Enable interrupt */
  NVIC_EnableIRQ(IRQn);
}
 8001a12:	4770      	bx	lr
 8001a14:	e000e100 	.word	0xe000e100

08001a18 <HAL_SYSTICK_Config>:
           function <b>SysTick_Config</b> is not included. In this case, the file <b><i>device</i>.h</b>
           must contain a vendor-specific implementation of this function.
 */
__STATIC_INLINE uint32_t SysTick_Config(uint32_t ticks)
{
  if ((ticks - 1UL) > SysTick_LOAD_RELOAD_Msk)
 8001a18:	3801      	subs	r0, #1
 8001a1a:	f1b0 7f80 	cmp.w	r0, #16777216	; 0x1000000
 8001a1e:	d20b      	bcs.n	8001a38 <HAL_SYSTICK_Config+0x20>
  {
    return (1UL);                                                   /* Reload value impossible */
  }

  SysTick->LOAD  = (uint32_t)(ticks - 1UL);                         /* set reload register */
 8001a20:	f04f 23e0 	mov.w	r3, #3758153728	; 0xe000e000
    SCB->SHP[(((uint32_t)IRQn) & 0xFUL)-4UL] = (uint8_t)((priority << (8U - __NVIC_PRIO_BITS)) & (uint32_t)0xFFUL);
 8001a24:	4a05      	ldr	r2, [pc, #20]	; (8001a3c <HAL_SYSTICK_Config+0x24>)
  SysTick->LOAD  = (uint32_t)(ticks - 1UL);                         /* set reload register */
 8001a26:	6158      	str	r0, [r3, #20]
    SCB->SHP[(((uint32_t)IRQn) & 0xFUL)-4UL] = (uint8_t)((priority << (8U - __NVIC_PRIO_BITS)) & (uint32_t)0xFFUL);
 8001a28:	21f0      	movs	r1, #240	; 0xf0
 8001a2a:	f882 1023 	strb.w	r1, [r2, #35]	; 0x23
  NVIC_SetPriority (SysTick_IRQn, (1UL << __NVIC_PRIO_BITS) - 1UL); /* set Priority for Systick Interrupt */
  SysTick->VAL   = 0UL;                                             /* Load the SysTick Counter Value */
 8001a2e:	2000      	movs	r0, #0
  SysTick->CTRL  = SysTick_CTRL_CLKSOURCE_Msk |
 8001a30:	2207      	movs	r2, #7
  SysTick->VAL   = 0UL;                                             /* Load the SysTick Counter Value */
 8001a32:	6198      	str	r0, [r3, #24]
  SysTick->CTRL  = SysTick_CTRL_CLKSOURCE_Msk |
 8001a34:	611a      	str	r2, [r3, #16]
                   SysTick_CTRL_TICKINT_Msk   |
                   SysTick_CTRL_ENABLE_Msk;                         /* Enable SysTick IRQ and SysTick Timer */
  return (0UL);                                                     /* Function successful */
 8001a36:	4770      	bx	lr
    return (1UL);                                                   /* Reload value impossible */
 8001a38:	2001      	movs	r0, #1
  *                  - 1  Function failed.
  */
uint32_t HAL_SYSTICK_Config(uint32_t TicksNumb)
{
   return SysTick_Config(TicksNumb);
}
 8001a3a:	4770      	bx	lr
 8001a3c:	e000ed00 	.word	0xe000ed00

08001a40 <DMA_CalcBaseAndBitshift>:
  *                     the configuration information for the specified DMA Stream. 
  * @retval Stream base address
  */
static uint32_t DMA_CalcBaseAndBitshift(DMA_HandleTypeDef *hdma)
{
  uint32_t stream_number = (((uint32_t)hdma->Instance & 0xFFU) - 16U) / 24U;
 8001a40:	6803      	ldr	r3, [r0, #0]
{
 8001a42:	b510      	push	{r4, lr}
  
  /* lookup table for necessary bitshift of flags within status registers */
  static const uint8_t flagBitshiftOffset[8U] = {0U, 6U, 16U, 22U, 0U, 6U, 16U, 22U};
  hdma->StreamIndex = flagBitshiftOffset[stream_number];
 8001a44:	4c08      	ldr	r4, [pc, #32]	; (8001a68 <DMA_CalcBaseAndBitshift+0x28>)
{
 8001a46:	4602      	mov	r2, r0
  uint32_t stream_number = (((uint32_t)hdma->Instance & 0xFFU) - 16U) / 24U;
 8001a48:	b2d9      	uxtb	r1, r3
 8001a4a:	3910      	subs	r1, #16
 8001a4c:	2018      	movs	r0, #24
 8001a4e:	fbb1 f0f0 	udiv	r0, r1, r0
  hdma->StreamIndex = flagBitshiftOffset[stream_number];
 8001a52:	5c20      	ldrb	r0, [r4, r0]
 8001a54:	65d0      	str	r0, [r2, #92]	; 0x5c
  
  if (stream_number > 3U)
  {
    /* return pointer to HISR and HIFCR */
    hdma->StreamBaseAddress = (((uint32_t)hdma->Instance & (uint32_t)(~0x3FFU)) + 4U);
 8001a56:	f423 707f 	bic.w	r0, r3, #1020	; 0x3fc
 8001a5a:	f020 0003 	bic.w	r0, r0, #3
  if (stream_number > 3U)
 8001a5e:	295f      	cmp	r1, #95	; 0x5f
    hdma->StreamBaseAddress = (((uint32_t)hdma->Instance & (uint32_t)(~0x3FFU)) + 4U);
 8001a60:	bf88      	it	hi
 8001a62:	3004      	addhi	r0, #4
 8001a64:	6590      	str	r0, [r2, #88]	; 0x58
    /* return pointer to LISR and LIFCR */
    hdma->StreamBaseAddress = ((uint32_t)hdma->Instance & (uint32_t)(~0x3FFU));
  }
  
  return hdma->StreamBaseAddress;
}
 8001a66:	bd10      	pop	{r4, pc}
 8001a68:	0800b4ac 	.word	0x0800b4ac

08001a6c <HAL_DMA_Init>:
{
 8001a6c:	b570      	push	{r4, r5, r6, lr}
 8001a6e:	4604      	mov	r4, r0
  uint32_t tickstart = HAL_GetTick();
 8001a70:	f7ff ff66 	bl	8001940 <HAL_GetTick>
 8001a74:	4605      	mov	r5, r0
  if(hdma == NULL)
 8001a76:	2c00      	cmp	r4, #0
 8001a78:	d073      	beq.n	8001b62 <HAL_DMA_Init+0xf6>
  hdma->State = HAL_DMA_STATE_BUSY;
 8001a7a:	2302      	movs	r3, #2
 8001a7c:	f884 3035 	strb.w	r3, [r4, #53]	; 0x35
  __HAL_DMA_DISABLE(hdma);
 8001a80:	6822      	ldr	r2, [r4, #0]
  __HAL_UNLOCK(hdma);
 8001a82:	2300      	movs	r3, #0
 8001a84:	f884 3034 	strb.w	r3, [r4, #52]	; 0x34
  __HAL_DMA_DISABLE(hdma);
 8001a88:	6813      	ldr	r3, [r2, #0]
 8001a8a:	f023 0301 	bic.w	r3, r3, #1
 8001a8e:	6013      	str	r3, [r2, #0]
  while((hdma->Instance->CR & DMA_SxCR_EN) != RESET)
 8001a90:	6821      	ldr	r1, [r4, #0]
 8001a92:	680b      	ldr	r3, [r1, #0]
 8001a94:	07d8      	lsls	r0, r3, #31
 8001a96:	d42f      	bmi.n	8001af8 <HAL_DMA_Init+0x8c>
  tmp = hdma->Instance->CR;
 8001a98:	680b      	ldr	r3, [r1, #0]
  tmp &= ((uint32_t)~(DMA_SxCR_CHSEL | DMA_SxCR_MBURST | DMA_SxCR_PBURST | \
 8001a9a:	4d33      	ldr	r5, [pc, #204]	; (8001b68 <HAL_DMA_Init+0xfc>)
          hdma->Init.PeriphDataAlignment | hdma->Init.MemDataAlignment |
 8001a9c:	69a0      	ldr	r0, [r4, #24]
  tmp &= ((uint32_t)~(DMA_SxCR_CHSEL | DMA_SxCR_MBURST | DMA_SxCR_PBURST | \
 8001a9e:	401d      	ands	r5, r3
  tmp |=  hdma->Init.Channel             | hdma->Init.Direction        |
 8001aa0:	e9d4 2301 	ldrd	r2, r3, [r4, #4]
 8001aa4:	4313      	orrs	r3, r2
 8001aa6:	68e2      	ldr	r2, [r4, #12]
 8001aa8:	4313      	orrs	r3, r2
          hdma->Init.PeriphInc           | hdma->Init.MemInc           |
 8001aaa:	6922      	ldr	r2, [r4, #16]
 8001aac:	4313      	orrs	r3, r2
 8001aae:	6962      	ldr	r2, [r4, #20]
 8001ab0:	4313      	orrs	r3, r2
          hdma->Init.PeriphDataAlignment | hdma->Init.MemDataAlignment |
 8001ab2:	69e2      	ldr	r2, [r4, #28]
 8001ab4:	4303      	orrs	r3, r0
 8001ab6:	4313      	orrs	r3, r2
          hdma->Init.Mode                | hdma->Init.Priority;
 8001ab8:	6a22      	ldr	r2, [r4, #32]
 8001aba:	4313      	orrs	r3, r2
  if(hdma->Init.FIFOMode == DMA_FIFOMODE_ENABLE)
 8001abc:	6a62      	ldr	r2, [r4, #36]	; 0x24
 8001abe:	2a04      	cmp	r2, #4
  tmp |=  hdma->Init.Channel             | hdma->Init.Direction        |
 8001ac0:	ea43 0305 	orr.w	r3, r3, r5
    tmp |=  hdma->Init.MemBurst | hdma->Init.PeriphBurst;
 8001ac4:	bf02      	ittt	eq
 8001ac6:	e9d4 560b 	ldrdeq	r5, r6, [r4, #44]	; 0x2c
 8001aca:	4335      	orreq	r5, r6
 8001acc:	432b      	orreq	r3, r5
  hdma->Instance->CR = tmp;  
 8001ace:	600b      	str	r3, [r1, #0]
  tmp = hdma->Instance->FCR;
 8001ad0:	694b      	ldr	r3, [r1, #20]
  if(hdma->Init.FIFOMode == DMA_FIFOMODE_ENABLE)
 8001ad2:	2a04      	cmp	r2, #4
  tmp &= (uint32_t)~(DMA_SxFCR_DMDIS | DMA_SxFCR_FTH);
 8001ad4:	f023 0307 	bic.w	r3, r3, #7
  tmp |= hdma->Init.FIFOMode;
 8001ad8:	ea43 0302 	orr.w	r3, r3, r2
  if(hdma->Init.FIFOMode == DMA_FIFOMODE_ENABLE)
 8001adc:	d133      	bne.n	8001b46 <HAL_DMA_Init+0xda>
    tmp |= hdma->Init.FIFOThreshold;
 8001ade:	6aa2      	ldr	r2, [r4, #40]	; 0x28
    if (hdma->Init.MemBurst != DMA_MBURST_SINGLE)
 8001ae0:	6ae5      	ldr	r5, [r4, #44]	; 0x2c
    tmp |= hdma->Init.FIFOThreshold;
 8001ae2:	4313      	orrs	r3, r2
    if (hdma->Init.MemBurst != DMA_MBURST_SINGLE)
 8001ae4:	b37d      	cbz	r5, 8001b46 <HAL_DMA_Init+0xda>
{
  HAL_StatusTypeDef status = HAL_OK;
  uint32_t tmp = hdma->Init.FIFOThreshold;
  
  /* Memory Data size equal to Byte */
  if(hdma->Init.MemDataAlignment == DMA_MDATAALIGN_BYTE)
 8001ae6:	b990      	cbnz	r0, 8001b0e <HAL_DMA_Init+0xa2>
  {
    switch (tmp)
 8001ae8:	2a01      	cmp	r2, #1
 8001aea:	d021      	beq.n	8001b30 <HAL_DMA_Init+0xc4>
 8001aec:	f032 0202 	bics.w	r2, r2, #2
 8001af0:	d129      	bne.n	8001b46 <HAL_DMA_Init+0xda>
    case DMA_FIFO_THRESHOLD_HALFFULL:
    case DMA_FIFO_THRESHOLD_3QUARTERSFULL:
      status = HAL_ERROR;
      break;
    case DMA_FIFO_THRESHOLD_FULL:
      if ((hdma->Init.MemBurst & DMA_SxCR_MBURST_1) == DMA_SxCR_MBURST_1)
 8001af2:	01ea      	lsls	r2, r5, #7
 8001af4:	d527      	bpl.n	8001b46 <HAL_DMA_Init+0xda>
 8001af6:	e01e      	b.n	8001b36 <HAL_DMA_Init+0xca>
    if((HAL_GetTick() - tickstart ) > HAL_TIMEOUT_DMA_ABORT)
 8001af8:	f7ff ff22 	bl	8001940 <HAL_GetTick>
 8001afc:	1b40      	subs	r0, r0, r5
 8001afe:	2805      	cmp	r0, #5
 8001b00:	d9c6      	bls.n	8001a90 <HAL_DMA_Init+0x24>
      hdma->ErrorCode = HAL_DMA_ERROR_TIMEOUT;
 8001b02:	2320      	movs	r3, #32
 8001b04:	6563      	str	r3, [r4, #84]	; 0x54
      hdma->State = HAL_DMA_STATE_TIMEOUT;
 8001b06:	2003      	movs	r0, #3
        hdma->State = HAL_DMA_STATE_READY;
 8001b08:	f884 0035 	strb.w	r0, [r4, #53]	; 0x35
}
 8001b0c:	bd70      	pop	{r4, r5, r6, pc}
  else if (hdma->Init.MemDataAlignment == DMA_MDATAALIGN_HALFWORD)
 8001b0e:	f5b0 5f00 	cmp.w	r0, #8192	; 0x2000
 8001b12:	d114      	bne.n	8001b3e <HAL_DMA_Init+0xd2>
    switch (tmp)
 8001b14:	2a03      	cmp	r2, #3
 8001b16:	d816      	bhi.n	8001b46 <HAL_DMA_Init+0xda>
 8001b18:	a001      	add	r0, pc, #4	; (adr r0, 8001b20 <HAL_DMA_Init+0xb4>)
 8001b1a:	f850 f022 	ldr.w	pc, [r0, r2, lsl #2]
 8001b1e:	bf00      	nop
 8001b20:	08001b37 	.word	0x08001b37
 8001b24:	08001af3 	.word	0x08001af3
 8001b28:	08001b37 	.word	0x08001b37
 8001b2c:	08001b31 	.word	0x08001b31
      if (hdma->Init.MemBurst == DMA_MBURST_INC16)
 8001b30:	f1b5 7fc0 	cmp.w	r5, #25165824	; 0x1800000
 8001b34:	d107      	bne.n	8001b46 <HAL_DMA_Init+0xda>
        hdma->ErrorCode = HAL_DMA_ERROR_PARAM;
 8001b36:	2340      	movs	r3, #64	; 0x40
 8001b38:	6563      	str	r3, [r4, #84]	; 0x54
        hdma->State = HAL_DMA_STATE_READY;
 8001b3a:	2001      	movs	r0, #1
 8001b3c:	e7e4      	b.n	8001b08 <HAL_DMA_Init+0x9c>
    switch (tmp)
 8001b3e:	2a02      	cmp	r2, #2
 8001b40:	d9f9      	bls.n	8001b36 <HAL_DMA_Init+0xca>
 8001b42:	2a03      	cmp	r2, #3
 8001b44:	d0d5      	beq.n	8001af2 <HAL_DMA_Init+0x86>
  hdma->Instance->FCR = tmp;
 8001b46:	614b      	str	r3, [r1, #20]
  regs = (DMA_Base_Registers *)DMA_CalcBaseAndBitshift(hdma);
 8001b48:	4620      	mov	r0, r4
 8001b4a:	f7ff ff79 	bl	8001a40 <DMA_CalcBaseAndBitshift>
  regs->IFCR = 0x3FU << hdma->StreamIndex;
 8001b4e:	6de2      	ldr	r2, [r4, #92]	; 0x5c
 8001b50:	233f      	movs	r3, #63	; 0x3f
 8001b52:	4093      	lsls	r3, r2
 8001b54:	6083      	str	r3, [r0, #8]
  hdma->ErrorCode = HAL_DMA_ERROR_NONE;
 8001b56:	2000      	movs	r0, #0
  hdma->State = HAL_DMA_STATE_READY;
 8001b58:	2301      	movs	r3, #1
  hdma->ErrorCode = HAL_DMA_ERROR_NONE;
 8001b5a:	6560      	str	r0, [r4, #84]	; 0x54
  hdma->State = HAL_DMA_STATE_READY;
 8001b5c:	f884 3035 	strb.w	r3, [r4, #53]	; 0x35
  return HAL_OK;
 8001b60:	e7d4      	b.n	8001b0c <HAL_DMA_Init+0xa0>
    return HAL_ERROR;
 8001b62:	2001      	movs	r0, #1
 8001b64:	e7d2      	b.n	8001b0c <HAL_DMA_Init+0xa0>
 8001b66:	bf00      	nop
 8001b68:	f010803f 	.word	0xf010803f

08001b6c <HAL_DMA_DeInit>:
{
 8001b6c:	b538      	push	{r3, r4, r5, lr}
  if(hdma == NULL)
 8001b6e:	4605      	mov	r5, r0
 8001b70:	b320      	cbz	r0, 8001bbc <HAL_DMA_DeInit+0x50>
  if(hdma->State == HAL_DMA_STATE_BUSY)
 8001b72:	f890 3035 	ldrb.w	r3, [r0, #53]	; 0x35
 8001b76:	2b02      	cmp	r3, #2
 8001b78:	b2dc      	uxtb	r4, r3
 8001b7a:	d01d      	beq.n	8001bb8 <HAL_DMA_DeInit+0x4c>
  __HAL_DMA_DISABLE(hdma);
 8001b7c:	6803      	ldr	r3, [r0, #0]
 8001b7e:	681a      	ldr	r2, [r3, #0]
 8001b80:	f022 0201 	bic.w	r2, r2, #1
  hdma->Instance->CR   = 0U;
 8001b84:	2400      	movs	r4, #0
  __HAL_DMA_DISABLE(hdma);
 8001b86:	601a      	str	r2, [r3, #0]
  hdma->Instance->FCR  = 0x00000021U;
 8001b88:	2221      	movs	r2, #33	; 0x21
  hdma->Instance->CR   = 0U;
 8001b8a:	601c      	str	r4, [r3, #0]
  hdma->Instance->NDTR = 0U;
 8001b8c:	605c      	str	r4, [r3, #4]
  hdma->Instance->PAR  = 0U;
 8001b8e:	609c      	str	r4, [r3, #8]
  hdma->Instance->M0AR = 0U;
 8001b90:	60dc      	str	r4, [r3, #12]
  hdma->Instance->M1AR = 0U;
 8001b92:	611c      	str	r4, [r3, #16]
  hdma->Instance->FCR  = 0x00000021U;
 8001b94:	615a      	str	r2, [r3, #20]
  regs = (DMA_Base_Registers *)DMA_CalcBaseAndBitshift(hdma);
 8001b96:	f7ff ff53 	bl	8001a40 <DMA_CalcBaseAndBitshift>
  regs->IFCR = 0x3FU << hdma->StreamIndex;
 8001b9a:	6dea      	ldr	r2, [r5, #92]	; 0x5c
 8001b9c:	233f      	movs	r3, #63	; 0x3f
 8001b9e:	4093      	lsls	r3, r2
  hdma->XferHalfCpltCallback = NULL;
 8001ba0:	e9c5 440f 	strd	r4, r4, [r5, #60]	; 0x3c
  hdma->XferM1HalfCpltCallback = NULL;
 8001ba4:	e9c5 4411 	strd	r4, r4, [r5, #68]	; 0x44
  hdma->XferAbortCallback = NULL;
 8001ba8:	e9c5 4413 	strd	r4, r4, [r5, #76]	; 0x4c
  regs->IFCR = 0x3FU << hdma->StreamIndex;
 8001bac:	6083      	str	r3, [r0, #8]
  hdma->ErrorCode = HAL_DMA_ERROR_NONE;
 8001bae:	656c      	str	r4, [r5, #84]	; 0x54
  __HAL_UNLOCK(hdma);
 8001bb0:	f885 4034 	strb.w	r4, [r5, #52]	; 0x34
  hdma->State = HAL_DMA_STATE_RESET;
 8001bb4:	f885 4035 	strb.w	r4, [r5, #53]	; 0x35
}
 8001bb8:	4620      	mov	r0, r4
 8001bba:	bd38      	pop	{r3, r4, r5, pc}
    return HAL_ERROR;
 8001bbc:	2401      	movs	r4, #1
 8001bbe:	e7fb      	b.n	8001bb8 <HAL_DMA_DeInit+0x4c>

08001bc0 <HAL_DMA2D_Init>:
  * @param  hdma2d pointer to a DMA2D_HandleTypeDef structure that contains
  *                 the configuration information for the DMA2D.
  * @retval HAL status
  */
HAL_StatusTypeDef HAL_DMA2D_Init(DMA2D_HandleTypeDef *hdma2d)
{
 8001bc0:	b510      	push	{r4, lr}
  /* Check the DMA2D peripheral state */
  if (hdma2d == NULL)
 8001bc2:	4604      	mov	r4, r0
 8001bc4:	b330      	cbz	r0, 8001c14 <HAL_DMA2D_Init+0x54>

    /* Init the low level hardware */
    hdma2d->MspInitCallback(hdma2d);
  }
#else
  if (hdma2d->State == HAL_DMA2D_STATE_RESET)
 8001bc6:	f890 3039 	ldrb.w	r3, [r0, #57]	; 0x39
 8001bca:	f003 02ff 	and.w	r2, r3, #255	; 0xff
 8001bce:	b91b      	cbnz	r3, 8001bd8 <HAL_DMA2D_Init+0x18>
  {
    /* Allocate lock resource and initialize it */
    hdma2d->Lock = HAL_UNLOCKED;
 8001bd0:	f880 2038 	strb.w	r2, [r0, #56]	; 0x38
    /* Init the low level hardware */
    HAL_DMA2D_MspInit(hdma2d);
 8001bd4:	f002 fc94 	bl	8004500 <HAL_DMA2D_MspInit>

  /* Change DMA2D peripheral state */
  hdma2d->State = HAL_DMA2D_STATE_BUSY;

  /* DMA2D CR register configuration -------------------------------------------*/
  MODIFY_REG(hdma2d->Instance->CR, DMA2D_CR_MODE, hdma2d->Init.Mode);
 8001bd8:	6822      	ldr	r2, [r4, #0]
 8001bda:	6861      	ldr	r1, [r4, #4]
  hdma2d->State = HAL_DMA2D_STATE_BUSY;
 8001bdc:	2302      	movs	r3, #2
 8001bde:	f884 3039 	strb.w	r3, [r4, #57]	; 0x39
  MODIFY_REG(hdma2d->Instance->CR, DMA2D_CR_MODE, hdma2d->Init.Mode);
 8001be2:	6813      	ldr	r3, [r2, #0]
 8001be4:	f423 3340 	bic.w	r3, r3, #196608	; 0x30000
 8001be8:	430b      	orrs	r3, r1
 8001bea:	6013      	str	r3, [r2, #0]

  /* DMA2D OPFCCR register configuration ---------------------------------------*/
  MODIFY_REG(hdma2d->Instance->OPFCCR, DMA2D_OPFCCR_CM, hdma2d->Init.ColorMode);
 8001bec:	6b53      	ldr	r3, [r2, #52]	; 0x34
 8001bee:	68a1      	ldr	r1, [r4, #8]
 8001bf0:	f023 0307 	bic.w	r3, r3, #7
 8001bf4:	430b      	orrs	r3, r1
 8001bf6:	6353      	str	r3, [r2, #52]	; 0x34

  /* DMA2D OOR register configuration ------------------------------------------*/
  MODIFY_REG(hdma2d->Instance->OOR, DMA2D_OOR_LO, hdma2d->Init.OutputOffset);
 8001bf8:	6c13      	ldr	r3, [r2, #64]	; 0x40
 8001bfa:	68e1      	ldr	r1, [r4, #12]
 8001bfc:	f423 537f 	bic.w	r3, r3, #16320	; 0x3fc0
 8001c00:	f023 033f 	bic.w	r3, r3, #63	; 0x3f
 8001c04:	430b      	orrs	r3, r1
 8001c06:	6413      	str	r3, [r2, #64]	; 0x40


  /* Update error code */
  hdma2d->ErrorCode = HAL_DMA2D_ERROR_NONE;
 8001c08:	2000      	movs	r0, #0

  /* Initialize the DMA2D state*/
  hdma2d->State  = HAL_DMA2D_STATE_READY;
 8001c0a:	2301      	movs	r3, #1
  hdma2d->ErrorCode = HAL_DMA2D_ERROR_NONE;
 8001c0c:	63e0      	str	r0, [r4, #60]	; 0x3c
  hdma2d->State  = HAL_DMA2D_STATE_READY;
 8001c0e:	f884 3039 	strb.w	r3, [r4, #57]	; 0x39

  return HAL_OK;
}
 8001c12:	bd10      	pop	{r4, pc}
    return HAL_ERROR;
 8001c14:	2001      	movs	r0, #1
 8001c16:	e7fc      	b.n	8001c12 <HAL_DMA2D_Init+0x52>

08001c18 <HAL_GPIO_Init>:
  * @param  GPIO_Init pointer to a GPIO_InitTypeDef structure that contains
  *         the configuration information for the specified GPIO peripheral.
  * @retval None
  */
void HAL_GPIO_Init(GPIO_TypeDef  *GPIOx, GPIO_InitTypeDef *GPIO_Init)
{
 8001c18:	e92d 4ff7 	stmdb	sp!, {r0, r1, r2, r4, r5, r6, r7, r8, r9, sl, fp, lr}
      /*--------------------- EXTI Mode Configuration ------------------------*/
      /* Configure the External Interrupt or event for the current IO */
      if((GPIO_Init->Mode & EXTI_MODE) != 0x00U)
      {
        /* Enable SYSCFG Clock */
        __HAL_RCC_SYSCFG_CLK_ENABLE();
 8001c1c:	f8df 91c0 	ldr.w	r9, [pc, #448]	; 8001de0 <HAL_GPIO_Init+0x1c8>
        temp &= ~(0x0FU << (4U * (position & 0x03U)));
        temp |= ((uint32_t)(GPIO_GET_INDEX(GPIOx)) << (4U * (position & 0x03U)));
        SYSCFG->EXTICR[position >> 2U] = temp;

        /* Clear Rising Falling edge configuration */
        temp = EXTI->RTSR;
 8001c20:	4a6d      	ldr	r2, [pc, #436]	; (8001dd8 <HAL_GPIO_Init+0x1c0>)
  for(position = 0U; position < GPIO_NUMBER; position++)
 8001c22:	2300      	movs	r3, #0
    iocurrent = (uint32_t)(GPIO_Init->Pin) & ioposition;
 8001c24:	680d      	ldr	r5, [r1, #0]
    ioposition = 0x01U << position;
 8001c26:	2401      	movs	r4, #1
 8001c28:	409c      	lsls	r4, r3
    iocurrent = (uint32_t)(GPIO_Init->Pin) & ioposition;
 8001c2a:	ea04 0c05 	and.w	ip, r4, r5
    if(iocurrent == ioposition)
 8001c2e:	43ac      	bics	r4, r5
 8001c30:	f040 80b9 	bne.w	8001da6 <HAL_GPIO_Init+0x18e>
      if(((GPIO_Init->Mode & GPIO_MODE) == MODE_OUTPUT) || \
 8001c34:	684d      	ldr	r5, [r1, #4]
 8001c36:	f005 0403 	and.w	r4, r5, #3
 8001c3a:	ea4f 0843 	mov.w	r8, r3, lsl #1
        temp &= ~(GPIO_OSPEEDER_OSPEEDR0 << (position * 2U));
 8001c3e:	2603      	movs	r6, #3
      if(((GPIO_Init->Mode & GPIO_MODE) == MODE_OUTPUT) || \
 8001c40:	1e67      	subs	r7, r4, #1
        temp &= ~(GPIO_OSPEEDER_OSPEEDR0 << (position * 2U));
 8001c42:	fa06 f608 	lsl.w	r6, r6, r8
      if(((GPIO_Init->Mode & GPIO_MODE) == MODE_OUTPUT) || \
 8001c46:	2f01      	cmp	r7, #1
        temp &= ~(GPIO_OSPEEDER_OSPEEDR0 << (position * 2U));
 8001c48:	ea6f 0606 	mvn.w	r6, r6
      if(((GPIO_Init->Mode & GPIO_MODE) == MODE_OUTPUT) || \
 8001c4c:	d834      	bhi.n	8001cb8 <HAL_GPIO_Init+0xa0>
        temp = GPIOx->OSPEEDR; 
 8001c4e:	6887      	ldr	r7, [r0, #8]
        temp &= ~(GPIO_OSPEEDER_OSPEEDR0 << (position * 2U));
 8001c50:	ea07 0e06 	and.w	lr, r7, r6
        temp |= (GPIO_Init->Speed << (position * 2U));
 8001c54:	68cf      	ldr	r7, [r1, #12]
 8001c56:	fa07 f708 	lsl.w	r7, r7, r8
 8001c5a:	ea47 070e 	orr.w	r7, r7, lr
        GPIOx->OSPEEDR = temp;
 8001c5e:	6087      	str	r7, [r0, #8]
        temp = GPIOx->OTYPER;
 8001c60:	6847      	ldr	r7, [r0, #4]
        temp &= ~(GPIO_OTYPER_OT_0 << position) ;
 8001c62:	ea27 0e0c 	bic.w	lr, r7, ip
        temp |= (((GPIO_Init->Mode & OUTPUT_TYPE) >> OUTPUT_TYPE_Pos) << position);
 8001c66:	f3c5 1700 	ubfx	r7, r5, #4, #1
 8001c6a:	409f      	lsls	r7, r3
 8001c6c:	ea47 070e 	orr.w	r7, r7, lr
        GPIOx->OTYPER = temp;
 8001c70:	6047      	str	r7, [r0, #4]
        temp = GPIOx->PUPDR;
 8001c72:	68c7      	ldr	r7, [r0, #12]
        temp &= ~(GPIO_PUPDR_PUPDR0 << (position * 2U));
 8001c74:	ea07 0e06 	and.w	lr, r7, r6
        temp |= ((GPIO_Init->Pull) << (position * 2U));
 8001c78:	688f      	ldr	r7, [r1, #8]
 8001c7a:	fa07 f708 	lsl.w	r7, r7, r8
 8001c7e:	ea47 070e 	orr.w	r7, r7, lr
      if((GPIO_Init->Mode & GPIO_MODE) == MODE_AF)
 8001c82:	2c02      	cmp	r4, #2
        GPIOx->PUPDR = temp;
 8001c84:	60c7      	str	r7, [r0, #12]
      if((GPIO_Init->Mode & GPIO_MODE) == MODE_AF)
 8001c86:	d119      	bne.n	8001cbc <HAL_GPIO_Init+0xa4>
        temp = GPIOx->AFR[position >> 3U];
 8001c88:	ea4f 0ad3 	mov.w	sl, r3, lsr #3
 8001c8c:	eb00 0a8a 	add.w	sl, r0, sl, lsl #2
        temp &= ~(0xFU << ((uint32_t)(position & 0x07U) * 4U)) ;
 8001c90:	f003 0b07 	and.w	fp, r3, #7
        temp = GPIOx->AFR[position >> 3U];
 8001c94:	f8da 7020 	ldr.w	r7, [sl, #32]
        temp &= ~(0xFU << ((uint32_t)(position & 0x07U) * 4U)) ;
 8001c98:	ea4f 0b8b 	mov.w	fp, fp, lsl #2
 8001c9c:	f04f 0e0f 	mov.w	lr, #15
 8001ca0:	fa0e fe0b 	lsl.w	lr, lr, fp
 8001ca4:	ea27 0e0e 	bic.w	lr, r7, lr
        temp |= ((uint32_t)(GPIO_Init->Alternate) << (((uint32_t)position & 0x07U) * 4U));
 8001ca8:	690f      	ldr	r7, [r1, #16]
 8001caa:	fa07 f70b 	lsl.w	r7, r7, fp
 8001cae:	ea47 070e 	orr.w	r7, r7, lr
        GPIOx->AFR[position >> 3U] = temp;
 8001cb2:	f8ca 7020 	str.w	r7, [sl, #32]
 8001cb6:	e001      	b.n	8001cbc <HAL_GPIO_Init+0xa4>
      if((GPIO_Init->Mode & GPIO_MODE) != MODE_ANALOG)
 8001cb8:	2c03      	cmp	r4, #3
 8001cba:	d1da      	bne.n	8001c72 <HAL_GPIO_Init+0x5a>
      temp = GPIOx->MODER;
 8001cbc:	6807      	ldr	r7, [r0, #0]
      temp |= ((GPIO_Init->Mode & GPIO_MODE) << (position * 2U));
 8001cbe:	fa04 f408 	lsl.w	r4, r4, r8
      temp &= ~(GPIO_MODER_MODER0 << (position * 2U));
 8001cc2:	403e      	ands	r6, r7
      temp |= ((GPIO_Init->Mode & GPIO_MODE) << (position * 2U));
 8001cc4:	4326      	orrs	r6, r4
      if((GPIO_Init->Mode & EXTI_MODE) != 0x00U)
 8001cc6:	f415 3f40 	tst.w	r5, #196608	; 0x30000
      GPIOx->MODER = temp;
 8001cca:	6006      	str	r6, [r0, #0]
      if((GPIO_Init->Mode & EXTI_MODE) != 0x00U)
 8001ccc:	d06b      	beq.n	8001da6 <HAL_GPIO_Init+0x18e>
        __HAL_RCC_SYSCFG_CLK_ENABLE();
 8001cce:	f04f 0a00 	mov.w	sl, #0
 8001cd2:	f8cd a004 	str.w	sl, [sp, #4]
 8001cd6:	f8d9 6044 	ldr.w	r6, [r9, #68]	; 0x44
        temp |= ((uint32_t)(GPIO_GET_INDEX(GPIOx)) << (4U * (position & 0x03U)));
 8001cda:	4c40      	ldr	r4, [pc, #256]	; (8001ddc <HAL_GPIO_Init+0x1c4>)
        __HAL_RCC_SYSCFG_CLK_ENABLE();
 8001cdc:	f446 4680 	orr.w	r6, r6, #16384	; 0x4000
 8001ce0:	f8c9 6044 	str.w	r6, [r9, #68]	; 0x44
 8001ce4:	f8d9 6044 	ldr.w	r6, [r9, #68]	; 0x44
 8001ce8:	f406 4680 	and.w	r6, r6, #16384	; 0x4000
 8001cec:	9601      	str	r6, [sp, #4]
 8001cee:	9e01      	ldr	r6, [sp, #4]
        temp = SYSCFG->EXTICR[position >> 2U];
 8001cf0:	f023 0603 	bic.w	r6, r3, #3
 8001cf4:	f106 4680 	add.w	r6, r6, #1073741824	; 0x40000000
 8001cf8:	f506 369c 	add.w	r6, r6, #79872	; 0x13800
        temp &= ~(0x0FU << (4U * (position & 0x03U)));
 8001cfc:	f003 0e03 	and.w	lr, r3, #3
        temp = SYSCFG->EXTICR[position >> 2U];
 8001d00:	f8d6 8008 	ldr.w	r8, [r6, #8]
        temp &= ~(0x0FU << (4U * (position & 0x03U)));
 8001d04:	ea4f 0e8e 	mov.w	lr, lr, lsl #2
 8001d08:	270f      	movs	r7, #15
 8001d0a:	fa07 f70e 	lsl.w	r7, r7, lr
        temp |= ((uint32_t)(GPIO_GET_INDEX(GPIOx)) << (4U * (position & 0x03U)));
 8001d0e:	42a0      	cmp	r0, r4
        temp &= ~(0x0FU << (4U * (position & 0x03U)));
 8001d10:	ea28 0707 	bic.w	r7, r8, r7
        temp |= ((uint32_t)(GPIO_GET_INDEX(GPIOx)) << (4U * (position & 0x03U)));
 8001d14:	d04e      	beq.n	8001db4 <HAL_GPIO_Init+0x19c>
 8001d16:	f504 6480 	add.w	r4, r4, #1024	; 0x400
 8001d1a:	42a0      	cmp	r0, r4
 8001d1c:	d04c      	beq.n	8001db8 <HAL_GPIO_Init+0x1a0>
 8001d1e:	f504 6480 	add.w	r4, r4, #1024	; 0x400
 8001d22:	42a0      	cmp	r0, r4
 8001d24:	d04a      	beq.n	8001dbc <HAL_GPIO_Init+0x1a4>
 8001d26:	f504 6480 	add.w	r4, r4, #1024	; 0x400
 8001d2a:	42a0      	cmp	r0, r4
 8001d2c:	d048      	beq.n	8001dc0 <HAL_GPIO_Init+0x1a8>
 8001d2e:	f504 6480 	add.w	r4, r4, #1024	; 0x400
 8001d32:	42a0      	cmp	r0, r4
 8001d34:	d046      	beq.n	8001dc4 <HAL_GPIO_Init+0x1ac>
 8001d36:	f504 6480 	add.w	r4, r4, #1024	; 0x400
 8001d3a:	42a0      	cmp	r0, r4
 8001d3c:	d044      	beq.n	8001dc8 <HAL_GPIO_Init+0x1b0>
 8001d3e:	f504 6480 	add.w	r4, r4, #1024	; 0x400
 8001d42:	42a0      	cmp	r0, r4
 8001d44:	d042      	beq.n	8001dcc <HAL_GPIO_Init+0x1b4>
 8001d46:	f504 6480 	add.w	r4, r4, #1024	; 0x400
 8001d4a:	42a0      	cmp	r0, r4
 8001d4c:	d040      	beq.n	8001dd0 <HAL_GPIO_Init+0x1b8>
 8001d4e:	f504 6480 	add.w	r4, r4, #1024	; 0x400
 8001d52:	42a0      	cmp	r0, r4
 8001d54:	d03e      	beq.n	8001dd4 <HAL_GPIO_Init+0x1bc>
 8001d56:	f504 6480 	add.w	r4, r4, #1024	; 0x400
 8001d5a:	42a0      	cmp	r0, r4
 8001d5c:	bf0c      	ite	eq
 8001d5e:	2409      	moveq	r4, #9
 8001d60:	240a      	movne	r4, #10
 8001d62:	fa04 f40e 	lsl.w	r4, r4, lr
 8001d66:	433c      	orrs	r4, r7
        SYSCFG->EXTICR[position >> 2U] = temp;
 8001d68:	60b4      	str	r4, [r6, #8]
        temp = EXTI->RTSR;
 8001d6a:	6894      	ldr	r4, [r2, #8]
        temp &= ~((uint32_t)iocurrent);
 8001d6c:	ea6f 060c 	mvn.w	r6, ip
        if((GPIO_Init->Mode & TRIGGER_RISING) != 0x00U)
 8001d70:	02ef      	lsls	r7, r5, #11
        temp &= ~((uint32_t)iocurrent);
 8001d72:	bf54      	ite	pl
 8001d74:	4034      	andpl	r4, r6
        {
          temp |= iocurrent;
 8001d76:	ea4c 0404 	orrmi.w	r4, ip, r4
        }
        EXTI->RTSR = temp;
 8001d7a:	6094      	str	r4, [r2, #8]

        temp = EXTI->FTSR;
 8001d7c:	68d4      	ldr	r4, [r2, #12]
        temp &= ~((uint32_t)iocurrent);
        if((GPIO_Init->Mode & TRIGGER_FALLING) != 0x00U)
 8001d7e:	02af      	lsls	r7, r5, #10
        temp &= ~((uint32_t)iocurrent);
 8001d80:	bf54      	ite	pl
 8001d82:	4034      	andpl	r4, r6
        {
          temp |= iocurrent;
 8001d84:	ea4c 0404 	orrmi.w	r4, ip, r4
        }
        EXTI->FTSR = temp;
 8001d88:	60d4      	str	r4, [r2, #12]

        temp = EXTI->EMR;
 8001d8a:	6854      	ldr	r4, [r2, #4]
        temp &= ~((uint32_t)iocurrent);
        if((GPIO_Init->Mode & EXTI_EVT) != 0x00U)
 8001d8c:	03af      	lsls	r7, r5, #14
        temp &= ~((uint32_t)iocurrent);
 8001d8e:	bf54      	ite	pl
 8001d90:	4034      	andpl	r4, r6
        {
          temp |= iocurrent;
 8001d92:	ea4c 0404 	orrmi.w	r4, ip, r4
        }
        EXTI->EMR = temp;
 8001d96:	6054      	str	r4, [r2, #4]

        /* Clear EXTI line configuration */
        temp = EXTI->IMR;
 8001d98:	6814      	ldr	r4, [r2, #0]
        temp &= ~((uint32_t)iocurrent);
        if((GPIO_Init->Mode & EXTI_IT) != 0x00U)
 8001d9a:	03ed      	lsls	r5, r5, #15
        temp &= ~((uint32_t)iocurrent);
 8001d9c:	bf54      	ite	pl
 8001d9e:	4034      	andpl	r4, r6
        {
          temp |= iocurrent;
 8001da0:	ea4c 0404 	orrmi.w	r4, ip, r4
        }
        EXTI->IMR = temp;
 8001da4:	6014      	str	r4, [r2, #0]
  for(position = 0U; position < GPIO_NUMBER; position++)
 8001da6:	3301      	adds	r3, #1
 8001da8:	2b10      	cmp	r3, #16
 8001daa:	f47f af3b 	bne.w	8001c24 <HAL_GPIO_Init+0xc>
      }
    }
  }
}
 8001dae:	b003      	add	sp, #12
 8001db0:	e8bd 8ff0 	ldmia.w	sp!, {r4, r5, r6, r7, r8, r9, sl, fp, pc}
        temp |= ((uint32_t)(GPIO_GET_INDEX(GPIOx)) << (4U * (position & 0x03U)));
 8001db4:	4654      	mov	r4, sl
 8001db6:	e7d4      	b.n	8001d62 <HAL_GPIO_Init+0x14a>
 8001db8:	2401      	movs	r4, #1
 8001dba:	e7d2      	b.n	8001d62 <HAL_GPIO_Init+0x14a>
 8001dbc:	2402      	movs	r4, #2
 8001dbe:	e7d0      	b.n	8001d62 <HAL_GPIO_Init+0x14a>
 8001dc0:	2403      	movs	r4, #3
 8001dc2:	e7ce      	b.n	8001d62 <HAL_GPIO_Init+0x14a>
 8001dc4:	2404      	movs	r4, #4
 8001dc6:	e7cc      	b.n	8001d62 <HAL_GPIO_Init+0x14a>
 8001dc8:	2405      	movs	r4, #5
 8001dca:	e7ca      	b.n	8001d62 <HAL_GPIO_Init+0x14a>
 8001dcc:	2406      	movs	r4, #6
 8001dce:	e7c8      	b.n	8001d62 <HAL_GPIO_Init+0x14a>
 8001dd0:	2407      	movs	r4, #7
 8001dd2:	e7c6      	b.n	8001d62 <HAL_GPIO_Init+0x14a>
 8001dd4:	2408      	movs	r4, #8
 8001dd6:	e7c4      	b.n	8001d62 <HAL_GPIO_Init+0x14a>
 8001dd8:	40013c00 	.word	0x40013c00
 8001ddc:	40020000 	.word	0x40020000
 8001de0:	40023800 	.word	0x40023800

08001de4 <HAL_GPIO_ReadPin>:
  GPIO_PinState bitstatus;

  /* Check the parameters */
  assert_param(IS_GPIO_PIN(GPIO_Pin));

  if((GPIOx->IDR & GPIO_Pin) != (uint32_t)GPIO_PIN_RESET)
 8001de4:	6903      	ldr	r3, [r0, #16]
 8001de6:	4219      	tst	r1, r3
  else
  {
    bitstatus = GPIO_PIN_RESET;
  }
  return bitstatus;
}
 8001de8:	bf14      	ite	ne
 8001dea:	2001      	movne	r0, #1
 8001dec:	2000      	moveq	r0, #0
 8001dee:	4770      	bx	lr

08001df0 <HAL_GPIO_WritePin>:
{
  /* Check the parameters */
  assert_param(IS_GPIO_PIN(GPIO_Pin));
  assert_param(IS_GPIO_PIN_ACTION(PinState));

  if(PinState != GPIO_PIN_RESET)
 8001df0:	b10a      	cbz	r2, 8001df6 <HAL_GPIO_WritePin+0x6>
  {
    GPIOx->BSRR = GPIO_Pin;
  }
  else
  {
    GPIOx->BSRR = (uint32_t)GPIO_Pin << 16U;
 8001df2:	6181      	str	r1, [r0, #24]
  }
}
 8001df4:	4770      	bx	lr
    GPIOx->BSRR = (uint32_t)GPIO_Pin << 16U;
 8001df6:	0409      	lsls	r1, r1, #16
 8001df8:	e7fb      	b.n	8001df2 <HAL_GPIO_WritePin+0x2>

08001dfa <HAL_GPIO_TogglePin>:

  /* Check the parameters */
  assert_param(IS_GPIO_PIN(GPIO_Pin));

  /* get current Output Data Register value */
  odr = GPIOx->ODR;
 8001dfa:	6943      	ldr	r3, [r0, #20]

  /* Set selected pins that were at low level, and reset ones that were high */
  GPIOx->BSRR = ((odr & GPIO_Pin) << GPIO_NUMBER) | (~odr & GPIO_Pin);
 8001dfc:	ea01 0203 	and.w	r2, r1, r3
 8001e00:	ea21 0103 	bic.w	r1, r1, r3
 8001e04:	ea41 4102 	orr.w	r1, r1, r2, lsl #16
 8001e08:	6181      	str	r1, [r0, #24]
}
 8001e0a:	4770      	bx	lr

08001e0c <HAL_GPIO_EXTI_IRQHandler>:
  * @retval None
  */
void HAL_GPIO_EXTI_IRQHandler(uint16_t GPIO_Pin)
{
  /* EXTI line interrupt detected */
  if(__HAL_GPIO_EXTI_GET_IT(GPIO_Pin) != RESET)
 8001e0c:	4a04      	ldr	r2, [pc, #16]	; (8001e20 <HAL_GPIO_EXTI_IRQHandler+0x14>)
 8001e0e:	6951      	ldr	r1, [r2, #20]
 8001e10:	4201      	tst	r1, r0
{
 8001e12:	b508      	push	{r3, lr}
  if(__HAL_GPIO_EXTI_GET_IT(GPIO_Pin) != RESET)
 8001e14:	d002      	beq.n	8001e1c <HAL_GPIO_EXTI_IRQHandler+0x10>
  {
    __HAL_GPIO_EXTI_CLEAR_IT(GPIO_Pin);
 8001e16:	6150      	str	r0, [r2, #20]
    HAL_GPIO_EXTI_Callback(GPIO_Pin);
 8001e18:	f7fe fc3c 	bl	8000694 <HAL_GPIO_EXTI_Callback>
  }
}
 8001e1c:	bd08      	pop	{r3, pc}
 8001e1e:	bf00      	nop
 8001e20:	40013c00 	.word	0x40013c00

08001e24 <I2C_IsAcknowledgeFailed>:
  *                the configuration information for the specified I2C.
  * @retval HAL status
  */
static HAL_StatusTypeDef I2C_IsAcknowledgeFailed(I2C_HandleTypeDef *hi2c)
{
  if (__HAL_I2C_GET_FLAG(hi2c, I2C_FLAG_AF) == SET)
 8001e24:	6801      	ldr	r1, [r0, #0]
 8001e26:	694b      	ldr	r3, [r1, #20]
 8001e28:	f413 6380 	ands.w	r3, r3, #1024	; 0x400
 8001e2c:	f04f 0200 	mov.w	r2, #0
 8001e30:	d010      	beq.n	8001e54 <I2C_IsAcknowledgeFailed+0x30>
  {
    /* Clear NACKF Flag */
    __HAL_I2C_CLEAR_FLAG(hi2c, I2C_FLAG_AF);
 8001e32:	f46f 6380 	mvn.w	r3, #1024	; 0x400
 8001e36:	614b      	str	r3, [r1, #20]

    hi2c->PreviousState       = I2C_STATE_NONE;
    hi2c->State               = HAL_I2C_STATE_READY;
 8001e38:	2320      	movs	r3, #32
    hi2c->PreviousState       = I2C_STATE_NONE;
 8001e3a:	6302      	str	r2, [r0, #48]	; 0x30
    hi2c->State               = HAL_I2C_STATE_READY;
 8001e3c:	f880 303d 	strb.w	r3, [r0, #61]	; 0x3d
    hi2c->Mode                = HAL_I2C_MODE_NONE;
 8001e40:	f880 203e 	strb.w	r2, [r0, #62]	; 0x3e
    hi2c->ErrorCode           |= HAL_I2C_ERROR_AF;
 8001e44:	6c03      	ldr	r3, [r0, #64]	; 0x40

    /* Process Unlocked */
    __HAL_UNLOCK(hi2c);
 8001e46:	f880 203c 	strb.w	r2, [r0, #60]	; 0x3c
    hi2c->ErrorCode           |= HAL_I2C_ERROR_AF;
 8001e4a:	f043 0304 	orr.w	r3, r3, #4
 8001e4e:	6403      	str	r3, [r0, #64]	; 0x40

    return HAL_ERROR;
 8001e50:	2001      	movs	r0, #1
 8001e52:	4770      	bx	lr
  }
  return HAL_OK;
 8001e54:	4618      	mov	r0, r3
}
 8001e56:	4770      	bx	lr

08001e58 <I2C_WaitOnFlagUntilTimeout>:
{
 8001e58:	e92d 46f8 	stmdb	sp!, {r3, r4, r5, r6, r7, r9, sl, lr}
 8001e5c:	4606      	mov	r6, r0
 8001e5e:	460f      	mov	r7, r1
 8001e60:	4691      	mov	r9, r2
 8001e62:	461d      	mov	r5, r3
  while (__HAL_I2C_GET_FLAG(hi2c, Flag) == Status)
 8001e64:	ea4f 4a11 	mov.w	sl, r1, lsr #16
 8001e68:	6833      	ldr	r3, [r6, #0]
 8001e6a:	f1ba 0f01 	cmp.w	sl, #1
 8001e6e:	bf0c      	ite	eq
 8001e70:	695c      	ldreq	r4, [r3, #20]
 8001e72:	699c      	ldrne	r4, [r3, #24]
 8001e74:	ea27 0404 	bic.w	r4, r7, r4
 8001e78:	b2a4      	uxth	r4, r4
 8001e7a:	fab4 f484 	clz	r4, r4
 8001e7e:	0964      	lsrs	r4, r4, #5
 8001e80:	45a1      	cmp	r9, r4
 8001e82:	d001      	beq.n	8001e88 <I2C_WaitOnFlagUntilTimeout+0x30>
  return HAL_OK;
 8001e84:	2000      	movs	r0, #0
 8001e86:	e017      	b.n	8001eb8 <I2C_WaitOnFlagUntilTimeout+0x60>
    if (Timeout != HAL_MAX_DELAY)
 8001e88:	1c6a      	adds	r2, r5, #1
 8001e8a:	d0ee      	beq.n	8001e6a <I2C_WaitOnFlagUntilTimeout+0x12>
      if (((HAL_GetTick() - Tickstart) > Timeout) || (Timeout == 0U))
 8001e8c:	f7ff fd58 	bl	8001940 <HAL_GetTick>
 8001e90:	9b08      	ldr	r3, [sp, #32]
 8001e92:	1ac0      	subs	r0, r0, r3
 8001e94:	42a8      	cmp	r0, r5
 8001e96:	d801      	bhi.n	8001e9c <I2C_WaitOnFlagUntilTimeout+0x44>
 8001e98:	2d00      	cmp	r5, #0
 8001e9a:	d1e5      	bne.n	8001e68 <I2C_WaitOnFlagUntilTimeout+0x10>
        hi2c->PreviousState     = I2C_STATE_NONE;
 8001e9c:	2300      	movs	r3, #0
        hi2c->State             = HAL_I2C_STATE_READY;
 8001e9e:	2220      	movs	r2, #32
        hi2c->PreviousState     = I2C_STATE_NONE;
 8001ea0:	6333      	str	r3, [r6, #48]	; 0x30
        hi2c->State             = HAL_I2C_STATE_READY;
 8001ea2:	f886 203d 	strb.w	r2, [r6, #61]	; 0x3d
        hi2c->Mode              = HAL_I2C_MODE_NONE;
 8001ea6:	f886 303e 	strb.w	r3, [r6, #62]	; 0x3e
        hi2c->ErrorCode         |= HAL_I2C_ERROR_TIMEOUT;
 8001eaa:	6c32      	ldr	r2, [r6, #64]	; 0x40
        __HAL_UNLOCK(hi2c);
 8001eac:	f886 303c 	strb.w	r3, [r6, #60]	; 0x3c
        hi2c->ErrorCode         |= HAL_I2C_ERROR_TIMEOUT;
 8001eb0:	f042 0220 	orr.w	r2, r2, #32
 8001eb4:	6432      	str	r2, [r6, #64]	; 0x40
        return HAL_ERROR;
 8001eb6:	2001      	movs	r0, #1
}
 8001eb8:	e8bd 86f8 	ldmia.w	sp!, {r3, r4, r5, r6, r7, r9, sl, pc}

08001ebc <I2C_WaitOnMasterAddressFlagUntilTimeout>:
{
 8001ebc:	e92d 41f0 	stmdb	sp!, {r4, r5, r6, r7, r8, lr}
 8001ec0:	4604      	mov	r4, r0
 8001ec2:	460f      	mov	r7, r1
 8001ec4:	4616      	mov	r6, r2
 8001ec6:	4698      	mov	r8, r3
  while (__HAL_I2C_GET_FLAG(hi2c, Flag) == RESET)
 8001ec8:	6825      	ldr	r5, [r4, #0]
 8001eca:	6968      	ldr	r0, [r5, #20]
 8001ecc:	ea27 0000 	bic.w	r0, r7, r0
 8001ed0:	b280      	uxth	r0, r0
 8001ed2:	b1b8      	cbz	r0, 8001f04 <I2C_WaitOnMasterAddressFlagUntilTimeout+0x48>
    if (__HAL_I2C_GET_FLAG(hi2c, I2C_FLAG_AF) == SET)
 8001ed4:	696b      	ldr	r3, [r5, #20]
 8001ed6:	055a      	lsls	r2, r3, #21
 8001ed8:	d516      	bpl.n	8001f08 <I2C_WaitOnMasterAddressFlagUntilTimeout+0x4c>
      SET_BIT(hi2c->Instance->CR1, I2C_CR1_STOP);
 8001eda:	682b      	ldr	r3, [r5, #0]
 8001edc:	f443 7300 	orr.w	r3, r3, #512	; 0x200
 8001ee0:	602b      	str	r3, [r5, #0]
      __HAL_I2C_CLEAR_FLAG(hi2c, I2C_FLAG_AF);
 8001ee2:	f46f 6380 	mvn.w	r3, #1024	; 0x400
 8001ee6:	616b      	str	r3, [r5, #20]
      hi2c->State               = HAL_I2C_STATE_READY;
 8001ee8:	2220      	movs	r2, #32
      hi2c->PreviousState       = I2C_STATE_NONE;
 8001eea:	2300      	movs	r3, #0
 8001eec:	6323      	str	r3, [r4, #48]	; 0x30
      hi2c->State               = HAL_I2C_STATE_READY;
 8001eee:	f884 203d 	strb.w	r2, [r4, #61]	; 0x3d
      hi2c->Mode                = HAL_I2C_MODE_NONE;
 8001ef2:	f884 303e 	strb.w	r3, [r4, #62]	; 0x3e
      hi2c->ErrorCode           |= HAL_I2C_ERROR_AF;
 8001ef6:	6c22      	ldr	r2, [r4, #64]	; 0x40
 8001ef8:	f042 0204 	orr.w	r2, r2, #4
        hi2c->ErrorCode           |= HAL_I2C_ERROR_TIMEOUT;
 8001efc:	6422      	str	r2, [r4, #64]	; 0x40
        __HAL_UNLOCK(hi2c);
 8001efe:	f884 303c 	strb.w	r3, [r4, #60]	; 0x3c
        return HAL_ERROR;
 8001f02:	2001      	movs	r0, #1
}
 8001f04:	e8bd 81f0 	ldmia.w	sp!, {r4, r5, r6, r7, r8, pc}
    if (Timeout != HAL_MAX_DELAY)
 8001f08:	1c73      	adds	r3, r6, #1
 8001f0a:	d0de      	beq.n	8001eca <I2C_WaitOnMasterAddressFlagUntilTimeout+0xe>
      if (((HAL_GetTick() - Tickstart) > Timeout) || (Timeout == 0U))
 8001f0c:	f7ff fd18 	bl	8001940 <HAL_GetTick>
 8001f10:	eba0 0008 	sub.w	r0, r0, r8
 8001f14:	42b0      	cmp	r0, r6
 8001f16:	d801      	bhi.n	8001f1c <I2C_WaitOnMasterAddressFlagUntilTimeout+0x60>
 8001f18:	2e00      	cmp	r6, #0
 8001f1a:	d1d5      	bne.n	8001ec8 <I2C_WaitOnMasterAddressFlagUntilTimeout+0xc>
        hi2c->PreviousState       = I2C_STATE_NONE;
 8001f1c:	2300      	movs	r3, #0
        hi2c->State               = HAL_I2C_STATE_READY;
 8001f1e:	2220      	movs	r2, #32
        hi2c->PreviousState       = I2C_STATE_NONE;
 8001f20:	6323      	str	r3, [r4, #48]	; 0x30
        hi2c->State               = HAL_I2C_STATE_READY;
 8001f22:	f884 203d 	strb.w	r2, [r4, #61]	; 0x3d
        hi2c->Mode                = HAL_I2C_MODE_NONE;
 8001f26:	f884 303e 	strb.w	r3, [r4, #62]	; 0x3e
        hi2c->ErrorCode           |= HAL_I2C_ERROR_TIMEOUT;
 8001f2a:	6c22      	ldr	r2, [r4, #64]	; 0x40
 8001f2c:	f042 0220 	orr.w	r2, r2, #32
 8001f30:	e7e4      	b.n	8001efc <I2C_WaitOnMasterAddressFlagUntilTimeout+0x40>

08001f32 <I2C_WaitOnRXNEFlagUntilTimeout>:
{
 8001f32:	b570      	push	{r4, r5, r6, lr}
 8001f34:	4604      	mov	r4, r0
 8001f36:	460d      	mov	r5, r1
 8001f38:	4616      	mov	r6, r2
  while (__HAL_I2C_GET_FLAG(hi2c, I2C_FLAG_RXNE) == RESET)
 8001f3a:	6821      	ldr	r1, [r4, #0]
 8001f3c:	694b      	ldr	r3, [r1, #20]
 8001f3e:	f013 0340 	ands.w	r3, r3, #64	; 0x40
 8001f42:	d001      	beq.n	8001f48 <I2C_WaitOnRXNEFlagUntilTimeout+0x16>
  return HAL_OK;
 8001f44:	2000      	movs	r0, #0
 8001f46:	e010      	b.n	8001f6a <I2C_WaitOnRXNEFlagUntilTimeout+0x38>
    if (__HAL_I2C_GET_FLAG(hi2c, I2C_FLAG_STOPF) == SET)
 8001f48:	694a      	ldr	r2, [r1, #20]
 8001f4a:	06d2      	lsls	r2, r2, #27
 8001f4c:	d50e      	bpl.n	8001f6c <I2C_WaitOnRXNEFlagUntilTimeout+0x3a>
      __HAL_I2C_CLEAR_FLAG(hi2c, I2C_FLAG_STOPF);
 8001f4e:	f06f 0210 	mvn.w	r2, #16
 8001f52:	614a      	str	r2, [r1, #20]
      hi2c->State               = HAL_I2C_STATE_READY;
 8001f54:	2220      	movs	r2, #32
      hi2c->PreviousState       = I2C_STATE_NONE;
 8001f56:	6323      	str	r3, [r4, #48]	; 0x30
      hi2c->State               = HAL_I2C_STATE_READY;
 8001f58:	f884 203d 	strb.w	r2, [r4, #61]	; 0x3d
      hi2c->Mode                = HAL_I2C_MODE_NONE;
 8001f5c:	f884 303e 	strb.w	r3, [r4, #62]	; 0x3e
      hi2c->ErrorCode           |= HAL_I2C_ERROR_NONE;
 8001f60:	6c22      	ldr	r2, [r4, #64]	; 0x40
      hi2c->ErrorCode           |= HAL_I2C_ERROR_TIMEOUT;
 8001f62:	6422      	str	r2, [r4, #64]	; 0x40
      __HAL_UNLOCK(hi2c);
 8001f64:	f884 303c 	strb.w	r3, [r4, #60]	; 0x3c
      return HAL_ERROR;
 8001f68:	2001      	movs	r0, #1
}
 8001f6a:	bd70      	pop	{r4, r5, r6, pc}
    if (((HAL_GetTick() - Tickstart) > Timeout) || (Timeout == 0U))
 8001f6c:	f7ff fce8 	bl	8001940 <HAL_GetTick>
 8001f70:	1b80      	subs	r0, r0, r6
 8001f72:	42a8      	cmp	r0, r5
 8001f74:	d801      	bhi.n	8001f7a <I2C_WaitOnRXNEFlagUntilTimeout+0x48>
 8001f76:	2d00      	cmp	r5, #0
 8001f78:	d1df      	bne.n	8001f3a <I2C_WaitOnRXNEFlagUntilTimeout+0x8>
      hi2c->PreviousState       = I2C_STATE_NONE;
 8001f7a:	2300      	movs	r3, #0
      hi2c->State               = HAL_I2C_STATE_READY;
 8001f7c:	2220      	movs	r2, #32
      hi2c->PreviousState       = I2C_STATE_NONE;
 8001f7e:	6323      	str	r3, [r4, #48]	; 0x30
      hi2c->State               = HAL_I2C_STATE_READY;
 8001f80:	f884 203d 	strb.w	r2, [r4, #61]	; 0x3d
      hi2c->Mode                = HAL_I2C_MODE_NONE;
 8001f84:	f884 303e 	strb.w	r3, [r4, #62]	; 0x3e
      hi2c->ErrorCode           |= HAL_I2C_ERROR_TIMEOUT;
 8001f88:	6c22      	ldr	r2, [r4, #64]	; 0x40
 8001f8a:	f042 0220 	orr.w	r2, r2, #32
 8001f8e:	e7e8      	b.n	8001f62 <I2C_WaitOnRXNEFlagUntilTimeout+0x30>

08001f90 <I2C_WaitOnBTFFlagUntilTimeout>:
{
 8001f90:	b570      	push	{r4, r5, r6, lr}
 8001f92:	4604      	mov	r4, r0
 8001f94:	460d      	mov	r5, r1
 8001f96:	4616      	mov	r6, r2
  while (__HAL_I2C_GET_FLAG(hi2c, I2C_FLAG_BTF) == RESET)
 8001f98:	6823      	ldr	r3, [r4, #0]
 8001f9a:	695b      	ldr	r3, [r3, #20]
 8001f9c:	075b      	lsls	r3, r3, #29
 8001f9e:	d501      	bpl.n	8001fa4 <I2C_WaitOnBTFFlagUntilTimeout+0x14>
  return HAL_OK;
 8001fa0:	2000      	movs	r0, #0
}
 8001fa2:	bd70      	pop	{r4, r5, r6, pc}
    if (I2C_IsAcknowledgeFailed(hi2c) != HAL_OK)
 8001fa4:	4620      	mov	r0, r4
 8001fa6:	f7ff ff3d 	bl	8001e24 <I2C_IsAcknowledgeFailed>
 8001faa:	b9a8      	cbnz	r0, 8001fd8 <I2C_WaitOnBTFFlagUntilTimeout+0x48>
    if (Timeout != HAL_MAX_DELAY)
 8001fac:	1c6a      	adds	r2, r5, #1
 8001fae:	d0f3      	beq.n	8001f98 <I2C_WaitOnBTFFlagUntilTimeout+0x8>
      if (((HAL_GetTick() - Tickstart) > Timeout) || (Timeout == 0U))
 8001fb0:	f7ff fcc6 	bl	8001940 <HAL_GetTick>
 8001fb4:	1b80      	subs	r0, r0, r6
 8001fb6:	42a8      	cmp	r0, r5
 8001fb8:	d801      	bhi.n	8001fbe <I2C_WaitOnBTFFlagUntilTimeout+0x2e>
 8001fba:	2d00      	cmp	r5, #0
 8001fbc:	d1ec      	bne.n	8001f98 <I2C_WaitOnBTFFlagUntilTimeout+0x8>
        hi2c->PreviousState       = I2C_STATE_NONE;
 8001fbe:	2300      	movs	r3, #0
        hi2c->State               = HAL_I2C_STATE_READY;
 8001fc0:	2220      	movs	r2, #32
        hi2c->PreviousState       = I2C_STATE_NONE;
 8001fc2:	6323      	str	r3, [r4, #48]	; 0x30
        hi2c->State               = HAL_I2C_STATE_READY;
 8001fc4:	f884 203d 	strb.w	r2, [r4, #61]	; 0x3d
        hi2c->Mode                = HAL_I2C_MODE_NONE;
 8001fc8:	f884 303e 	strb.w	r3, [r4, #62]	; 0x3e
        hi2c->ErrorCode           |= HAL_I2C_ERROR_TIMEOUT;
 8001fcc:	6c22      	ldr	r2, [r4, #64]	; 0x40
        __HAL_UNLOCK(hi2c);
 8001fce:	f884 303c 	strb.w	r3, [r4, #60]	; 0x3c
        hi2c->ErrorCode           |= HAL_I2C_ERROR_TIMEOUT;
 8001fd2:	f042 0220 	orr.w	r2, r2, #32
 8001fd6:	6422      	str	r2, [r4, #64]	; 0x40
      return HAL_ERROR;
 8001fd8:	2001      	movs	r0, #1
 8001fda:	e7e2      	b.n	8001fa2 <I2C_WaitOnBTFFlagUntilTimeout+0x12>

08001fdc <I2C_WaitOnTXEFlagUntilTimeout>:
{
 8001fdc:	b570      	push	{r4, r5, r6, lr}
 8001fde:	4604      	mov	r4, r0
 8001fe0:	460d      	mov	r5, r1
 8001fe2:	4616      	mov	r6, r2
  while (__HAL_I2C_GET_FLAG(hi2c, I2C_FLAG_TXE) == RESET)
 8001fe4:	6823      	ldr	r3, [r4, #0]
 8001fe6:	695b      	ldr	r3, [r3, #20]
 8001fe8:	061b      	lsls	r3, r3, #24
 8001fea:	d501      	bpl.n	8001ff0 <I2C_WaitOnTXEFlagUntilTimeout+0x14>
  return HAL_OK;
 8001fec:	2000      	movs	r0, #0
}
 8001fee:	bd70      	pop	{r4, r5, r6, pc}
    if (I2C_IsAcknowledgeFailed(hi2c) != HAL_OK)
 8001ff0:	4620      	mov	r0, r4
 8001ff2:	f7ff ff17 	bl	8001e24 <I2C_IsAcknowledgeFailed>
 8001ff6:	b9a8      	cbnz	r0, 8002024 <I2C_WaitOnTXEFlagUntilTimeout+0x48>
    if (Timeout != HAL_MAX_DELAY)
 8001ff8:	1c6a      	adds	r2, r5, #1
 8001ffa:	d0f3      	beq.n	8001fe4 <I2C_WaitOnTXEFlagUntilTimeout+0x8>
      if (((HAL_GetTick() - Tickstart) > Timeout) || (Timeout == 0U))
 8001ffc:	f7ff fca0 	bl	8001940 <HAL_GetTick>
 8002000:	1b80      	subs	r0, r0, r6
 8002002:	42a8      	cmp	r0, r5
 8002004:	d801      	bhi.n	800200a <I2C_WaitOnTXEFlagUntilTimeout+0x2e>
 8002006:	2d00      	cmp	r5, #0
 8002008:	d1ec      	bne.n	8001fe4 <I2C_WaitOnTXEFlagUntilTimeout+0x8>
        hi2c->PreviousState       = I2C_STATE_NONE;
 800200a:	2300      	movs	r3, #0
        hi2c->State               = HAL_I2C_STATE_READY;
 800200c:	2220      	movs	r2, #32
        hi2c->PreviousState       = I2C_STATE_NONE;
 800200e:	6323      	str	r3, [r4, #48]	; 0x30
        hi2c->State               = HAL_I2C_STATE_READY;
 8002010:	f884 203d 	strb.w	r2, [r4, #61]	; 0x3d
        hi2c->Mode                = HAL_I2C_MODE_NONE;
 8002014:	f884 303e 	strb.w	r3, [r4, #62]	; 0x3e
        hi2c->ErrorCode           |= HAL_I2C_ERROR_TIMEOUT;
 8002018:	6c22      	ldr	r2, [r4, #64]	; 0x40
        __HAL_UNLOCK(hi2c);
 800201a:	f884 303c 	strb.w	r3, [r4, #60]	; 0x3c
        hi2c->ErrorCode           |= HAL_I2C_ERROR_TIMEOUT;
 800201e:	f042 0220 	orr.w	r2, r2, #32
 8002022:	6422      	str	r2, [r4, #64]	; 0x40
      return HAL_ERROR;
 8002024:	2001      	movs	r0, #1
 8002026:	e7e2      	b.n	8001fee <I2C_WaitOnTXEFlagUntilTimeout+0x12>

08002028 <I2C_RequestMemoryWrite>:
{
 8002028:	e92d 43f0 	stmdb	sp!, {r4, r5, r6, r7, r8, r9, lr}
 800202c:	4615      	mov	r5, r2
  SET_BIT(hi2c->Instance->CR1, I2C_CR1_START);
 800202e:	6802      	ldr	r2, [r0, #0]
{
 8002030:	b085      	sub	sp, #20
 8002032:	e9dd 780c 	ldrd	r7, r8, [sp, #48]	; 0x30
 8002036:	4699      	mov	r9, r3
  SET_BIT(hi2c->Instance->CR1, I2C_CR1_START);
 8002038:	6813      	ldr	r3, [r2, #0]
 800203a:	f443 7380 	orr.w	r3, r3, #256	; 0x100
 800203e:	6013      	str	r3, [r2, #0]
{
 8002040:	460e      	mov	r6, r1
  if (I2C_WaitOnFlagUntilTimeout(hi2c, I2C_FLAG_SB, RESET, Timeout, Tickstart) != HAL_OK)
 8002042:	463b      	mov	r3, r7
 8002044:	f8cd 8000 	str.w	r8, [sp]
 8002048:	2200      	movs	r2, #0
 800204a:	f04f 1101 	mov.w	r1, #65537	; 0x10001
{
 800204e:	4604      	mov	r4, r0
  if (I2C_WaitOnFlagUntilTimeout(hi2c, I2C_FLAG_SB, RESET, Timeout, Tickstart) != HAL_OK)
 8002050:	f7ff ff02 	bl	8001e58 <I2C_WaitOnFlagUntilTimeout>
 8002054:	6823      	ldr	r3, [r4, #0]
 8002056:	b138      	cbz	r0, 8002068 <I2C_RequestMemoryWrite+0x40>
    if (READ_BIT(hi2c->Instance->CR1, I2C_CR1_START) == I2C_CR1_START)
 8002058:	681b      	ldr	r3, [r3, #0]
 800205a:	05db      	lsls	r3, r3, #23
 800205c:	d502      	bpl.n	8002064 <I2C_RequestMemoryWrite+0x3c>
      hi2c->ErrorCode = HAL_I2C_WRONG_START;
 800205e:	f44f 7300 	mov.w	r3, #512	; 0x200
 8002062:	6423      	str	r3, [r4, #64]	; 0x40
    return HAL_TIMEOUT;
 8002064:	2003      	movs	r0, #3
 8002066:	e00a      	b.n	800207e <I2C_RequestMemoryWrite+0x56>
  hi2c->Instance->DR = I2C_7BIT_ADD_WRITE(DevAddress);
 8002068:	f006 06fe 	and.w	r6, r6, #254	; 0xfe
 800206c:	611e      	str	r6, [r3, #16]
  if (I2C_WaitOnMasterAddressFlagUntilTimeout(hi2c, I2C_FLAG_ADDR, Timeout, Tickstart) != HAL_OK)
 800206e:	4919      	ldr	r1, [pc, #100]	; (80020d4 <I2C_RequestMemoryWrite+0xac>)
 8002070:	4643      	mov	r3, r8
 8002072:	463a      	mov	r2, r7
 8002074:	4620      	mov	r0, r4
 8002076:	f7ff ff21 	bl	8001ebc <I2C_WaitOnMasterAddressFlagUntilTimeout>
 800207a:	b118      	cbz	r0, 8002084 <I2C_RequestMemoryWrite+0x5c>
      return HAL_ERROR;
 800207c:	2001      	movs	r0, #1
}
 800207e:	b005      	add	sp, #20
 8002080:	e8bd 83f0 	ldmia.w	sp!, {r4, r5, r6, r7, r8, r9, pc}
  __HAL_I2C_CLEAR_ADDRFLAG(hi2c);
 8002084:	6823      	ldr	r3, [r4, #0]
 8002086:	9003      	str	r0, [sp, #12]
 8002088:	695a      	ldr	r2, [r3, #20]
 800208a:	9203      	str	r2, [sp, #12]
 800208c:	699b      	ldr	r3, [r3, #24]
 800208e:	9303      	str	r3, [sp, #12]
  if (I2C_WaitOnTXEFlagUntilTimeout(hi2c, Timeout, Tickstart) != HAL_OK)
 8002090:	4642      	mov	r2, r8
 8002092:	4639      	mov	r1, r7
 8002094:	4620      	mov	r0, r4
  __HAL_I2C_CLEAR_ADDRFLAG(hi2c);
 8002096:	9b03      	ldr	r3, [sp, #12]
  if (I2C_WaitOnTXEFlagUntilTimeout(hi2c, Timeout, Tickstart) != HAL_OK)
 8002098:	f7ff ffa0 	bl	8001fdc <I2C_WaitOnTXEFlagUntilTimeout>
 800209c:	b140      	cbz	r0, 80020b0 <I2C_RequestMemoryWrite+0x88>
      if (hi2c->ErrorCode == HAL_I2C_ERROR_AF)
 800209e:	6c23      	ldr	r3, [r4, #64]	; 0x40
 80020a0:	2b04      	cmp	r3, #4
        SET_BIT(hi2c->Instance->CR1, I2C_CR1_STOP);
 80020a2:	bf01      	itttt	eq
 80020a4:	6822      	ldreq	r2, [r4, #0]
 80020a6:	6813      	ldreq	r3, [r2, #0]
 80020a8:	f443 7300 	orreq.w	r3, r3, #512	; 0x200
 80020ac:	6013      	streq	r3, [r2, #0]
 80020ae:	e7e5      	b.n	800207c <I2C_RequestMemoryWrite+0x54>
  if (MemAddSize == I2C_MEMADD_SIZE_8BIT)
 80020b0:	f1b9 0f01 	cmp.w	r9, #1
      SET_BIT(hi2c->Instance->CR1, I2C_CR1_STOP);
 80020b4:	6823      	ldr	r3, [r4, #0]
  if (MemAddSize == I2C_MEMADD_SIZE_8BIT)
 80020b6:	d102      	bne.n	80020be <I2C_RequestMemoryWrite+0x96>
    hi2c->Instance->DR = I2C_MEM_ADD_LSB(MemAddress);
 80020b8:	b2ed      	uxtb	r5, r5
 80020ba:	611d      	str	r5, [r3, #16]
 80020bc:	e7df      	b.n	800207e <I2C_RequestMemoryWrite+0x56>
    hi2c->Instance->DR = I2C_MEM_ADD_MSB(MemAddress);
 80020be:	0a2a      	lsrs	r2, r5, #8
 80020c0:	611a      	str	r2, [r3, #16]
    if (I2C_WaitOnTXEFlagUntilTimeout(hi2c, Timeout, Tickstart) != HAL_OK)
 80020c2:	4639      	mov	r1, r7
 80020c4:	4642      	mov	r2, r8
 80020c6:	4620      	mov	r0, r4
 80020c8:	f7ff ff88 	bl	8001fdc <I2C_WaitOnTXEFlagUntilTimeout>
 80020cc:	2800      	cmp	r0, #0
 80020ce:	d1e6      	bne.n	800209e <I2C_RequestMemoryWrite+0x76>
    hi2c->Instance->DR = I2C_MEM_ADD_LSB(MemAddress);
 80020d0:	6823      	ldr	r3, [r4, #0]
 80020d2:	e7f1      	b.n	80020b8 <I2C_RequestMemoryWrite+0x90>
 80020d4:	00010002 	.word	0x00010002

080020d8 <I2C_RequestMemoryRead>:
{
 80020d8:	e92d 47ff 	stmdb	sp!, {r0, r1, r2, r3, r4, r5, r6, r7, r8, r9, sl, lr}
 80020dc:	469a      	mov	sl, r3
  SET_BIT(hi2c->Instance->CR1, I2C_CR1_ACK);
 80020de:	6803      	ldr	r3, [r0, #0]
{
 80020e0:	4615      	mov	r5, r2
  SET_BIT(hi2c->Instance->CR1, I2C_CR1_ACK);
 80020e2:	681a      	ldr	r2, [r3, #0]
 80020e4:	f442 6280 	orr.w	r2, r2, #1024	; 0x400
 80020e8:	601a      	str	r2, [r3, #0]
  SET_BIT(hi2c->Instance->CR1, I2C_CR1_START);
 80020ea:	681a      	ldr	r2, [r3, #0]
{
 80020ec:	e9dd 780c 	ldrd	r7, r8, [sp, #48]	; 0x30
  SET_BIT(hi2c->Instance->CR1, I2C_CR1_START);
 80020f0:	f442 7280 	orr.w	r2, r2, #256	; 0x100
 80020f4:	601a      	str	r2, [r3, #0]
{
 80020f6:	460e      	mov	r6, r1
  if (I2C_WaitOnFlagUntilTimeout(hi2c, I2C_FLAG_SB, RESET, Timeout, Tickstart) != HAL_OK)
 80020f8:	463b      	mov	r3, r7
 80020fa:	f8cd 8000 	str.w	r8, [sp]
 80020fe:	2200      	movs	r2, #0
 8002100:	f04f 1101 	mov.w	r1, #65537	; 0x10001
{
 8002104:	4604      	mov	r4, r0
  if (I2C_WaitOnFlagUntilTimeout(hi2c, I2C_FLAG_SB, RESET, Timeout, Tickstart) != HAL_OK)
 8002106:	f7ff fea7 	bl	8001e58 <I2C_WaitOnFlagUntilTimeout>
 800210a:	6823      	ldr	r3, [r4, #0]
 800210c:	b148      	cbz	r0, 8002122 <I2C_RequestMemoryRead+0x4a>
    if (READ_BIT(hi2c->Instance->CR1, I2C_CR1_START) == I2C_CR1_START)
 800210e:	681b      	ldr	r3, [r3, #0]
    if (READ_BIT(hi2c->Instance->CR1, I2C_CR1_START) == I2C_CR1_START)
 8002110:	05db      	lsls	r3, r3, #23
 8002112:	d502      	bpl.n	800211a <I2C_RequestMemoryRead+0x42>
      hi2c->ErrorCode = HAL_I2C_WRONG_START;
 8002114:	f44f 7300 	mov.w	r3, #512	; 0x200
 8002118:	6423      	str	r3, [r4, #64]	; 0x40
    return HAL_TIMEOUT;
 800211a:	2003      	movs	r0, #3
}
 800211c:	b004      	add	sp, #16
 800211e:	e8bd 87f0 	ldmia.w	sp!, {r4, r5, r6, r7, r8, r9, sl, pc}
  hi2c->Instance->DR = I2C_7BIT_ADD_WRITE(DevAddress);
 8002122:	fa5f f986 	uxtb.w	r9, r6
 8002126:	f006 06fe 	and.w	r6, r6, #254	; 0xfe
 800212a:	611e      	str	r6, [r3, #16]
  if (I2C_WaitOnMasterAddressFlagUntilTimeout(hi2c, I2C_FLAG_ADDR, Timeout, Tickstart) != HAL_OK)
 800212c:	492a      	ldr	r1, [pc, #168]	; (80021d8 <I2C_RequestMemoryRead+0x100>)
 800212e:	4643      	mov	r3, r8
 8002130:	463a      	mov	r2, r7
 8002132:	4620      	mov	r0, r4
 8002134:	f7ff fec2 	bl	8001ebc <I2C_WaitOnMasterAddressFlagUntilTimeout>
 8002138:	b108      	cbz	r0, 800213e <I2C_RequestMemoryRead+0x66>
    return HAL_ERROR;
 800213a:	2001      	movs	r0, #1
 800213c:	e7ee      	b.n	800211c <I2C_RequestMemoryRead+0x44>
  __HAL_I2C_CLEAR_ADDRFLAG(hi2c);
 800213e:	6823      	ldr	r3, [r4, #0]
 8002140:	9003      	str	r0, [sp, #12]
 8002142:	695a      	ldr	r2, [r3, #20]
 8002144:	9203      	str	r2, [sp, #12]
 8002146:	699b      	ldr	r3, [r3, #24]
 8002148:	9303      	str	r3, [sp, #12]
  if (I2C_WaitOnTXEFlagUntilTimeout(hi2c, Timeout, Tickstart) != HAL_OK)
 800214a:	4642      	mov	r2, r8
 800214c:	4639      	mov	r1, r7
 800214e:	4620      	mov	r0, r4
  __HAL_I2C_CLEAR_ADDRFLAG(hi2c);
 8002150:	9b03      	ldr	r3, [sp, #12]
  if (I2C_WaitOnTXEFlagUntilTimeout(hi2c, Timeout, Tickstart) != HAL_OK)
 8002152:	f7ff ff43 	bl	8001fdc <I2C_WaitOnTXEFlagUntilTimeout>
 8002156:	b140      	cbz	r0, 800216a <I2C_RequestMemoryRead+0x92>
    if (hi2c->ErrorCode == HAL_I2C_ERROR_AF)
 8002158:	6c23      	ldr	r3, [r4, #64]	; 0x40
 800215a:	2b04      	cmp	r3, #4
      SET_BIT(hi2c->Instance->CR1, I2C_CR1_STOP);
 800215c:	bf01      	itttt	eq
 800215e:	6822      	ldreq	r2, [r4, #0]
 8002160:	6813      	ldreq	r3, [r2, #0]
 8002162:	f443 7300 	orreq.w	r3, r3, #512	; 0x200
 8002166:	6013      	streq	r3, [r2, #0]
 8002168:	e7e7      	b.n	800213a <I2C_RequestMemoryRead+0x62>
  if (MemAddSize == I2C_MEMADD_SIZE_8BIT)
 800216a:	f1ba 0f01 	cmp.w	sl, #1
      SET_BIT(hi2c->Instance->CR1, I2C_CR1_STOP);
 800216e:	6823      	ldr	r3, [r4, #0]
  if (MemAddSize == I2C_MEMADD_SIZE_8BIT)
 8002170:	d11a      	bne.n	80021a8 <I2C_RequestMemoryRead+0xd0>
    hi2c->Instance->DR = I2C_MEM_ADD_LSB(MemAddress);
 8002172:	b2ed      	uxtb	r5, r5
 8002174:	611d      	str	r5, [r3, #16]
  if (I2C_WaitOnTXEFlagUntilTimeout(hi2c, Timeout, Tickstart) != HAL_OK)
 8002176:	4642      	mov	r2, r8
 8002178:	4639      	mov	r1, r7
 800217a:	4620      	mov	r0, r4
 800217c:	f7ff ff2e 	bl	8001fdc <I2C_WaitOnTXEFlagUntilTimeout>
 8002180:	2800      	cmp	r0, #0
 8002182:	d1e9      	bne.n	8002158 <I2C_RequestMemoryRead+0x80>
  SET_BIT(hi2c->Instance->CR1, I2C_CR1_START);
 8002184:	6822      	ldr	r2, [r4, #0]
 8002186:	6813      	ldr	r3, [r2, #0]
 8002188:	f443 7380 	orr.w	r3, r3, #256	; 0x100
 800218c:	6013      	str	r3, [r2, #0]
  if (I2C_WaitOnFlagUntilTimeout(hi2c, I2C_FLAG_SB, RESET, Timeout, Tickstart) != HAL_OK)
 800218e:	f04f 1101 	mov.w	r1, #65537	; 0x10001
 8002192:	4602      	mov	r2, r0
 8002194:	f8cd 8000 	str.w	r8, [sp]
 8002198:	463b      	mov	r3, r7
 800219a:	4620      	mov	r0, r4
 800219c:	f7ff fe5c 	bl	8001e58 <I2C_WaitOnFlagUntilTimeout>
 80021a0:	6822      	ldr	r2, [r4, #0]
 80021a2:	b160      	cbz	r0, 80021be <I2C_RequestMemoryRead+0xe6>
    if (READ_BIT(hi2c->Instance->CR1, I2C_CR1_START) == I2C_CR1_START)
 80021a4:	6813      	ldr	r3, [r2, #0]
 80021a6:	e7b3      	b.n	8002110 <I2C_RequestMemoryRead+0x38>
    hi2c->Instance->DR = I2C_MEM_ADD_MSB(MemAddress);
 80021a8:	0a2a      	lsrs	r2, r5, #8
 80021aa:	611a      	str	r2, [r3, #16]
    if (I2C_WaitOnTXEFlagUntilTimeout(hi2c, Timeout, Tickstart) != HAL_OK)
 80021ac:	4639      	mov	r1, r7
 80021ae:	4642      	mov	r2, r8
 80021b0:	4620      	mov	r0, r4
 80021b2:	f7ff ff13 	bl	8001fdc <I2C_WaitOnTXEFlagUntilTimeout>
 80021b6:	2800      	cmp	r0, #0
 80021b8:	d1ce      	bne.n	8002158 <I2C_RequestMemoryRead+0x80>
    hi2c->Instance->DR = I2C_MEM_ADD_LSB(MemAddress);
 80021ba:	6823      	ldr	r3, [r4, #0]
 80021bc:	e7d9      	b.n	8002172 <I2C_RequestMemoryRead+0x9a>
  hi2c->Instance->DR = I2C_7BIT_ADD_READ(DevAddress);
 80021be:	f049 0301 	orr.w	r3, r9, #1
 80021c2:	6113      	str	r3, [r2, #16]
  if (I2C_WaitOnMasterAddressFlagUntilTimeout(hi2c, I2C_FLAG_ADDR, Timeout, Tickstart) != HAL_OK)
 80021c4:	4904      	ldr	r1, [pc, #16]	; (80021d8 <I2C_RequestMemoryRead+0x100>)
 80021c6:	4643      	mov	r3, r8
 80021c8:	463a      	mov	r2, r7
 80021ca:	4620      	mov	r0, r4
 80021cc:	f7ff fe76 	bl	8001ebc <I2C_WaitOnMasterAddressFlagUntilTimeout>
    return HAL_TIMEOUT;
 80021d0:	3800      	subs	r0, #0
 80021d2:	bf18      	it	ne
 80021d4:	2001      	movne	r0, #1
 80021d6:	e7a1      	b.n	800211c <I2C_RequestMemoryRead+0x44>
 80021d8:	00010002 	.word	0x00010002

080021dc <HAL_I2C_MspInit>:
}
 80021dc:	4770      	bx	lr
	...

080021e0 <HAL_I2C_Init>:
{
 80021e0:	b570      	push	{r4, r5, r6, lr}
  if (hi2c == NULL)
 80021e2:	4604      	mov	r4, r0
 80021e4:	b908      	cbnz	r0, 80021ea <HAL_I2C_Init+0xa>
    return HAL_ERROR;
 80021e6:	2001      	movs	r0, #1
}
 80021e8:	bd70      	pop	{r4, r5, r6, pc}
  if (hi2c->State == HAL_I2C_STATE_RESET)
 80021ea:	f890 303d 	ldrb.w	r3, [r0, #61]	; 0x3d
 80021ee:	f003 02ff 	and.w	r2, r3, #255	; 0xff
 80021f2:	b91b      	cbnz	r3, 80021fc <HAL_I2C_Init+0x1c>
    hi2c->Lock = HAL_UNLOCKED;
 80021f4:	f880 203c 	strb.w	r2, [r0, #60]	; 0x3c
    HAL_I2C_MspInit(hi2c);
 80021f8:	f7ff fff0 	bl	80021dc <HAL_I2C_MspInit>
  hi2c->State = HAL_I2C_STATE_BUSY;
 80021fc:	2324      	movs	r3, #36	; 0x24
 80021fe:	f884 303d 	strb.w	r3, [r4, #61]	; 0x3d
  __HAL_I2C_DISABLE(hi2c);
 8002202:	6823      	ldr	r3, [r4, #0]
 8002204:	681a      	ldr	r2, [r3, #0]
 8002206:	f022 0201 	bic.w	r2, r2, #1
 800220a:	601a      	str	r2, [r3, #0]
  hi2c->Instance->CR1 |= I2C_CR1_SWRST;
 800220c:	681a      	ldr	r2, [r3, #0]
 800220e:	f442 4200 	orr.w	r2, r2, #32768	; 0x8000
 8002212:	601a      	str	r2, [r3, #0]
  hi2c->Instance->CR1 &= ~I2C_CR1_SWRST;
 8002214:	681a      	ldr	r2, [r3, #0]
 8002216:	f422 4200 	bic.w	r2, r2, #32768	; 0x8000
 800221a:	601a      	str	r2, [r3, #0]
  pclk1 = HAL_RCC_GetPCLK1Freq();
 800221c:	f000 ffc6 	bl	80031ac <HAL_RCC_GetPCLK1Freq>
  if (I2C_MIN_PCLK_FREQ(pclk1, hi2c->Init.ClockSpeed) == 1U)
 8002220:	4b3f      	ldr	r3, [pc, #252]	; (8002320 <HAL_I2C_Init+0x140>)
 8002222:	6865      	ldr	r5, [r4, #4]
 8002224:	429d      	cmp	r5, r3
 8002226:	bf94      	ite	ls
 8002228:	4b3e      	ldrls	r3, [pc, #248]	; (8002324 <HAL_I2C_Init+0x144>)
 800222a:	4b3f      	ldrhi	r3, [pc, #252]	; (8002328 <HAL_I2C_Init+0x148>)
 800222c:	4298      	cmp	r0, r3
 800222e:	bf8c      	ite	hi
 8002230:	2300      	movhi	r3, #0
 8002232:	2301      	movls	r3, #1
 8002234:	2b00      	cmp	r3, #0
 8002236:	d1d6      	bne.n	80021e6 <HAL_I2C_Init+0x6>
  MODIFY_REG(hi2c->Instance->CR2, I2C_CR2_FREQ, freqrange);
 8002238:	6822      	ldr	r2, [r4, #0]
  MODIFY_REG(hi2c->Instance->TRISE, I2C_TRISE_TRISE, I2C_RISE_TIME(freqrange, hi2c->Init.ClockSpeed));
 800223a:	4e39      	ldr	r6, [pc, #228]	; (8002320 <HAL_I2C_Init+0x140>)
  MODIFY_REG(hi2c->Instance->CR2, I2C_CR2_FREQ, freqrange);
 800223c:	6853      	ldr	r3, [r2, #4]
  freqrange = I2C_FREQRANGE(pclk1);
 800223e:	493b      	ldr	r1, [pc, #236]	; (800232c <HAL_I2C_Init+0x14c>)
 8002240:	fbb0 f1f1 	udiv	r1, r0, r1
  MODIFY_REG(hi2c->Instance->CR2, I2C_CR2_FREQ, freqrange);
 8002244:	f023 033f 	bic.w	r3, r3, #63	; 0x3f
 8002248:	430b      	orrs	r3, r1
  MODIFY_REG(hi2c->Instance->TRISE, I2C_TRISE_TRISE, I2C_RISE_TIME(freqrange, hi2c->Init.ClockSpeed));
 800224a:	42b5      	cmp	r5, r6
  MODIFY_REG(hi2c->Instance->CR2, I2C_CR2_FREQ, freqrange);
 800224c:	6053      	str	r3, [r2, #4]
  MODIFY_REG(hi2c->Instance->TRISE, I2C_TRISE_TRISE, I2C_RISE_TIME(freqrange, hi2c->Init.ClockSpeed));
 800224e:	bf88      	it	hi
 8002250:	f44f 7696 	movhi.w	r6, #300	; 0x12c
 8002254:	6a13      	ldr	r3, [r2, #32]
 8002256:	bf88      	it	hi
 8002258:	4371      	mulhi	r1, r6
 800225a:	f023 033f 	bic.w	r3, r3, #63	; 0x3f
 800225e:	bf84      	itt	hi
 8002260:	f44f 767a 	movhi.w	r6, #1000	; 0x3e8
 8002264:	fbb1 f1f6 	udivhi	r1, r1, r6
 8002268:	3101      	adds	r1, #1
 800226a:	4319      	orrs	r1, r3
 800226c:	6211      	str	r1, [r2, #32]
  MODIFY_REG(hi2c->Instance->CCR, (I2C_CCR_FS | I2C_CCR_DUTY | I2C_CCR_CCR), I2C_SPEED(pclk1, hi2c->Init.ClockSpeed, hi2c->Init.DutyCycle));
 800226e:	69d1      	ldr	r1, [r2, #28]
 8002270:	1e43      	subs	r3, r0, #1
 8002272:	482b      	ldr	r0, [pc, #172]	; (8002320 <HAL_I2C_Init+0x140>)
 8002274:	f421 414f 	bic.w	r1, r1, #52992	; 0xcf00
 8002278:	4285      	cmp	r5, r0
 800227a:	f021 01ff 	bic.w	r1, r1, #255	; 0xff
 800227e:	d832      	bhi.n	80022e6 <HAL_I2C_Init+0x106>
 8002280:	006d      	lsls	r5, r5, #1
 8002282:	f640 70fc 	movw	r0, #4092	; 0xffc
 8002286:	fbb3 f3f5 	udiv	r3, r3, r5
 800228a:	3301      	adds	r3, #1
 800228c:	4203      	tst	r3, r0
 800228e:	d042      	beq.n	8002316 <HAL_I2C_Init+0x136>
 8002290:	f3c3 030b 	ubfx	r3, r3, #0, #12
 8002294:	430b      	orrs	r3, r1
 8002296:	61d3      	str	r3, [r2, #28]
  MODIFY_REG(hi2c->Instance->CR1, (I2C_CR1_ENGC | I2C_CR1_NOSTRETCH), (hi2c->Init.GeneralCallMode | hi2c->Init.NoStretchMode));
 8002298:	e9d4 3007 	ldrd	r3, r0, [r4, #28]
 800229c:	6811      	ldr	r1, [r2, #0]
 800229e:	4303      	orrs	r3, r0
 80022a0:	f021 01c0 	bic.w	r1, r1, #192	; 0xc0
 80022a4:	430b      	orrs	r3, r1
 80022a6:	6013      	str	r3, [r2, #0]
  MODIFY_REG(hi2c->Instance->OAR1, (I2C_OAR1_ADDMODE | I2C_OAR1_ADD8_9 | I2C_OAR1_ADD1_7 | I2C_OAR1_ADD0), (hi2c->Init.AddressingMode | hi2c->Init.OwnAddress1));
 80022a8:	6891      	ldr	r1, [r2, #8]
 80022aa:	e9d4 0303 	ldrd	r0, r3, [r4, #12]
 80022ae:	f421 4103 	bic.w	r1, r1, #33536	; 0x8300
 80022b2:	4303      	orrs	r3, r0
 80022b4:	f021 01ff 	bic.w	r1, r1, #255	; 0xff
 80022b8:	430b      	orrs	r3, r1
 80022ba:	6093      	str	r3, [r2, #8]
  MODIFY_REG(hi2c->Instance->OAR2, (I2C_OAR2_ENDUAL | I2C_OAR2_ADD2), (hi2c->Init.DualAddressMode | hi2c->Init.OwnAddress2));
 80022bc:	e9d4 3005 	ldrd	r3, r0, [r4, #20]
 80022c0:	68d1      	ldr	r1, [r2, #12]
 80022c2:	4303      	orrs	r3, r0
 80022c4:	f021 01ff 	bic.w	r1, r1, #255	; 0xff
 80022c8:	430b      	orrs	r3, r1
 80022ca:	60d3      	str	r3, [r2, #12]
  __HAL_I2C_ENABLE(hi2c);
 80022cc:	6813      	ldr	r3, [r2, #0]
 80022ce:	f043 0301 	orr.w	r3, r3, #1
 80022d2:	6013      	str	r3, [r2, #0]
  hi2c->ErrorCode = HAL_I2C_ERROR_NONE;
 80022d4:	2000      	movs	r0, #0
  hi2c->State = HAL_I2C_STATE_READY;
 80022d6:	2320      	movs	r3, #32
  hi2c->ErrorCode = HAL_I2C_ERROR_NONE;
 80022d8:	6420      	str	r0, [r4, #64]	; 0x40
  hi2c->State = HAL_I2C_STATE_READY;
 80022da:	f884 303d 	strb.w	r3, [r4, #61]	; 0x3d
  hi2c->PreviousState = I2C_STATE_NONE;
 80022de:	6320      	str	r0, [r4, #48]	; 0x30
  hi2c->Mode = HAL_I2C_MODE_NONE;
 80022e0:	f884 003e 	strb.w	r0, [r4, #62]	; 0x3e
  return HAL_OK;
 80022e4:	e780      	b.n	80021e8 <HAL_I2C_Init+0x8>
  MODIFY_REG(hi2c->Instance->CCR, (I2C_CCR_FS | I2C_CCR_DUTY | I2C_CCR_CCR), I2C_SPEED(pclk1, hi2c->Init.ClockSpeed, hi2c->Init.DutyCycle));
 80022e6:	68a0      	ldr	r0, [r4, #8]
 80022e8:	b950      	cbnz	r0, 8002300 <HAL_I2C_Init+0x120>
 80022ea:	eb05 0545 	add.w	r5, r5, r5, lsl #1
 80022ee:	fbb3 f3f5 	udiv	r3, r3, r5
 80022f2:	3301      	adds	r3, #1
 80022f4:	f3c3 030b 	ubfx	r3, r3, #0, #12
 80022f8:	b17b      	cbz	r3, 800231a <HAL_I2C_Init+0x13a>
 80022fa:	f443 4300 	orr.w	r3, r3, #32768	; 0x8000
 80022fe:	e7c9      	b.n	8002294 <HAL_I2C_Init+0xb4>
 8002300:	2019      	movs	r0, #25
 8002302:	4345      	muls	r5, r0
 8002304:	fbb3 f3f5 	udiv	r3, r3, r5
 8002308:	3301      	adds	r3, #1
 800230a:	f3c3 030b 	ubfx	r3, r3, #0, #12
 800230e:	b123      	cbz	r3, 800231a <HAL_I2C_Init+0x13a>
 8002310:	f443 4340 	orr.w	r3, r3, #49152	; 0xc000
 8002314:	e7be      	b.n	8002294 <HAL_I2C_Init+0xb4>
 8002316:	2304      	movs	r3, #4
 8002318:	e7bc      	b.n	8002294 <HAL_I2C_Init+0xb4>
 800231a:	2301      	movs	r3, #1
 800231c:	e7ba      	b.n	8002294 <HAL_I2C_Init+0xb4>
 800231e:	bf00      	nop
 8002320:	000186a0 	.word	0x000186a0
 8002324:	001e847f 	.word	0x001e847f
 8002328:	003d08ff 	.word	0x003d08ff
 800232c:	000f4240 	.word	0x000f4240

08002330 <HAL_I2C_MspDeInit>:
 8002330:	4770      	bx	lr

08002332 <HAL_I2C_DeInit>:
{
 8002332:	b510      	push	{r4, lr}
  if (hi2c == NULL)
 8002334:	4604      	mov	r4, r0
 8002336:	b198      	cbz	r0, 8002360 <HAL_I2C_DeInit+0x2e>
  __HAL_I2C_DISABLE(hi2c);
 8002338:	6802      	ldr	r2, [r0, #0]
  hi2c->State = HAL_I2C_STATE_BUSY;
 800233a:	2324      	movs	r3, #36	; 0x24
 800233c:	f880 303d 	strb.w	r3, [r0, #61]	; 0x3d
  __HAL_I2C_DISABLE(hi2c);
 8002340:	6813      	ldr	r3, [r2, #0]
 8002342:	f023 0301 	bic.w	r3, r3, #1
 8002346:	6013      	str	r3, [r2, #0]
  HAL_I2C_MspDeInit(hi2c);
 8002348:	f7ff fff2 	bl	8002330 <HAL_I2C_MspDeInit>
  hi2c->ErrorCode     = HAL_I2C_ERROR_NONE;
 800234c:	2000      	movs	r0, #0
 800234e:	6420      	str	r0, [r4, #64]	; 0x40
  __HAL_UNLOCK(hi2c);
 8002350:	f884 003c 	strb.w	r0, [r4, #60]	; 0x3c
  hi2c->State         = HAL_I2C_STATE_RESET;
 8002354:	f884 003d 	strb.w	r0, [r4, #61]	; 0x3d
  hi2c->PreviousState = I2C_STATE_NONE;
 8002358:	6320      	str	r0, [r4, #48]	; 0x30
  hi2c->Mode          = HAL_I2C_MODE_NONE;
 800235a:	f884 003e 	strb.w	r0, [r4, #62]	; 0x3e
}
 800235e:	bd10      	pop	{r4, pc}
    return HAL_ERROR;
 8002360:	2001      	movs	r0, #1
 8002362:	e7fc      	b.n	800235e <HAL_I2C_DeInit+0x2c>

08002364 <HAL_I2C_Mem_Write>:
{
 8002364:	e92d 43f7 	stmdb	sp!, {r0, r1, r2, r4, r5, r6, r7, r8, r9, lr}
 8002368:	4604      	mov	r4, r0
 800236a:	4699      	mov	r9, r3
 800236c:	9e0c      	ldr	r6, [sp, #48]	; 0x30
 800236e:	460f      	mov	r7, r1
 8002370:	4690      	mov	r8, r2
  uint32_t tickstart = HAL_GetTick();
 8002372:	f7ff fae5 	bl	8001940 <HAL_GetTick>
  if (hi2c->State == HAL_I2C_STATE_READY)
 8002376:	f894 303d 	ldrb.w	r3, [r4, #61]	; 0x3d
 800237a:	2b20      	cmp	r3, #32
  uint32_t tickstart = HAL_GetTick();
 800237c:	4605      	mov	r5, r0
  if (hi2c->State == HAL_I2C_STATE_READY)
 800237e:	d003      	beq.n	8002388 <HAL_I2C_Mem_Write+0x24>
    return HAL_BUSY;
 8002380:	2002      	movs	r0, #2
}
 8002382:	b003      	add	sp, #12
 8002384:	e8bd 83f0 	ldmia.w	sp!, {r4, r5, r6, r7, r8, r9, pc}
    if (I2C_WaitOnFlagUntilTimeout(hi2c, I2C_FLAG_BUSY, SET, I2C_TIMEOUT_BUSY_FLAG, tickstart) != HAL_OK)
 8002388:	9000      	str	r0, [sp, #0]
 800238a:	493c      	ldr	r1, [pc, #240]	; (800247c <HAL_I2C_Mem_Write+0x118>)
 800238c:	2319      	movs	r3, #25
 800238e:	2201      	movs	r2, #1
 8002390:	4620      	mov	r0, r4
 8002392:	f7ff fd61 	bl	8001e58 <I2C_WaitOnFlagUntilTimeout>
 8002396:	2800      	cmp	r0, #0
 8002398:	d1f2      	bne.n	8002380 <HAL_I2C_Mem_Write+0x1c>
    __HAL_LOCK(hi2c);
 800239a:	f894 303c 	ldrb.w	r3, [r4, #60]	; 0x3c
 800239e:	2b01      	cmp	r3, #1
 80023a0:	d0ee      	beq.n	8002380 <HAL_I2C_Mem_Write+0x1c>
    if ((hi2c->Instance->CR1 & I2C_CR1_PE) != I2C_CR1_PE)
 80023a2:	6820      	ldr	r0, [r4, #0]
    __HAL_LOCK(hi2c);
 80023a4:	2301      	movs	r3, #1
 80023a6:	f884 303c 	strb.w	r3, [r4, #60]	; 0x3c
    if ((hi2c->Instance->CR1 & I2C_CR1_PE) != I2C_CR1_PE)
 80023aa:	6803      	ldr	r3, [r0, #0]
 80023ac:	07d9      	lsls	r1, r3, #31
      __HAL_I2C_ENABLE(hi2c);
 80023ae:	bf5e      	ittt	pl
 80023b0:	6803      	ldrpl	r3, [r0, #0]
 80023b2:	f043 0301 	orrpl.w	r3, r3, #1
 80023b6:	6003      	strpl	r3, [r0, #0]
    CLEAR_BIT(hi2c->Instance->CR1, I2C_CR1_POS);
 80023b8:	6803      	ldr	r3, [r0, #0]
 80023ba:	f423 6300 	bic.w	r3, r3, #2048	; 0x800
 80023be:	6003      	str	r3, [r0, #0]
    hi2c->State     = HAL_I2C_STATE_BUSY_TX;
 80023c0:	2321      	movs	r3, #33	; 0x21
 80023c2:	f884 303d 	strb.w	r3, [r4, #61]	; 0x3d
    hi2c->Mode      = HAL_I2C_MODE_MEM;
 80023c6:	2340      	movs	r3, #64	; 0x40
 80023c8:	f884 303e 	strb.w	r3, [r4, #62]	; 0x3e
    hi2c->ErrorCode = HAL_I2C_ERROR_NONE;
 80023cc:	2300      	movs	r3, #0
 80023ce:	6423      	str	r3, [r4, #64]	; 0x40
    hi2c->pBuffPtr    = pData;
 80023d0:	9b0a      	ldr	r3, [sp, #40]	; 0x28
 80023d2:	6263      	str	r3, [r4, #36]	; 0x24
    hi2c->XferCount   = Size;
 80023d4:	f8bd 302c 	ldrh.w	r3, [sp, #44]	; 0x2c
 80023d8:	8563      	strh	r3, [r4, #42]	; 0x2a
    hi2c->XferSize    = hi2c->XferCount;
 80023da:	8d63      	ldrh	r3, [r4, #42]	; 0x2a
 80023dc:	8523      	strh	r3, [r4, #40]	; 0x28
    hi2c->XferOptions = I2C_NO_OPTION_FRAME;
 80023de:	4b28      	ldr	r3, [pc, #160]	; (8002480 <HAL_I2C_Mem_Write+0x11c>)
 80023e0:	62e3      	str	r3, [r4, #44]	; 0x2c
    if (I2C_RequestMemoryWrite(hi2c, DevAddress, MemAddress, MemAddSize, Timeout, tickstart) != HAL_OK)
 80023e2:	e9cd 6500 	strd	r6, r5, [sp]
 80023e6:	464b      	mov	r3, r9
 80023e8:	4642      	mov	r2, r8
 80023ea:	4639      	mov	r1, r7
 80023ec:	4620      	mov	r0, r4
 80023ee:	f7ff fe1b 	bl	8002028 <I2C_RequestMemoryWrite>
 80023f2:	2800      	cmp	r0, #0
 80023f4:	d02a      	beq.n	800244c <HAL_I2C_Mem_Write+0xe8>
      return HAL_ERROR;
 80023f6:	2001      	movs	r0, #1
 80023f8:	e7c3      	b.n	8002382 <HAL_I2C_Mem_Write+0x1e>
      if (I2C_WaitOnTXEFlagUntilTimeout(hi2c, Timeout, tickstart) != HAL_OK)
 80023fa:	f7ff fdef 	bl	8001fdc <I2C_WaitOnTXEFlagUntilTimeout>
 80023fe:	b140      	cbz	r0, 8002412 <HAL_I2C_Mem_Write+0xae>
      if (hi2c->ErrorCode == HAL_I2C_ERROR_AF)
 8002400:	6c23      	ldr	r3, [r4, #64]	; 0x40
 8002402:	2b04      	cmp	r3, #4
        SET_BIT(hi2c->Instance->CR1, I2C_CR1_STOP);
 8002404:	bf01      	itttt	eq
 8002406:	6822      	ldreq	r2, [r4, #0]
 8002408:	6813      	ldreq	r3, [r2, #0]
 800240a:	f443 7300 	orreq.w	r3, r3, #512	; 0x200
 800240e:	6013      	streq	r3, [r2, #0]
 8002410:	e7f1      	b.n	80023f6 <HAL_I2C_Mem_Write+0x92>
      hi2c->Instance->DR = *hi2c->pBuffPtr;
 8002412:	6a63      	ldr	r3, [r4, #36]	; 0x24
 8002414:	6827      	ldr	r7, [r4, #0]
 8002416:	461a      	mov	r2, r3
 8002418:	f812 1b01 	ldrb.w	r1, [r2], #1
 800241c:	6139      	str	r1, [r7, #16]
      hi2c->pBuffPtr++;
 800241e:	6262      	str	r2, [r4, #36]	; 0x24
      hi2c->XferCount--;
 8002420:	8d62      	ldrh	r2, [r4, #42]	; 0x2a
      hi2c->XferSize--;
 8002422:	8d21      	ldrh	r1, [r4, #40]	; 0x28
      hi2c->XferCount--;
 8002424:	3a01      	subs	r2, #1
 8002426:	b292      	uxth	r2, r2
 8002428:	8562      	strh	r2, [r4, #42]	; 0x2a
      if ((__HAL_I2C_GET_FLAG(hi2c, I2C_FLAG_BTF) == SET) && (hi2c->XferSize != 0U))
 800242a:	697a      	ldr	r2, [r7, #20]
      hi2c->XferSize--;
 800242c:	1e48      	subs	r0, r1, #1
 800242e:	b280      	uxth	r0, r0
      if ((__HAL_I2C_GET_FLAG(hi2c, I2C_FLAG_BTF) == SET) && (hi2c->XferSize != 0U))
 8002430:	0752      	lsls	r2, r2, #29
      hi2c->XferSize--;
 8002432:	8520      	strh	r0, [r4, #40]	; 0x28
      if ((__HAL_I2C_GET_FLAG(hi2c, I2C_FLAG_BTF) == SET) && (hi2c->XferSize != 0U))
 8002434:	d50a      	bpl.n	800244c <HAL_I2C_Mem_Write+0xe8>
 8002436:	b148      	cbz	r0, 800244c <HAL_I2C_Mem_Write+0xe8>
        hi2c->Instance->DR = *hi2c->pBuffPtr;
 8002438:	785a      	ldrb	r2, [r3, #1]
 800243a:	613a      	str	r2, [r7, #16]
        hi2c->pBuffPtr++;
 800243c:	3302      	adds	r3, #2
 800243e:	6263      	str	r3, [r4, #36]	; 0x24
        hi2c->XferCount--;
 8002440:	8d63      	ldrh	r3, [r4, #42]	; 0x2a
 8002442:	3b01      	subs	r3, #1
        hi2c->XferSize--;
 8002444:	3902      	subs	r1, #2
        hi2c->XferCount--;
 8002446:	b29b      	uxth	r3, r3
        hi2c->XferSize--;
 8002448:	8521      	strh	r1, [r4, #40]	; 0x28
        hi2c->XferCount--;
 800244a:	8563      	strh	r3, [r4, #42]	; 0x2a
    while (hi2c->XferSize > 0U)
 800244c:	8d23      	ldrh	r3, [r4, #40]	; 0x28
      if (I2C_WaitOnTXEFlagUntilTimeout(hi2c, Timeout, tickstart) != HAL_OK)
 800244e:	462a      	mov	r2, r5
 8002450:	4631      	mov	r1, r6
 8002452:	4620      	mov	r0, r4
    while (hi2c->XferSize > 0U)
 8002454:	2b00      	cmp	r3, #0
 8002456:	d1d0      	bne.n	80023fa <HAL_I2C_Mem_Write+0x96>
    if (I2C_WaitOnBTFFlagUntilTimeout(hi2c, Timeout, tickstart) != HAL_OK)
 8002458:	f7ff fd9a 	bl	8001f90 <I2C_WaitOnBTFFlagUntilTimeout>
 800245c:	2800      	cmp	r0, #0
 800245e:	d1cf      	bne.n	8002400 <HAL_I2C_Mem_Write+0x9c>
    SET_BIT(hi2c->Instance->CR1, I2C_CR1_STOP);
 8002460:	6822      	ldr	r2, [r4, #0]
 8002462:	6813      	ldr	r3, [r2, #0]
 8002464:	f443 7300 	orr.w	r3, r3, #512	; 0x200
 8002468:	6013      	str	r3, [r2, #0]
    hi2c->State = HAL_I2C_STATE_READY;
 800246a:	2320      	movs	r3, #32
 800246c:	f884 303d 	strb.w	r3, [r4, #61]	; 0x3d
    __HAL_UNLOCK(hi2c);
 8002470:	f884 003c 	strb.w	r0, [r4, #60]	; 0x3c
    hi2c->Mode = HAL_I2C_MODE_NONE;
 8002474:	f884 003e 	strb.w	r0, [r4, #62]	; 0x3e
    return HAL_OK;
 8002478:	e783      	b.n	8002382 <HAL_I2C_Mem_Write+0x1e>
 800247a:	bf00      	nop
 800247c:	00100002 	.word	0x00100002
 8002480:	ffff0000 	.word	0xffff0000

08002484 <HAL_I2C_Mem_Read>:
{
 8002484:	e92d 43f0 	stmdb	sp!, {r4, r5, r6, r7, r8, r9, lr}
 8002488:	4604      	mov	r4, r0
 800248a:	b087      	sub	sp, #28
 800248c:	4699      	mov	r9, r3
 800248e:	9f10      	ldr	r7, [sp, #64]	; 0x40
 8002490:	460d      	mov	r5, r1
 8002492:	4690      	mov	r8, r2
  uint32_t tickstart = HAL_GetTick();
 8002494:	f7ff fa54 	bl	8001940 <HAL_GetTick>
  if (hi2c->State == HAL_I2C_STATE_READY)
 8002498:	f894 303d 	ldrb.w	r3, [r4, #61]	; 0x3d
 800249c:	2b20      	cmp	r3, #32
  uint32_t tickstart = HAL_GetTick();
 800249e:	4606      	mov	r6, r0
  if (hi2c->State == HAL_I2C_STATE_READY)
 80024a0:	d004      	beq.n	80024ac <HAL_I2C_Mem_Read+0x28>
    return HAL_BUSY;
 80024a2:	2502      	movs	r5, #2
}
 80024a4:	4628      	mov	r0, r5
 80024a6:	b007      	add	sp, #28
 80024a8:	e8bd 83f0 	ldmia.w	sp!, {r4, r5, r6, r7, r8, r9, pc}
    if (I2C_WaitOnFlagUntilTimeout(hi2c, I2C_FLAG_BUSY, SET, I2C_TIMEOUT_BUSY_FLAG, tickstart) != HAL_OK)
 80024ac:	9000      	str	r0, [sp, #0]
 80024ae:	4976      	ldr	r1, [pc, #472]	; (8002688 <HAL_I2C_Mem_Read+0x204>)
 80024b0:	2319      	movs	r3, #25
 80024b2:	2201      	movs	r2, #1
 80024b4:	4620      	mov	r0, r4
 80024b6:	f7ff fccf 	bl	8001e58 <I2C_WaitOnFlagUntilTimeout>
 80024ba:	2800      	cmp	r0, #0
 80024bc:	d1f1      	bne.n	80024a2 <HAL_I2C_Mem_Read+0x1e>
    __HAL_LOCK(hi2c);
 80024be:	f894 303c 	ldrb.w	r3, [r4, #60]	; 0x3c
 80024c2:	2b01      	cmp	r3, #1
 80024c4:	d0ed      	beq.n	80024a2 <HAL_I2C_Mem_Read+0x1e>
    if ((hi2c->Instance->CR1 & I2C_CR1_PE) != I2C_CR1_PE)
 80024c6:	6820      	ldr	r0, [r4, #0]
    __HAL_LOCK(hi2c);
 80024c8:	2301      	movs	r3, #1
 80024ca:	f884 303c 	strb.w	r3, [r4, #60]	; 0x3c
    if ((hi2c->Instance->CR1 & I2C_CR1_PE) != I2C_CR1_PE)
 80024ce:	6803      	ldr	r3, [r0, #0]
 80024d0:	07db      	lsls	r3, r3, #31
      __HAL_I2C_ENABLE(hi2c);
 80024d2:	bf5e      	ittt	pl
 80024d4:	6803      	ldrpl	r3, [r0, #0]
 80024d6:	f043 0301 	orrpl.w	r3, r3, #1
 80024da:	6003      	strpl	r3, [r0, #0]
    CLEAR_BIT(hi2c->Instance->CR1, I2C_CR1_POS);
 80024dc:	6803      	ldr	r3, [r0, #0]
 80024de:	f423 6300 	bic.w	r3, r3, #2048	; 0x800
 80024e2:	6003      	str	r3, [r0, #0]
    hi2c->State     = HAL_I2C_STATE_BUSY_RX;
 80024e4:	2322      	movs	r3, #34	; 0x22
 80024e6:	f884 303d 	strb.w	r3, [r4, #61]	; 0x3d
    hi2c->Mode      = HAL_I2C_MODE_MEM;
 80024ea:	2340      	movs	r3, #64	; 0x40
 80024ec:	f884 303e 	strb.w	r3, [r4, #62]	; 0x3e
    hi2c->ErrorCode = HAL_I2C_ERROR_NONE;
 80024f0:	2300      	movs	r3, #0
 80024f2:	6423      	str	r3, [r4, #64]	; 0x40
    hi2c->pBuffPtr    = pData;
 80024f4:	9b0e      	ldr	r3, [sp, #56]	; 0x38
 80024f6:	6263      	str	r3, [r4, #36]	; 0x24
    hi2c->XferCount   = Size;
 80024f8:	f8bd 303c 	ldrh.w	r3, [sp, #60]	; 0x3c
 80024fc:	8563      	strh	r3, [r4, #42]	; 0x2a
    hi2c->XferSize    = hi2c->XferCount;
 80024fe:	8d63      	ldrh	r3, [r4, #42]	; 0x2a
 8002500:	8523      	strh	r3, [r4, #40]	; 0x28
    hi2c->XferOptions = I2C_NO_OPTION_FRAME;
 8002502:	4b62      	ldr	r3, [pc, #392]	; (800268c <HAL_I2C_Mem_Read+0x208>)
 8002504:	62e3      	str	r3, [r4, #44]	; 0x2c
    if (I2C_RequestMemoryRead(hi2c, DevAddress, MemAddress, MemAddSize, Timeout, tickstart) != HAL_OK)
 8002506:	4629      	mov	r1, r5
 8002508:	e9cd 7600 	strd	r7, r6, [sp]
 800250c:	464b      	mov	r3, r9
 800250e:	4642      	mov	r2, r8
 8002510:	4620      	mov	r0, r4
 8002512:	f7ff fde1 	bl	80020d8 <I2C_RequestMemoryRead>
 8002516:	4605      	mov	r5, r0
 8002518:	b108      	cbz	r0, 800251e <HAL_I2C_Mem_Read+0x9a>
      return HAL_ERROR;
 800251a:	2501      	movs	r5, #1
 800251c:	e7c2      	b.n	80024a4 <HAL_I2C_Mem_Read+0x20>
    if (hi2c->XferSize == 0U)
 800251e:	8d22      	ldrh	r2, [r4, #40]	; 0x28
      __HAL_I2C_CLEAR_ADDRFLAG(hi2c);
 8002520:	6823      	ldr	r3, [r4, #0]
    if (hi2c->XferSize == 0U)
 8002522:	b9b2      	cbnz	r2, 8002552 <HAL_I2C_Mem_Read+0xce>
      __HAL_I2C_CLEAR_ADDRFLAG(hi2c);
 8002524:	9002      	str	r0, [sp, #8]
 8002526:	695a      	ldr	r2, [r3, #20]
 8002528:	9202      	str	r2, [sp, #8]
 800252a:	699a      	ldr	r2, [r3, #24]
 800252c:	9202      	str	r2, [sp, #8]
 800252e:	9a02      	ldr	r2, [sp, #8]
      SET_BIT(hi2c->Instance->CR1, I2C_CR1_STOP);
 8002530:	681a      	ldr	r2, [r3, #0]
 8002532:	f442 7200 	orr.w	r2, r2, #512	; 0x200
 8002536:	601a      	str	r2, [r3, #0]
          if (I2C_WaitOnFlagUntilTimeout(hi2c, I2C_FLAG_BTF, RESET, Timeout, tickstart) != HAL_OK)
 8002538:	f8df 8154 	ldr.w	r8, [pc, #340]	; 8002690 <HAL_I2C_Mem_Read+0x20c>
    while (hi2c->XferSize > 0U)
 800253c:	8d23      	ldrh	r3, [r4, #40]	; 0x28
 800253e:	2b00      	cmp	r3, #0
 8002540:	d12c      	bne.n	800259c <HAL_I2C_Mem_Read+0x118>
    hi2c->State = HAL_I2C_STATE_READY;
 8002542:	2220      	movs	r2, #32
 8002544:	f884 203d 	strb.w	r2, [r4, #61]	; 0x3d
    __HAL_UNLOCK(hi2c);
 8002548:	f884 303c 	strb.w	r3, [r4, #60]	; 0x3c
    hi2c->Mode = HAL_I2C_MODE_NONE;
 800254c:	f884 303e 	strb.w	r3, [r4, #62]	; 0x3e
    return HAL_OK;
 8002550:	e7a8      	b.n	80024a4 <HAL_I2C_Mem_Read+0x20>
    else if (hi2c->XferSize == 1U)
 8002552:	2a01      	cmp	r2, #1
 8002554:	d10a      	bne.n	800256c <HAL_I2C_Mem_Read+0xe8>
      CLEAR_BIT(hi2c->Instance->CR1, I2C_CR1_ACK);
 8002556:	681a      	ldr	r2, [r3, #0]
 8002558:	f422 6280 	bic.w	r2, r2, #1024	; 0x400
 800255c:	601a      	str	r2, [r3, #0]
      __HAL_I2C_CLEAR_ADDRFLAG(hi2c);
 800255e:	9003      	str	r0, [sp, #12]
 8002560:	695a      	ldr	r2, [r3, #20]
 8002562:	9203      	str	r2, [sp, #12]
 8002564:	699a      	ldr	r2, [r3, #24]
 8002566:	9203      	str	r2, [sp, #12]
 8002568:	9a03      	ldr	r2, [sp, #12]
 800256a:	e7e1      	b.n	8002530 <HAL_I2C_Mem_Read+0xac>
    else if (hi2c->XferSize == 2U)
 800256c:	2a02      	cmp	r2, #2
 800256e:	d10e      	bne.n	800258e <HAL_I2C_Mem_Read+0x10a>
      CLEAR_BIT(hi2c->Instance->CR1, I2C_CR1_ACK);
 8002570:	681a      	ldr	r2, [r3, #0]
 8002572:	f422 6280 	bic.w	r2, r2, #1024	; 0x400
 8002576:	601a      	str	r2, [r3, #0]
      SET_BIT(hi2c->Instance->CR1, I2C_CR1_POS);
 8002578:	681a      	ldr	r2, [r3, #0]
 800257a:	f442 6200 	orr.w	r2, r2, #2048	; 0x800
 800257e:	601a      	str	r2, [r3, #0]
      __HAL_I2C_CLEAR_ADDRFLAG(hi2c);
 8002580:	9004      	str	r0, [sp, #16]
 8002582:	695a      	ldr	r2, [r3, #20]
 8002584:	9204      	str	r2, [sp, #16]
 8002586:	699b      	ldr	r3, [r3, #24]
 8002588:	9304      	str	r3, [sp, #16]
 800258a:	9b04      	ldr	r3, [sp, #16]
 800258c:	e7d4      	b.n	8002538 <HAL_I2C_Mem_Read+0xb4>
      __HAL_I2C_CLEAR_ADDRFLAG(hi2c);
 800258e:	9005      	str	r0, [sp, #20]
 8002590:	695a      	ldr	r2, [r3, #20]
 8002592:	9205      	str	r2, [sp, #20]
 8002594:	699b      	ldr	r3, [r3, #24]
 8002596:	9305      	str	r3, [sp, #20]
 8002598:	9b05      	ldr	r3, [sp, #20]
 800259a:	e7cd      	b.n	8002538 <HAL_I2C_Mem_Read+0xb4>
      if (hi2c->XferSize <= 3U)
 800259c:	2b03      	cmp	r3, #3
 800259e:	d856      	bhi.n	800264e <HAL_I2C_Mem_Read+0x1ca>
        if (hi2c->XferSize == 1U)
 80025a0:	2b01      	cmp	r3, #1
 80025a2:	d115      	bne.n	80025d0 <HAL_I2C_Mem_Read+0x14c>
          if (I2C_WaitOnRXNEFlagUntilTimeout(hi2c, Timeout, tickstart) != HAL_OK)
 80025a4:	4632      	mov	r2, r6
 80025a6:	4639      	mov	r1, r7
 80025a8:	4620      	mov	r0, r4
 80025aa:	f7ff fcc2 	bl	8001f32 <I2C_WaitOnRXNEFlagUntilTimeout>
 80025ae:	2800      	cmp	r0, #0
 80025b0:	d1b3      	bne.n	800251a <HAL_I2C_Mem_Read+0x96>
          *hi2c->pBuffPtr = (uint8_t)hi2c->Instance->DR;
 80025b2:	6823      	ldr	r3, [r4, #0]
 80025b4:	691a      	ldr	r2, [r3, #16]
 80025b6:	6a63      	ldr	r3, [r4, #36]	; 0x24
 80025b8:	701a      	strb	r2, [r3, #0]
          hi2c->pBuffPtr++;
 80025ba:	6a63      	ldr	r3, [r4, #36]	; 0x24
 80025bc:	3301      	adds	r3, #1
 80025be:	6263      	str	r3, [r4, #36]	; 0x24
          hi2c->XferSize--;
 80025c0:	8d23      	ldrh	r3, [r4, #40]	; 0x28
 80025c2:	3b01      	subs	r3, #1
 80025c4:	8523      	strh	r3, [r4, #40]	; 0x28
          hi2c->XferCount--;
 80025c6:	8d63      	ldrh	r3, [r4, #42]	; 0x2a
 80025c8:	3b01      	subs	r3, #1
 80025ca:	b29b      	uxth	r3, r3
 80025cc:	8563      	strh	r3, [r4, #42]	; 0x2a
 80025ce:	e7b5      	b.n	800253c <HAL_I2C_Mem_Read+0xb8>
        else if (hi2c->XferSize == 2U)
 80025d0:	2b02      	cmp	r3, #2
          if (I2C_WaitOnFlagUntilTimeout(hi2c, I2C_FLAG_BTF, RESET, Timeout, tickstart) != HAL_OK)
 80025d2:	9600      	str	r6, [sp, #0]
 80025d4:	463b      	mov	r3, r7
 80025d6:	f04f 0200 	mov.w	r2, #0
 80025da:	4641      	mov	r1, r8
 80025dc:	4620      	mov	r0, r4
        else if (hi2c->XferSize == 2U)
 80025de:	d119      	bne.n	8002614 <HAL_I2C_Mem_Read+0x190>
          if (I2C_WaitOnFlagUntilTimeout(hi2c, I2C_FLAG_BTF, RESET, Timeout, tickstart) != HAL_OK)
 80025e0:	f7ff fc3a 	bl	8001e58 <I2C_WaitOnFlagUntilTimeout>
 80025e4:	2800      	cmp	r0, #0
 80025e6:	d198      	bne.n	800251a <HAL_I2C_Mem_Read+0x96>
          SET_BIT(hi2c->Instance->CR1, I2C_CR1_STOP);
 80025e8:	6823      	ldr	r3, [r4, #0]
 80025ea:	681a      	ldr	r2, [r3, #0]
 80025ec:	f442 7200 	orr.w	r2, r2, #512	; 0x200
 80025f0:	601a      	str	r2, [r3, #0]
          *hi2c->pBuffPtr = (uint8_t)hi2c->Instance->DR;
 80025f2:	691a      	ldr	r2, [r3, #16]
 80025f4:	6a63      	ldr	r3, [r4, #36]	; 0x24
 80025f6:	701a      	strb	r2, [r3, #0]
          hi2c->pBuffPtr++;
 80025f8:	6a62      	ldr	r2, [r4, #36]	; 0x24
 80025fa:	1c53      	adds	r3, r2, #1
 80025fc:	6263      	str	r3, [r4, #36]	; 0x24
          hi2c->XferSize--;
 80025fe:	8d23      	ldrh	r3, [r4, #40]	; 0x28
 8002600:	3b01      	subs	r3, #1
 8002602:	8523      	strh	r3, [r4, #40]	; 0x28
          hi2c->XferCount--;
 8002604:	8d63      	ldrh	r3, [r4, #42]	; 0x2a
 8002606:	3b01      	subs	r3, #1
 8002608:	b29b      	uxth	r3, r3
 800260a:	8563      	strh	r3, [r4, #42]	; 0x2a
          *hi2c->pBuffPtr = (uint8_t)hi2c->Instance->DR;
 800260c:	6823      	ldr	r3, [r4, #0]
          *hi2c->pBuffPtr = (uint8_t)hi2c->Instance->DR;
 800260e:	691b      	ldr	r3, [r3, #16]
 8002610:	7053      	strb	r3, [r2, #1]
 8002612:	e7d2      	b.n	80025ba <HAL_I2C_Mem_Read+0x136>
          if (I2C_WaitOnFlagUntilTimeout(hi2c, I2C_FLAG_BTF, RESET, Timeout, tickstart) != HAL_OK)
 8002614:	f7ff fc20 	bl	8001e58 <I2C_WaitOnFlagUntilTimeout>
 8002618:	2800      	cmp	r0, #0
 800261a:	f47f af7e 	bne.w	800251a <HAL_I2C_Mem_Read+0x96>
          CLEAR_BIT(hi2c->Instance->CR1, I2C_CR1_ACK);
 800261e:	6823      	ldr	r3, [r4, #0]
 8002620:	681a      	ldr	r2, [r3, #0]
 8002622:	f422 6280 	bic.w	r2, r2, #1024	; 0x400
 8002626:	601a      	str	r2, [r3, #0]
          *hi2c->pBuffPtr = (uint8_t)hi2c->Instance->DR;
 8002628:	691a      	ldr	r2, [r3, #16]
 800262a:	6a63      	ldr	r3, [r4, #36]	; 0x24
 800262c:	701a      	strb	r2, [r3, #0]
          hi2c->pBuffPtr++;
 800262e:	6a63      	ldr	r3, [r4, #36]	; 0x24
          if (I2C_WaitOnFlagUntilTimeout(hi2c, I2C_FLAG_BTF, RESET, Timeout, tickstart) != HAL_OK)
 8002630:	9600      	str	r6, [sp, #0]
          hi2c->pBuffPtr++;
 8002632:	3301      	adds	r3, #1
 8002634:	6263      	str	r3, [r4, #36]	; 0x24
          hi2c->XferSize--;
 8002636:	8d23      	ldrh	r3, [r4, #40]	; 0x28
 8002638:	3b01      	subs	r3, #1
 800263a:	8523      	strh	r3, [r4, #40]	; 0x28
          hi2c->XferCount--;
 800263c:	8d63      	ldrh	r3, [r4, #42]	; 0x2a
 800263e:	3b01      	subs	r3, #1
 8002640:	b29b      	uxth	r3, r3
 8002642:	8563      	strh	r3, [r4, #42]	; 0x2a
          if (I2C_WaitOnFlagUntilTimeout(hi2c, I2C_FLAG_BTF, RESET, Timeout, tickstart) != HAL_OK)
 8002644:	4602      	mov	r2, r0
 8002646:	463b      	mov	r3, r7
 8002648:	4641      	mov	r1, r8
 800264a:	4620      	mov	r0, r4
 800264c:	e7c8      	b.n	80025e0 <HAL_I2C_Mem_Read+0x15c>
        if (I2C_WaitOnRXNEFlagUntilTimeout(hi2c, Timeout, tickstart) != HAL_OK)
 800264e:	4632      	mov	r2, r6
 8002650:	4639      	mov	r1, r7
 8002652:	4620      	mov	r0, r4
 8002654:	f7ff fc6d 	bl	8001f32 <I2C_WaitOnRXNEFlagUntilTimeout>
 8002658:	2800      	cmp	r0, #0
 800265a:	f47f af5e 	bne.w	800251a <HAL_I2C_Mem_Read+0x96>
        *hi2c->pBuffPtr = (uint8_t)hi2c->Instance->DR;
 800265e:	6823      	ldr	r3, [r4, #0]
 8002660:	691a      	ldr	r2, [r3, #16]
 8002662:	6a63      	ldr	r3, [r4, #36]	; 0x24
 8002664:	701a      	strb	r2, [r3, #0]
        hi2c->pBuffPtr++;
 8002666:	6a62      	ldr	r2, [r4, #36]	; 0x24
 8002668:	1c53      	adds	r3, r2, #1
 800266a:	6263      	str	r3, [r4, #36]	; 0x24
        hi2c->XferSize--;
 800266c:	8d23      	ldrh	r3, [r4, #40]	; 0x28
 800266e:	3b01      	subs	r3, #1
 8002670:	8523      	strh	r3, [r4, #40]	; 0x28
        hi2c->XferCount--;
 8002672:	8d63      	ldrh	r3, [r4, #42]	; 0x2a
 8002674:	3b01      	subs	r3, #1
 8002676:	b29b      	uxth	r3, r3
 8002678:	8563      	strh	r3, [r4, #42]	; 0x2a
        if (__HAL_I2C_GET_FLAG(hi2c, I2C_FLAG_BTF) == SET)
 800267a:	6823      	ldr	r3, [r4, #0]
 800267c:	6959      	ldr	r1, [r3, #20]
 800267e:	0749      	lsls	r1, r1, #29
 8002680:	f57f af5c 	bpl.w	800253c <HAL_I2C_Mem_Read+0xb8>
 8002684:	e7c3      	b.n	800260e <HAL_I2C_Mem_Read+0x18a>
 8002686:	bf00      	nop
 8002688:	00100002 	.word	0x00100002
 800268c:	ffff0000 	.word	0xffff0000
 8002690:	00010004 	.word	0x00010004

08002694 <HAL_I2C_GetState>:
  return hi2c->State;
 8002694:	f890 003d 	ldrb.w	r0, [r0, #61]	; 0x3d
}
 8002698:	4770      	bx	lr

0800269a <LTDC_SetConfig>:
  uint32_t tmp;
  uint32_t tmp1;
  uint32_t tmp2;

  /* Configure the horizontal start and stop position */
  tmp = ((pLayerCfg->WindowX1 + ((hltdc->Instance->BPCR & LTDC_BPCR_AHBP) >> 16U)) << 16U);
 800269a:	6800      	ldr	r0, [r0, #0]
  LTDC_LAYER(hltdc, LayerIdx)->WHPCR &= ~(LTDC_LxWHPCR_WHSTPOS | LTDC_LxWHPCR_WHSPPOS);
  LTDC_LAYER(hltdc, LayerIdx)->WHPCR = ((pLayerCfg->WindowX0 + \
 800269c:	f8d1 c000 	ldr.w	ip, [r1]
  LTDC_LAYER(hltdc, LayerIdx)->WHPCR &= ~(LTDC_LxWHPCR_WHSTPOS | LTDC_LxWHPCR_WHSPPOS);
 80026a0:	01d2      	lsls	r2, r2, #7
 80026a2:	3284      	adds	r2, #132	; 0x84
 80026a4:	1883      	adds	r3, r0, r2
{
 80026a6:	e92d 43f0 	stmdb	sp!, {r4, r5, r6, r7, r8, r9, lr}
  tmp = ((pLayerCfg->WindowX1 + ((hltdc->Instance->BPCR & LTDC_BPCR_AHBP) >> 16U)) << 16U);
 80026aa:	68c6      	ldr	r6, [r0, #12]
  LTDC_LAYER(hltdc, LayerIdx)->WHPCR &= ~(LTDC_LxWHPCR_WHSTPOS | LTDC_LxWHPCR_WHSPPOS);
 80026ac:	685d      	ldr	r5, [r3, #4]
  tmp = ((pLayerCfg->WindowX1 + ((hltdc->Instance->BPCR & LTDC_BPCR_AHBP) >> 16U)) << 16U);
 80026ae:	684c      	ldr	r4, [r1, #4]
  LTDC_LAYER(hltdc, LayerIdx)->PFCR = (pLayerCfg->PixelFormat);

  /* Configure the default color values */
  tmp = ((uint32_t)(pLayerCfg->Backcolor.Green) << 8U);
  tmp1 = ((uint32_t)(pLayerCfg->Backcolor.Red) << 16U);
  tmp2 = (pLayerCfg->Alpha0 << 24U);
 80026b0:	f8d1 9018 	ldr.w	r9, [r1, #24]
  LTDC_LAYER(hltdc, LayerIdx)->WHPCR &= ~(LTDC_LxWHPCR_WHSTPOS | LTDC_LxWHPCR_WHSPPOS);
 80026b4:	f405 4570 	and.w	r5, r5, #61440	; 0xf000
 80026b8:	605d      	str	r5, [r3, #4]
                                         ((hltdc->Instance->BPCR & LTDC_BPCR_AHBP) >> 16U) + 1U) | tmp);
 80026ba:	68c5      	ldr	r5, [r0, #12]
 80026bc:	f10c 0701 	add.w	r7, ip, #1
 80026c0:	f3c5 450b 	ubfx	r5, r5, #16, #12
  tmp = ((pLayerCfg->WindowX1 + ((hltdc->Instance->BPCR & LTDC_BPCR_AHBP) >> 16U)) << 16U);
 80026c4:	f3c6 460b 	ubfx	r6, r6, #16, #12
                                         ((hltdc->Instance->BPCR & LTDC_BPCR_AHBP) >> 16U) + 1U) | tmp);
 80026c8:	443d      	add	r5, r7
  tmp = ((pLayerCfg->WindowX1 + ((hltdc->Instance->BPCR & LTDC_BPCR_AHBP) >> 16U)) << 16U);
 80026ca:	4426      	add	r6, r4
                                         ((hltdc->Instance->BPCR & LTDC_BPCR_AHBP) >> 16U) + 1U) | tmp);
 80026cc:	ea45 4506 	orr.w	r5, r5, r6, lsl #16
  LTDC_LAYER(hltdc, LayerIdx)->WHPCR = ((pLayerCfg->WindowX0 + \
 80026d0:	605d      	str	r5, [r3, #4]
  tmp = ((pLayerCfg->WindowY1 + (hltdc->Instance->BPCR & LTDC_BPCR_AVBP)) << 16U);
 80026d2:	68c5      	ldr	r5, [r0, #12]
 80026d4:	68ce      	ldr	r6, [r1, #12]
 80026d6:	f3c5 050a 	ubfx	r5, r5, #0, #11
 80026da:	442e      	add	r6, r5
  LTDC_LAYER(hltdc, LayerIdx)->WVPCR &= ~(LTDC_LxWVPCR_WVSTPOS | LTDC_LxWVPCR_WVSPPOS);
 80026dc:	689d      	ldr	r5, [r3, #8]
 80026de:	f405 4570 	and.w	r5, r5, #61440	; 0xf000
 80026e2:	609d      	str	r5, [r3, #8]
  LTDC_LAYER(hltdc, LayerIdx)->WVPCR  = ((pLayerCfg->WindowY0 + (hltdc->Instance->BPCR & LTDC_BPCR_AVBP) + 1U) | tmp);
 80026e4:	68c7      	ldr	r7, [r0, #12]
 80026e6:	688d      	ldr	r5, [r1, #8]
 80026e8:	f3c7 070a 	ubfx	r7, r7, #0, #11
 80026ec:	3501      	adds	r5, #1
 80026ee:	443d      	add	r5, r7
 80026f0:	ea45 4506 	orr.w	r5, r5, r6, lsl #16
 80026f4:	609d      	str	r5, [r3, #8]
  LTDC_LAYER(hltdc, LayerIdx)->PFCR &= ~(LTDC_LxPFCR_PF);
 80026f6:	691d      	ldr	r5, [r3, #16]
  LTDC_LAYER(hltdc, LayerIdx)->PFCR = (pLayerCfg->PixelFormat);
 80026f8:	690e      	ldr	r6, [r1, #16]
  LTDC_LAYER(hltdc, LayerIdx)->PFCR &= ~(LTDC_LxPFCR_PF);
 80026fa:	f025 0507 	bic.w	r5, r5, #7
 80026fe:	611d      	str	r5, [r3, #16]
  LTDC_LAYER(hltdc, LayerIdx)->DCCR &= ~(LTDC_LxDCCR_DCBLUE | LTDC_LxDCCR_DCGREEN | LTDC_LxDCCR_DCRED |
 8002700:	f04f 0e00 	mov.w	lr, #0
  LTDC_LAYER(hltdc, LayerIdx)->PFCR = (pLayerCfg->PixelFormat);
 8002704:	611e      	str	r6, [r3, #16]
  LTDC_LAYER(hltdc, LayerIdx)->DCCR &= ~(LTDC_LxDCCR_DCBLUE | LTDC_LxDCCR_DCGREEN | LTDC_LxDCCR_DCRED |
 8002706:	699d      	ldr	r5, [r3, #24]
  tmp1 = ((uint32_t)(pLayerCfg->Backcolor.Red) << 16U);
 8002708:	f891 7032 	ldrb.w	r7, [r1, #50]	; 0x32
  tmp = ((uint32_t)(pLayerCfg->Backcolor.Green) << 8U);
 800270c:	f891 8031 	ldrb.w	r8, [r1, #49]	; 0x31
  LTDC_LAYER(hltdc, LayerIdx)->DCCR &= ~(LTDC_LxDCCR_DCBLUE | LTDC_LxDCCR_DCGREEN | LTDC_LxDCCR_DCRED |
 8002710:	f8c3 e018 	str.w	lr, [r3, #24]
                                         LTDC_LxDCCR_DCALPHA);
  LTDC_LAYER(hltdc, LayerIdx)->DCCR = (pLayerCfg->Backcolor.Blue | tmp | tmp1 | tmp2);
 8002714:	f891 5030 	ldrb.w	r5, [r1, #48]	; 0x30
 8002718:	ea45 6509 	orr.w	r5, r5, r9, lsl #24
 800271c:	ea45 2508 	orr.w	r5, r5, r8, lsl #8
 8002720:	ea45 4507 	orr.w	r5, r5, r7, lsl #16
 8002724:	619d      	str	r5, [r3, #24]

  /* Specifies the constant alpha value */
  LTDC_LAYER(hltdc, LayerIdx)->CACR &= ~(LTDC_LxCACR_CONSTA);
 8002726:	695d      	ldr	r5, [r3, #20]
 8002728:	f025 05ff 	bic.w	r5, r5, #255	; 0xff
 800272c:	615d      	str	r5, [r3, #20]
  LTDC_LAYER(hltdc, LayerIdx)->CACR = (pLayerCfg->Alpha);
 800272e:	694d      	ldr	r5, [r1, #20]
 8002730:	615d      	str	r5, [r3, #20]

  /* Specifies the blending factors */
  LTDC_LAYER(hltdc, LayerIdx)->BFCR &= ~(LTDC_LxBFCR_BF2 | LTDC_LxBFCR_BF1);
 8002732:	69dd      	ldr	r5, [r3, #28]
 8002734:	f425 65e0 	bic.w	r5, r5, #1792	; 0x700
 8002738:	f025 0507 	bic.w	r5, r5, #7
 800273c:	61dd      	str	r5, [r3, #28]
  LTDC_LAYER(hltdc, LayerIdx)->BFCR = (pLayerCfg->BlendingFactor1 | pLayerCfg->BlendingFactor2);
 800273e:	e9d1 5707 	ldrd	r5, r7, [r1, #28]
 8002742:	433d      	orrs	r5, r7
 8002744:	61dd      	str	r5, [r3, #28]

  /* Configure the color frame buffer start address */
  LTDC_LAYER(hltdc, LayerIdx)->CFBAR &= ~(LTDC_LxCFBAR_CFBADD);
 8002746:	6a9d      	ldr	r5, [r3, #40]	; 0x28
  LTDC_LAYER(hltdc, LayerIdx)->CFBAR = (pLayerCfg->FBStartAdress);
 8002748:	6a4d      	ldr	r5, [r1, #36]	; 0x24
  LTDC_LAYER(hltdc, LayerIdx)->CFBAR &= ~(LTDC_LxCFBAR_CFBADD);
 800274a:	f8c3 e028 	str.w	lr, [r3, #40]	; 0x28
  LTDC_LAYER(hltdc, LayerIdx)->CFBAR = (pLayerCfg->FBStartAdress);
 800274e:	629d      	str	r5, [r3, #40]	; 0x28

  if (pLayerCfg->PixelFormat == LTDC_PIXEL_FORMAT_ARGB8888)
 8002750:	b31e      	cbz	r6, 800279a <LTDC_SetConfig+0x100>
  {
    tmp = 4U;
  }
  else if (pLayerCfg->PixelFormat == LTDC_PIXEL_FORMAT_RGB888)
 8002752:	2e01      	cmp	r6, #1
 8002754:	d023      	beq.n	800279e <LTDC_SetConfig+0x104>
  {
    tmp = 3U;
  }
  else if ((pLayerCfg->PixelFormat == LTDC_PIXEL_FORMAT_ARGB4444) || \
 8002756:	1eb5      	subs	r5, r6, #2
 8002758:	2d02      	cmp	r5, #2
 800275a:	d922      	bls.n	80027a2 <LTDC_SetConfig+0x108>
  {
    tmp = 2U;
  }
  else
  {
    tmp = 1U;
 800275c:	2e07      	cmp	r6, #7
 800275e:	bf0c      	ite	eq
 8002760:	2502      	moveq	r5, #2
 8002762:	2501      	movne	r5, #1
  }

  /* Configure the color frame buffer pitch in byte */
  LTDC_LAYER(hltdc, LayerIdx)->CFBLR  &= ~(LTDC_LxCFBLR_CFBLL | LTDC_LxCFBLR_CFBP);
 8002764:	6ade      	ldr	r6, [r3, #44]	; 0x2c
 8002766:	f006 26e0 	and.w	r6, r6, #3758153728	; 0xe000e000
 800276a:	62de      	str	r6, [r3, #44]	; 0x2c
  LTDC_LAYER(hltdc, LayerIdx)->CFBLR  = (((pLayerCfg->ImageWidth * tmp) << 16U) | \
                                         (((pLayerCfg->WindowX1 - pLayerCfg->WindowX0) * tmp)  + 3U));
 800276c:	eba4 040c 	sub.w	r4, r4, ip
  LTDC_LAYER(hltdc, LayerIdx)->CFBLR  = (((pLayerCfg->ImageWidth * tmp) << 16U) | \
 8002770:	6a8e      	ldr	r6, [r1, #40]	; 0x28
  /* Configure the frame buffer line number */
  LTDC_LAYER(hltdc, LayerIdx)->CFBLNR  &= ~(LTDC_LxCFBLNR_CFBLNBR);
  LTDC_LAYER(hltdc, LayerIdx)->CFBLNR  = (pLayerCfg->ImageHeight);
 8002772:	6ac9      	ldr	r1, [r1, #44]	; 0x2c
                                         (((pLayerCfg->WindowX1 - pLayerCfg->WindowX0) * tmp)  + 3U));
 8002774:	436c      	muls	r4, r5
  LTDC_LAYER(hltdc, LayerIdx)->CFBLR  = (((pLayerCfg->ImageWidth * tmp) << 16U) | \
 8002776:	436e      	muls	r6, r5
                                         (((pLayerCfg->WindowX1 - pLayerCfg->WindowX0) * tmp)  + 3U));
 8002778:	3403      	adds	r4, #3
  LTDC_LAYER(hltdc, LayerIdx)->CFBLR  = (((pLayerCfg->ImageWidth * tmp) << 16U) | \
 800277a:	ea44 4406 	orr.w	r4, r4, r6, lsl #16
 800277e:	62dc      	str	r4, [r3, #44]	; 0x2c
  LTDC_LAYER(hltdc, LayerIdx)->CFBLNR  &= ~(LTDC_LxCFBLNR_CFBLNBR);
 8002780:	6b1c      	ldr	r4, [r3, #48]	; 0x30
 8002782:	f424 64ff 	bic.w	r4, r4, #2040	; 0x7f8
 8002786:	f024 0407 	bic.w	r4, r4, #7
 800278a:	631c      	str	r4, [r3, #48]	; 0x30
  LTDC_LAYER(hltdc, LayerIdx)->CFBLNR  = (pLayerCfg->ImageHeight);
 800278c:	6319      	str	r1, [r3, #48]	; 0x30

  /* Enable LTDC_Layer by setting LEN bit */
  LTDC_LAYER(hltdc, LayerIdx)->CR |= (uint32_t)LTDC_LxCR_LEN;
 800278e:	5883      	ldr	r3, [r0, r2]
 8002790:	f043 0301 	orr.w	r3, r3, #1
 8002794:	5083      	str	r3, [r0, r2]
}
 8002796:	e8bd 83f0 	ldmia.w	sp!, {r4, r5, r6, r7, r8, r9, pc}
    tmp = 4U;
 800279a:	2504      	movs	r5, #4
 800279c:	e7e2      	b.n	8002764 <LTDC_SetConfig+0xca>
    tmp = 3U;
 800279e:	2503      	movs	r5, #3
 80027a0:	e7e0      	b.n	8002764 <LTDC_SetConfig+0xca>
    tmp = 2U;
 80027a2:	2502      	movs	r5, #2
 80027a4:	e7de      	b.n	8002764 <LTDC_SetConfig+0xca>
	...

080027a8 <HAL_LTDC_Init>:
{
 80027a8:	b538      	push	{r3, r4, r5, lr}
  if (hltdc == NULL)
 80027aa:	4604      	mov	r4, r0
 80027ac:	2800      	cmp	r0, #0
 80027ae:	d063      	beq.n	8002878 <HAL_LTDC_Init+0xd0>
  if (hltdc->State == HAL_LTDC_STATE_RESET)
 80027b0:	f890 30a1 	ldrb.w	r3, [r0, #161]	; 0xa1
 80027b4:	f003 02ff 	and.w	r2, r3, #255	; 0xff
 80027b8:	b91b      	cbnz	r3, 80027c2 <HAL_LTDC_Init+0x1a>
    hltdc->Lock = HAL_UNLOCKED;
 80027ba:	f880 20a0 	strb.w	r2, [r0, #160]	; 0xa0
    HAL_LTDC_MspInit(hltdc);
 80027be:	f001 feb1 	bl	8004524 <HAL_LTDC_MspInit>
  hltdc->State = HAL_LTDC_STATE_BUSY;
 80027c2:	2302      	movs	r3, #2
 80027c4:	f884 30a1 	strb.w	r3, [r4, #161]	; 0xa1
  hltdc->Instance->GCR &= ~(LTDC_GCR_HSPOL | LTDC_GCR_VSPOL | LTDC_GCR_DEPOL | LTDC_GCR_PCPOL);
 80027c8:	6823      	ldr	r3, [r4, #0]
 80027ca:	699a      	ldr	r2, [r3, #24]
 80027cc:	f022 4270 	bic.w	r2, r2, #4026531840	; 0xf0000000
 80027d0:	619a      	str	r2, [r3, #24]
  hltdc->Instance->GCR |= (uint32_t)(hltdc->Init.HSPolarity | hltdc->Init.VSPolarity | \
 80027d2:	e9d4 2001 	ldrd	r2, r0, [r4, #4]
 80027d6:	4302      	orrs	r2, r0
 80027d8:	68e0      	ldr	r0, [r4, #12]
 80027da:	6999      	ldr	r1, [r3, #24]
 80027dc:	4302      	orrs	r2, r0
                                     hltdc->Init.DEPolarity | hltdc->Init.PCPolarity);
 80027de:	6920      	ldr	r0, [r4, #16]
 80027e0:	4302      	orrs	r2, r0
  hltdc->Instance->GCR |= (uint32_t)(hltdc->Init.HSPolarity | hltdc->Init.VSPolarity | \
 80027e2:	430a      	orrs	r2, r1
 80027e4:	619a      	str	r2, [r3, #24]
  hltdc->Instance->SSCR &= ~(LTDC_SSCR_VSH | LTDC_SSCR_HSW);
 80027e6:	689a      	ldr	r2, [r3, #8]
 80027e8:	4924      	ldr	r1, [pc, #144]	; (800287c <HAL_LTDC_Init+0xd4>)
  tmp = (hltdc->Init.HorizontalSync << 16U);
 80027ea:	6960      	ldr	r0, [r4, #20]
  hltdc->Instance->SSCR &= ~(LTDC_SSCR_VSH | LTDC_SSCR_HSW);
 80027ec:	400a      	ands	r2, r1
 80027ee:	609a      	str	r2, [r3, #8]
  hltdc->Instance->SSCR |= (tmp | hltdc->Init.VerticalSync);
 80027f0:	689a      	ldr	r2, [r3, #8]
 80027f2:	ea42 4200 	orr.w	r2, r2, r0, lsl #16
 80027f6:	69a0      	ldr	r0, [r4, #24]
 80027f8:	4302      	orrs	r2, r0
 80027fa:	609a      	str	r2, [r3, #8]
  hltdc->Instance->BPCR &= ~(LTDC_BPCR_AVBP | LTDC_BPCR_AHBP);
 80027fc:	68da      	ldr	r2, [r3, #12]
  tmp = (hltdc->Init.AccumulatedHBP << 16U);
 80027fe:	69e0      	ldr	r0, [r4, #28]
  hltdc->Instance->BPCR &= ~(LTDC_BPCR_AVBP | LTDC_BPCR_AHBP);
 8002800:	400a      	ands	r2, r1
 8002802:	60da      	str	r2, [r3, #12]
  hltdc->Instance->BPCR |= (tmp | hltdc->Init.AccumulatedVBP);
 8002804:	68da      	ldr	r2, [r3, #12]
 8002806:	ea42 4200 	orr.w	r2, r2, r0, lsl #16
 800280a:	6a20      	ldr	r0, [r4, #32]
 800280c:	4302      	orrs	r2, r0
 800280e:	60da      	str	r2, [r3, #12]
  hltdc->Instance->AWCR &= ~(LTDC_AWCR_AAH | LTDC_AWCR_AAW);
 8002810:	691a      	ldr	r2, [r3, #16]
  tmp = (hltdc->Init.AccumulatedActiveW << 16U);
 8002812:	6a60      	ldr	r0, [r4, #36]	; 0x24
  hltdc->Instance->AWCR &= ~(LTDC_AWCR_AAH | LTDC_AWCR_AAW);
 8002814:	400a      	ands	r2, r1
 8002816:	611a      	str	r2, [r3, #16]
  hltdc->Instance->AWCR |= (tmp | hltdc->Init.AccumulatedActiveH);
 8002818:	691a      	ldr	r2, [r3, #16]
 800281a:	ea42 4200 	orr.w	r2, r2, r0, lsl #16
 800281e:	6aa0      	ldr	r0, [r4, #40]	; 0x28
 8002820:	4302      	orrs	r2, r0
 8002822:	611a      	str	r2, [r3, #16]
  hltdc->Instance->TWCR &= ~(LTDC_TWCR_TOTALH | LTDC_TWCR_TOTALW);
 8002824:	695a      	ldr	r2, [r3, #20]
 8002826:	4011      	ands	r1, r2
 8002828:	6159      	str	r1, [r3, #20]
  hltdc->Instance->TWCR |= (tmp | hltdc->Init.TotalHeigh);
 800282a:	695a      	ldr	r2, [r3, #20]
  tmp = (hltdc->Init.TotalWidth << 16U);
 800282c:	6ae1      	ldr	r1, [r4, #44]	; 0x2c
  hltdc->Instance->TWCR |= (tmp | hltdc->Init.TotalHeigh);
 800282e:	ea42 4201 	orr.w	r2, r2, r1, lsl #16
 8002832:	6b21      	ldr	r1, [r4, #48]	; 0x30
 8002834:	430a      	orrs	r2, r1
 8002836:	615a      	str	r2, [r3, #20]
  hltdc->Instance->BCCR &= ~(LTDC_BCCR_BCBLUE | LTDC_BCCR_BCGREEN | LTDC_BCCR_BCRED);
 8002838:	6ad9      	ldr	r1, [r3, #44]	; 0x2c
  tmp1 = ((uint32_t)(hltdc->Init.Backcolor.Red) << 16U);
 800283a:	f894 0036 	ldrb.w	r0, [r4, #54]	; 0x36
  tmp = ((uint32_t)(hltdc->Init.Backcolor.Green) << 8U);
 800283e:	f894 5035 	ldrb.w	r5, [r4, #53]	; 0x35
  hltdc->Instance->BCCR &= ~(LTDC_BCCR_BCBLUE | LTDC_BCCR_BCGREEN | LTDC_BCCR_BCRED);
 8002842:	f001 417f 	and.w	r1, r1, #4278190080	; 0xff000000
 8002846:	62d9      	str	r1, [r3, #44]	; 0x2c
  hltdc->Instance->BCCR |= (tmp1 | tmp | hltdc->Init.Backcolor.Blue);
 8002848:	6ad9      	ldr	r1, [r3, #44]	; 0x2c
 800284a:	f894 2034 	ldrb.w	r2, [r4, #52]	; 0x34
 800284e:	430a      	orrs	r2, r1
 8002850:	ea42 2205 	orr.w	r2, r2, r5, lsl #8
 8002854:	ea42 4200 	orr.w	r2, r2, r0, lsl #16
 8002858:	62da      	str	r2, [r3, #44]	; 0x2c
  __HAL_LTDC_ENABLE_IT(hltdc, LTDC_IT_TE | LTDC_IT_FU);
 800285a:	6b5a      	ldr	r2, [r3, #52]	; 0x34
 800285c:	f042 0206 	orr.w	r2, r2, #6
 8002860:	635a      	str	r2, [r3, #52]	; 0x34
  __HAL_LTDC_ENABLE(hltdc);
 8002862:	699a      	ldr	r2, [r3, #24]
 8002864:	f042 0201 	orr.w	r2, r2, #1
 8002868:	619a      	str	r2, [r3, #24]
  hltdc->ErrorCode = HAL_LTDC_ERROR_NONE;
 800286a:	2000      	movs	r0, #0
  hltdc->State = HAL_LTDC_STATE_READY;
 800286c:	2301      	movs	r3, #1
  hltdc->ErrorCode = HAL_LTDC_ERROR_NONE;
 800286e:	f8c4 00a4 	str.w	r0, [r4, #164]	; 0xa4
  hltdc->State = HAL_LTDC_STATE_READY;
 8002872:	f884 30a1 	strb.w	r3, [r4, #161]	; 0xa1
}
 8002876:	bd38      	pop	{r3, r4, r5, pc}
    return HAL_ERROR;
 8002878:	2001      	movs	r0, #1
 800287a:	e7fc      	b.n	8002876 <HAL_LTDC_Init+0xce>
 800287c:	f000f800 	.word	0xf000f800

08002880 <HAL_LTDC_DeInit>:
{
 8002880:	b538      	push	{r3, r4, r5, lr}
  if (hltdc == NULL)
 8002882:	4604      	mov	r4, r0
 8002884:	b360      	cbz	r0, 80028e0 <HAL_LTDC_DeInit+0x60>
  __HAL_LTDC_LAYER_DISABLE(hltdc, LTDC_LAYER_1);
 8002886:	6803      	ldr	r3, [r0, #0]
 8002888:	f8d3 2084 	ldr.w	r2, [r3, #132]	; 0x84
 800288c:	f022 0201 	bic.w	r2, r2, #1
 8002890:	f8c3 2084 	str.w	r2, [r3, #132]	; 0x84
  __HAL_LTDC_LAYER_DISABLE(hltdc, LTDC_LAYER_2);
 8002894:	f8d3 2104 	ldr.w	r2, [r3, #260]	; 0x104
 8002898:	f022 0201 	bic.w	r2, r2, #1
 800289c:	f8c3 2104 	str.w	r2, [r3, #260]	; 0x104
  __HAL_LTDC_VERTICAL_BLANKING_RELOAD_CONFIG(hltdc);
 80028a0:	6a5a      	ldr	r2, [r3, #36]	; 0x24
 80028a2:	f042 0202 	orr.w	r2, r2, #2
 80028a6:	625a      	str	r2, [r3, #36]	; 0x24
  tickstart = HAL_GetTick();
 80028a8:	f7ff f84a 	bl	8001940 <HAL_GetTick>
 80028ac:	4605      	mov	r5, r0
  while (READ_BIT(hltdc->Instance->CDSR, LTDC_CDSR_VSYNCS) == 0U)
 80028ae:	6823      	ldr	r3, [r4, #0]
 80028b0:	6c9b      	ldr	r3, [r3, #72]	; 0x48
 80028b2:	075b      	lsls	r3, r3, #29
 80028b4:	d404      	bmi.n	80028c0 <HAL_LTDC_DeInit+0x40>
    if ((HAL_GetTick() - tickstart) > LTDC_TIMEOUT_VALUE)
 80028b6:	f7ff f843 	bl	8001940 <HAL_GetTick>
 80028ba:	1b40      	subs	r0, r0, r5
 80028bc:	2864      	cmp	r0, #100	; 0x64
 80028be:	d9f6      	bls.n	80028ae <HAL_LTDC_DeInit+0x2e>
  __HAL_LTDC_DISABLE(hltdc);
 80028c0:	6822      	ldr	r2, [r4, #0]
 80028c2:	6993      	ldr	r3, [r2, #24]
 80028c4:	f023 0301 	bic.w	r3, r3, #1
  HAL_LTDC_MspDeInit(hltdc);
 80028c8:	4620      	mov	r0, r4
  __HAL_LTDC_DISABLE(hltdc);
 80028ca:	6193      	str	r3, [r2, #24]
  HAL_LTDC_MspDeInit(hltdc);
 80028cc:	f001 fecc 	bl	8004668 <HAL_LTDC_MspDeInit>
  hltdc->ErrorCode = HAL_LTDC_ERROR_NONE;
 80028d0:	2000      	movs	r0, #0
 80028d2:	f8c4 00a4 	str.w	r0, [r4, #164]	; 0xa4
  __HAL_UNLOCK(hltdc);
 80028d6:	f884 00a0 	strb.w	r0, [r4, #160]	; 0xa0
  hltdc->State = HAL_LTDC_STATE_RESET;
 80028da:	f884 00a1 	strb.w	r0, [r4, #161]	; 0xa1
}
 80028de:	bd38      	pop	{r3, r4, r5, pc}
    return HAL_ERROR;
 80028e0:	2001      	movs	r0, #1
 80028e2:	e7fc      	b.n	80028de <HAL_LTDC_DeInit+0x5e>

080028e4 <HAL_LTDC_ErrorCallback>:
 80028e4:	4770      	bx	lr

080028e6 <HAL_LTDC_ReloadEventCallback>:
 80028e6:	4770      	bx	lr

080028e8 <HAL_LTDC_IRQHandler>:
  uint32_t isrflags  = READ_REG(hltdc->Instance->ISR);
 80028e8:	6803      	ldr	r3, [r0, #0]
{
 80028ea:	b570      	push	{r4, r5, r6, lr}
  uint32_t isrflags  = READ_REG(hltdc->Instance->ISR);
 80028ec:	6b9e      	ldr	r6, [r3, #56]	; 0x38
  uint32_t itsources = READ_REG(hltdc->Instance->IER);
 80028ee:	6b5d      	ldr	r5, [r3, #52]	; 0x34
  if (((isrflags & LTDC_ISR_TERRIF) != 0U) && ((itsources & LTDC_IER_TERRIE) != 0U))
 80028f0:	0772      	lsls	r2, r6, #29
{
 80028f2:	4604      	mov	r4, r0
  if (((isrflags & LTDC_ISR_TERRIF) != 0U) && ((itsources & LTDC_IER_TERRIE) != 0U))
 80028f4:	d514      	bpl.n	8002920 <HAL_LTDC_IRQHandler+0x38>
 80028f6:	0769      	lsls	r1, r5, #29
 80028f8:	d512      	bpl.n	8002920 <HAL_LTDC_IRQHandler+0x38>
    __HAL_LTDC_DISABLE_IT(hltdc, LTDC_IT_TE);
 80028fa:	6b5a      	ldr	r2, [r3, #52]	; 0x34
 80028fc:	f022 0204 	bic.w	r2, r2, #4
 8002900:	635a      	str	r2, [r3, #52]	; 0x34
    __HAL_LTDC_CLEAR_FLAG(hltdc, LTDC_FLAG_TE);
 8002902:	2204      	movs	r2, #4
 8002904:	63da      	str	r2, [r3, #60]	; 0x3c
    hltdc->ErrorCode |= HAL_LTDC_ERROR_TE;
 8002906:	f8d0 30a4 	ldr.w	r3, [r0, #164]	; 0xa4
 800290a:	f043 0301 	orr.w	r3, r3, #1
 800290e:	f8c0 30a4 	str.w	r3, [r0, #164]	; 0xa4
    __HAL_UNLOCK(hltdc);
 8002912:	2300      	movs	r3, #0
    hltdc->State = HAL_LTDC_STATE_ERROR;
 8002914:	f880 20a1 	strb.w	r2, [r0, #161]	; 0xa1
    __HAL_UNLOCK(hltdc);
 8002918:	f880 30a0 	strb.w	r3, [r0, #160]	; 0xa0
    HAL_LTDC_ErrorCallback(hltdc);
 800291c:	f7ff ffe2 	bl	80028e4 <HAL_LTDC_ErrorCallback>
  if (((isrflags & LTDC_ISR_FUIF) != 0U) && ((itsources & LTDC_IER_FUIE) != 0U))
 8002920:	07b2      	lsls	r2, r6, #30
 8002922:	d516      	bpl.n	8002952 <HAL_LTDC_IRQHandler+0x6a>
 8002924:	07ab      	lsls	r3, r5, #30
 8002926:	d514      	bpl.n	8002952 <HAL_LTDC_IRQHandler+0x6a>
    __HAL_LTDC_DISABLE_IT(hltdc, LTDC_IT_FU);
 8002928:	6823      	ldr	r3, [r4, #0]
 800292a:	6b5a      	ldr	r2, [r3, #52]	; 0x34
 800292c:	f022 0202 	bic.w	r2, r2, #2
 8002930:	635a      	str	r2, [r3, #52]	; 0x34
    __HAL_LTDC_CLEAR_FLAG(hltdc, LTDC_FLAG_FU);
 8002932:	2202      	movs	r2, #2
 8002934:	63da      	str	r2, [r3, #60]	; 0x3c
    hltdc->ErrorCode |= HAL_LTDC_ERROR_FU;
 8002936:	f8d4 30a4 	ldr.w	r3, [r4, #164]	; 0xa4
 800293a:	4313      	orrs	r3, r2
 800293c:	f8c4 30a4 	str.w	r3, [r4, #164]	; 0xa4
    hltdc->State = HAL_LTDC_STATE_ERROR;
 8002940:	2304      	movs	r3, #4
 8002942:	f884 30a1 	strb.w	r3, [r4, #161]	; 0xa1
    __HAL_UNLOCK(hltdc);
 8002946:	2300      	movs	r3, #0
 8002948:	f884 30a0 	strb.w	r3, [r4, #160]	; 0xa0
    HAL_LTDC_ErrorCallback(hltdc);
 800294c:	4620      	mov	r0, r4
 800294e:	f7ff ffc9 	bl	80028e4 <HAL_LTDC_ErrorCallback>
  if (((isrflags & LTDC_ISR_LIF) != 0U) && ((itsources & LTDC_IER_LIE) != 0U))
 8002952:	07f0      	lsls	r0, r6, #31
 8002954:	d510      	bpl.n	8002978 <HAL_LTDC_IRQHandler+0x90>
 8002956:	07e9      	lsls	r1, r5, #31
 8002958:	d50e      	bpl.n	8002978 <HAL_LTDC_IRQHandler+0x90>
    __HAL_LTDC_DISABLE_IT(hltdc, LTDC_IT_LI);
 800295a:	6823      	ldr	r3, [r4, #0]
 800295c:	6b5a      	ldr	r2, [r3, #52]	; 0x34
 800295e:	f022 0201 	bic.w	r2, r2, #1
 8002962:	635a      	str	r2, [r3, #52]	; 0x34
    __HAL_LTDC_CLEAR_FLAG(hltdc, LTDC_FLAG_LI);
 8002964:	2201      	movs	r2, #1
 8002966:	63da      	str	r2, [r3, #60]	; 0x3c
    __HAL_UNLOCK(hltdc);
 8002968:	2300      	movs	r3, #0
    hltdc->State = HAL_LTDC_STATE_READY;
 800296a:	f884 20a1 	strb.w	r2, [r4, #161]	; 0xa1
    __HAL_UNLOCK(hltdc);
 800296e:	f884 30a0 	strb.w	r3, [r4, #160]	; 0xa0
    HAL_LTDC_LineEventCallback(hltdc);
 8002972:	4620      	mov	r0, r4
 8002974:	f001 fe84 	bl	8004680 <HAL_LTDC_LineEventCallback>
  if (((isrflags & LTDC_ISR_RRIF) != 0U) && ((itsources & LTDC_IER_RRIE) != 0U))
 8002978:	0732      	lsls	r2, r6, #28
 800297a:	d511      	bpl.n	80029a0 <HAL_LTDC_IRQHandler+0xb8>
 800297c:	072b      	lsls	r3, r5, #28
 800297e:	d50f      	bpl.n	80029a0 <HAL_LTDC_IRQHandler+0xb8>
    __HAL_LTDC_DISABLE_IT(hltdc, LTDC_IT_RR);
 8002980:	6823      	ldr	r3, [r4, #0]
 8002982:	6b5a      	ldr	r2, [r3, #52]	; 0x34
 8002984:	f022 0208 	bic.w	r2, r2, #8
 8002988:	635a      	str	r2, [r3, #52]	; 0x34
    __HAL_LTDC_CLEAR_FLAG(hltdc, LTDC_FLAG_RR);
 800298a:	2208      	movs	r2, #8
 800298c:	63da      	str	r2, [r3, #60]	; 0x3c
    hltdc->State = HAL_LTDC_STATE_READY;
 800298e:	2301      	movs	r3, #1
 8002990:	f884 30a1 	strb.w	r3, [r4, #161]	; 0xa1
    __HAL_UNLOCK(hltdc);
 8002994:	2300      	movs	r3, #0
 8002996:	f884 30a0 	strb.w	r3, [r4, #160]	; 0xa0
    HAL_LTDC_ReloadEventCallback(hltdc);
 800299a:	4620      	mov	r0, r4
 800299c:	f7ff ffa3 	bl	80028e6 <HAL_LTDC_ReloadEventCallback>
}
 80029a0:	bd70      	pop	{r4, r5, r6, pc}

080029a2 <HAL_LTDC_ConfigLayer>:
{
 80029a2:	e92d 41f0 	stmdb	sp!, {r4, r5, r6, r7, r8, lr}
  __HAL_LOCK(hltdc);
 80029a6:	f890 30a0 	ldrb.w	r3, [r0, #160]	; 0xa0
 80029aa:	2b01      	cmp	r3, #1
{
 80029ac:	4606      	mov	r6, r0
 80029ae:	460f      	mov	r7, r1
 80029b0:	4694      	mov	ip, r2
 80029b2:	f04f 0002 	mov.w	r0, #2
  __HAL_LOCK(hltdc);
 80029b6:	d01f      	beq.n	80029f8 <HAL_LTDC_ConfigLayer+0x56>
 80029b8:	f04f 0801 	mov.w	r8, #1
 80029bc:	f886 80a0 	strb.w	r8, [r6, #160]	; 0xa0
  hltdc->State = HAL_LTDC_STATE_BUSY;
 80029c0:	f886 00a1 	strb.w	r0, [r6, #161]	; 0xa1
  hltdc->LayerCfg[LayerIdx] = *pLayerCfg;
 80029c4:	2434      	movs	r4, #52	; 0x34
 80029c6:	460d      	mov	r5, r1
 80029c8:	fb04 6402 	mla	r4, r4, r2, r6
 80029cc:	cd0f      	ldmia	r5!, {r0, r1, r2, r3}
 80029ce:	3438      	adds	r4, #56	; 0x38
 80029d0:	c40f      	stmia	r4!, {r0, r1, r2, r3}
 80029d2:	cd0f      	ldmia	r5!, {r0, r1, r2, r3}
 80029d4:	c40f      	stmia	r4!, {r0, r1, r2, r3}
 80029d6:	cd0f      	ldmia	r5!, {r0, r1, r2, r3}
 80029d8:	c40f      	stmia	r4!, {r0, r1, r2, r3}
 80029da:	682b      	ldr	r3, [r5, #0]
 80029dc:	6023      	str	r3, [r4, #0]
  LTDC_SetConfig(hltdc, pLayerCfg, LayerIdx);
 80029de:	4630      	mov	r0, r6
 80029e0:	4662      	mov	r2, ip
 80029e2:	4639      	mov	r1, r7
 80029e4:	f7ff fe59 	bl	800269a <LTDC_SetConfig>
  hltdc->Instance->SRCR = LTDC_SRCR_IMR;
 80029e8:	6833      	ldr	r3, [r6, #0]
  __HAL_UNLOCK(hltdc);
 80029ea:	2000      	movs	r0, #0
  hltdc->Instance->SRCR = LTDC_SRCR_IMR;
 80029ec:	f8c3 8024 	str.w	r8, [r3, #36]	; 0x24
  hltdc->State  = HAL_LTDC_STATE_READY;
 80029f0:	f886 80a1 	strb.w	r8, [r6, #161]	; 0xa1
  __HAL_UNLOCK(hltdc);
 80029f4:	f886 00a0 	strb.w	r0, [r6, #160]	; 0xa0
}
 80029f8:	e8bd 81f0 	ldmia.w	sp!, {r4, r5, r6, r7, r8, pc}

080029fc <HAL_LTDC_ConfigColorKeying>:
{
 80029fc:	b510      	push	{r4, lr}
  __HAL_LOCK(hltdc);
 80029fe:	f890 30a0 	ldrb.w	r3, [r0, #160]	; 0xa0
 8002a02:	2b01      	cmp	r3, #1
 8002a04:	f04f 0302 	mov.w	r3, #2
 8002a08:	d013      	beq.n	8002a32 <HAL_LTDC_ConfigColorKeying+0x36>
  LTDC_LAYER(hltdc, LayerIdx)->CKCR &=  ~(LTDC_LxCKCR_CKBLUE | LTDC_LxCKCR_CKGREEN | LTDC_LxCKCR_CKRED);
 8002a0a:	6804      	ldr	r4, [r0, #0]
  hltdc->State = HAL_LTDC_STATE_BUSY;
 8002a0c:	f880 30a1 	strb.w	r3, [r0, #161]	; 0xa1
  LTDC_LAYER(hltdc, LayerIdx)->CKCR &=  ~(LTDC_LxCKCR_CKBLUE | LTDC_LxCKCR_CKGREEN | LTDC_LxCKCR_CKRED);
 8002a10:	eb04 12c2 	add.w	r2, r4, r2, lsl #7
 8002a14:	f8d2 3090 	ldr.w	r3, [r2, #144]	; 0x90
 8002a18:	f003 437f 	and.w	r3, r3, #4278190080	; 0xff000000
 8002a1c:	f8c2 3090 	str.w	r3, [r2, #144]	; 0x90
  hltdc->Instance->SRCR = LTDC_SRCR_IMR;
 8002a20:	2301      	movs	r3, #1
  LTDC_LAYER(hltdc, LayerIdx)->CKCR  = RGBValue;
 8002a22:	f8c2 1090 	str.w	r1, [r2, #144]	; 0x90
  hltdc->Instance->SRCR = LTDC_SRCR_IMR;
 8002a26:	6263      	str	r3, [r4, #36]	; 0x24
  hltdc->State = HAL_LTDC_STATE_READY;
 8002a28:	f880 30a1 	strb.w	r3, [r0, #161]	; 0xa1
  __HAL_UNLOCK(hltdc);
 8002a2c:	2300      	movs	r3, #0
 8002a2e:	f880 30a0 	strb.w	r3, [r0, #160]	; 0xa0
  __HAL_LOCK(hltdc);
 8002a32:	4618      	mov	r0, r3
}
 8002a34:	bd10      	pop	{r4, pc}

08002a36 <HAL_LTDC_ConfigCLUT>:
{
 8002a36:	b5f0      	push	{r4, r5, r6, r7, lr}
  __HAL_LOCK(hltdc);
 8002a38:	f890 40a0 	ldrb.w	r4, [r0, #160]	; 0xa0
 8002a3c:	2c01      	cmp	r4, #1
 8002a3e:	f04f 0402 	mov.w	r4, #2
 8002a42:	d02d      	beq.n	8002aa0 <HAL_LTDC_ConfigCLUT+0x6a>
    LTDC_LAYER(hltdc, LayerIdx)->CLUTWR  = tmp;
 8002a44:	ea4f 1cc3 	mov.w	ip, r3, lsl #7
    if (hltdc->LayerCfg[LayerIdx].PixelFormat == LTDC_PIXEL_FORMAT_AL44)
 8002a48:	2634      	movs	r6, #52	; 0x34
  hltdc->State = HAL_LTDC_STATE_BUSY;
 8002a4a:	f880 40a1 	strb.w	r4, [r0, #161]	; 0xa1
  for (counter = 0U; (counter < CLUTSize); counter++)
 8002a4e:	f10c 0c84 	add.w	ip, ip, #132	; 0x84
 8002a52:	2500      	movs	r5, #0
    if (hltdc->LayerCfg[LayerIdx].PixelFormat == LTDC_PIXEL_FORMAT_AL44)
 8002a54:	fb06 0603 	mla	r6, r6, r3, r0
      tmp  = (((counter + (16U * counter)) << 24U) | ((uint32_t)(*pcolorlut) & 0xFFU) | \
 8002a58:	f04f 5e88 	mov.w	lr, #285212672	; 0x11000000
  for (counter = 0U; (counter < CLUTSize); counter++)
 8002a5c:	4295      	cmp	r5, r2
 8002a5e:	d107      	bne.n	8002a70 <HAL_LTDC_ConfigCLUT+0x3a>
  hltdc->State = HAL_LTDC_STATE_READY;
 8002a60:	2301      	movs	r3, #1
 8002a62:	f880 30a1 	strb.w	r3, [r0, #161]	; 0xa1
  __HAL_UNLOCK(hltdc);
 8002a66:	2300      	movs	r3, #0
 8002a68:	f880 30a0 	strb.w	r3, [r0, #160]	; 0xa0
  return HAL_OK;
 8002a6c:	4618      	mov	r0, r3
}
 8002a6e:	bdf0      	pop	{r4, r5, r6, r7, pc}
    if (hltdc->LayerCfg[LayerIdx].PixelFormat == LTDC_PIXEL_FORMAT_AL44)
 8002a70:	6cb7      	ldr	r7, [r6, #72]	; 0x48
      tmp  = (((counter + (16U * counter)) << 24U) | ((uint32_t)(*pcolorlut) & 0xFFU) | \
 8002a72:	f851 3025 	ldr.w	r3, [r1, r5, lsl #2]
    if (hltdc->LayerCfg[LayerIdx].PixelFormat == LTDC_PIXEL_FORMAT_AL44)
 8002a76:	2f06      	cmp	r7, #6
              ((uint32_t)(*pcolorlut) & 0xFF00U) | ((uint32_t)(*pcolorlut) & 0xFF0000U));
 8002a78:	f403 047f 	and.w	r4, r3, #16711680	; 0xff0000
      tmp  = (((counter + (16U * counter)) << 24U) | ((uint32_t)(*pcolorlut) & 0xFFU) | \
 8002a7c:	bf03      	ittte	eq
 8002a7e:	fb0e f705 	muleq.w	r7, lr, r5
 8002a82:	433c      	orreq	r4, r7
 8002a84:	b2df      	uxtbeq	r7, r3
      tmp  = ((counter << 24U) | ((uint32_t)(*pcolorlut) & 0xFFU) | \
 8002a86:	ea44 6405 	orrne.w	r4, r4, r5, lsl #24
      tmp  = (((counter + (16U * counter)) << 24U) | ((uint32_t)(*pcolorlut) & 0xFFU) | \
 8002a8a:	bf06      	itte	eq
 8002a8c:	433c      	orreq	r4, r7
              ((uint32_t)(*pcolorlut) & 0xFF00U) | ((uint32_t)(*pcolorlut) & 0xFF0000U));
 8002a8e:	f403 437f 	andeq.w	r3, r3, #65280	; 0xff00
      tmp  = ((counter << 24U) | ((uint32_t)(*pcolorlut) & 0xFFU) | \
 8002a92:	b29b      	uxthne	r3, r3
 8002a94:	4323      	orrs	r3, r4
    LTDC_LAYER(hltdc, LayerIdx)->CLUTWR  = tmp;
 8002a96:	6804      	ldr	r4, [r0, #0]
 8002a98:	4464      	add	r4, ip
  for (counter = 0U; (counter < CLUTSize); counter++)
 8002a9a:	3501      	adds	r5, #1
    LTDC_LAYER(hltdc, LayerIdx)->CLUTWR  = tmp;
 8002a9c:	6423      	str	r3, [r4, #64]	; 0x40
  for (counter = 0U; (counter < CLUTSize); counter++)
 8002a9e:	e7dd      	b.n	8002a5c <HAL_LTDC_ConfigCLUT+0x26>
  __HAL_LOCK(hltdc);
 8002aa0:	4620      	mov	r0, r4
 8002aa2:	e7e4      	b.n	8002a6e <HAL_LTDC_ConfigCLUT+0x38>

08002aa4 <HAL_LTDC_EnableColorKeying>:
  __HAL_LOCK(hltdc);
 8002aa4:	f890 30a0 	ldrb.w	r3, [r0, #160]	; 0xa0
 8002aa8:	2b01      	cmp	r3, #1
 8002aaa:	f04f 0302 	mov.w	r3, #2
 8002aae:	d00f      	beq.n	8002ad0 <HAL_LTDC_EnableColorKeying+0x2c>
  LTDC_LAYER(hltdc, LayerIdx)->CR |= (uint32_t)LTDC_LxCR_COLKEN;
 8002ab0:	01c9      	lsls	r1, r1, #7
  hltdc->State = HAL_LTDC_STATE_BUSY;
 8002ab2:	f880 30a1 	strb.w	r3, [r0, #161]	; 0xa1
  LTDC_LAYER(hltdc, LayerIdx)->CR |= (uint32_t)LTDC_LxCR_COLKEN;
 8002ab6:	3184      	adds	r1, #132	; 0x84
 8002ab8:	6803      	ldr	r3, [r0, #0]
 8002aba:	585a      	ldr	r2, [r3, r1]
 8002abc:	f042 0202 	orr.w	r2, r2, #2
 8002ac0:	505a      	str	r2, [r3, r1]
  hltdc->Instance->SRCR = LTDC_SRCR_IMR;
 8002ac2:	2201      	movs	r2, #1
 8002ac4:	625a      	str	r2, [r3, #36]	; 0x24
  __HAL_UNLOCK(hltdc);
 8002ac6:	2300      	movs	r3, #0
  hltdc->State = HAL_LTDC_STATE_READY;
 8002ac8:	f880 20a1 	strb.w	r2, [r0, #161]	; 0xa1
  __HAL_UNLOCK(hltdc);
 8002acc:	f880 30a0 	strb.w	r3, [r0, #160]	; 0xa0
  __HAL_LOCK(hltdc);
 8002ad0:	4618      	mov	r0, r3
}
 8002ad2:	4770      	bx	lr

08002ad4 <HAL_LTDC_DisableColorKeying>:
  __HAL_LOCK(hltdc);
 8002ad4:	f890 30a0 	ldrb.w	r3, [r0, #160]	; 0xa0
 8002ad8:	2b01      	cmp	r3, #1
 8002ada:	f04f 0302 	mov.w	r3, #2
 8002ade:	d00f      	beq.n	8002b00 <HAL_LTDC_DisableColorKeying+0x2c>
  LTDC_LAYER(hltdc, LayerIdx)->CR &= ~(uint32_t)LTDC_LxCR_COLKEN;
 8002ae0:	01c9      	lsls	r1, r1, #7
  hltdc->State = HAL_LTDC_STATE_BUSY;
 8002ae2:	f880 30a1 	strb.w	r3, [r0, #161]	; 0xa1
  LTDC_LAYER(hltdc, LayerIdx)->CR &= ~(uint32_t)LTDC_LxCR_COLKEN;
 8002ae6:	3184      	adds	r1, #132	; 0x84
 8002ae8:	6803      	ldr	r3, [r0, #0]
 8002aea:	585a      	ldr	r2, [r3, r1]
 8002aec:	f022 0202 	bic.w	r2, r2, #2
 8002af0:	505a      	str	r2, [r3, r1]
  hltdc->Instance->SRCR = LTDC_SRCR_IMR;
 8002af2:	2201      	movs	r2, #1
 8002af4:	625a      	str	r2, [r3, #36]	; 0x24
  __HAL_UNLOCK(hltdc);
 8002af6:	2300      	movs	r3, #0
  hltdc->State = HAL_LTDC_STATE_READY;
 8002af8:	f880 20a1 	strb.w	r2, [r0, #161]	; 0xa1
  __HAL_UNLOCK(hltdc);
 8002afc:	f880 30a0 	strb.w	r3, [r0, #160]	; 0xa0
  __HAL_LOCK(hltdc);
 8002b00:	4618      	mov	r0, r3
}
 8002b02:	4770      	bx	lr

08002b04 <HAL_LTDC_EnableCLUT>:
  __HAL_LOCK(hltdc);
 8002b04:	f890 30a0 	ldrb.w	r3, [r0, #160]	; 0xa0
 8002b08:	2b01      	cmp	r3, #1
 8002b0a:	f04f 0302 	mov.w	r3, #2
 8002b0e:	d00f      	beq.n	8002b30 <HAL_LTDC_EnableCLUT+0x2c>
  LTDC_LAYER(hltdc, LayerIdx)->CR |= (uint32_t)LTDC_LxCR_CLUTEN;
 8002b10:	01c9      	lsls	r1, r1, #7
  hltdc->State = HAL_LTDC_STATE_BUSY;
 8002b12:	f880 30a1 	strb.w	r3, [r0, #161]	; 0xa1
  LTDC_LAYER(hltdc, LayerIdx)->CR |= (uint32_t)LTDC_LxCR_CLUTEN;
 8002b16:	3184      	adds	r1, #132	; 0x84
 8002b18:	6803      	ldr	r3, [r0, #0]
 8002b1a:	585a      	ldr	r2, [r3, r1]
 8002b1c:	f042 0210 	orr.w	r2, r2, #16
 8002b20:	505a      	str	r2, [r3, r1]
  hltdc->Instance->SRCR = LTDC_SRCR_IMR;
 8002b22:	2201      	movs	r2, #1
 8002b24:	625a      	str	r2, [r3, #36]	; 0x24
  __HAL_UNLOCK(hltdc);
 8002b26:	2300      	movs	r3, #0
  hltdc->State = HAL_LTDC_STATE_READY;
 8002b28:	f880 20a1 	strb.w	r2, [r0, #161]	; 0xa1
  __HAL_UNLOCK(hltdc);
 8002b2c:	f880 30a0 	strb.w	r3, [r0, #160]	; 0xa0
  __HAL_LOCK(hltdc);
 8002b30:	4618      	mov	r0, r3
}
 8002b32:	4770      	bx	lr

08002b34 <HAL_LTDC_SetWindowPosition>:
{
 8002b34:	b5f8      	push	{r3, r4, r5, r6, r7, lr}
  __HAL_LOCK(hltdc);
 8002b36:	f890 50a0 	ldrb.w	r5, [r0, #160]	; 0xa0
 8002b3a:	2d01      	cmp	r5, #1
{
 8002b3c:	4604      	mov	r4, r0
 8002b3e:	469c      	mov	ip, r3
 8002b40:	f04f 0502 	mov.w	r5, #2
  __HAL_LOCK(hltdc);
 8002b44:	d01d      	beq.n	8002b82 <HAL_LTDC_SetWindowPosition+0x4e>
  hltdc->State = HAL_LTDC_STATE_BUSY;
 8002b46:	f880 50a1 	strb.w	r5, [r0, #161]	; 0xa1
  pLayerCfg->WindowX0 = X0;
 8002b4a:	2534      	movs	r5, #52	; 0x34
 8002b4c:	435d      	muls	r5, r3
 8002b4e:	1946      	adds	r6, r0, r5
  __HAL_LOCK(hltdc);
 8002b50:	2701      	movs	r7, #1
 8002b52:	f880 70a0 	strb.w	r7, [r0, #160]	; 0xa0
  pLayerCfg->WindowX1 = X0 + pLayerCfg->ImageWidth;
 8002b56:	6e33      	ldr	r3, [r6, #96]	; 0x60
  pLayerCfg->WindowX0 = X0;
 8002b58:	63b1      	str	r1, [r6, #56]	; 0x38
  pLayerCfg->WindowX1 = X0 + pLayerCfg->ImageWidth;
 8002b5a:	4419      	add	r1, r3
  pLayerCfg->WindowY0 = Y0;
 8002b5c:	e9c6 120f 	strd	r1, r2, [r6, #60]	; 0x3c
  pLayerCfg->WindowY1 = Y0 + pLayerCfg->ImageHeight;
 8002b60:	6e71      	ldr	r1, [r6, #100]	; 0x64
 8002b62:	440a      	add	r2, r1
  pLayerCfg = &hltdc->LayerCfg[LayerIdx];
 8002b64:	f105 0138 	add.w	r1, r5, #56	; 0x38
  pLayerCfg->WindowY1 = Y0 + pLayerCfg->ImageHeight;
 8002b68:	6472      	str	r2, [r6, #68]	; 0x44
  LTDC_SetConfig(hltdc, pLayerCfg, LayerIdx);
 8002b6a:	4401      	add	r1, r0
 8002b6c:	4662      	mov	r2, ip
 8002b6e:	f7ff fd94 	bl	800269a <LTDC_SetConfig>
  hltdc->Instance->SRCR = LTDC_SRCR_IMR;
 8002b72:	6823      	ldr	r3, [r4, #0]
  __HAL_UNLOCK(hltdc);
 8002b74:	2000      	movs	r0, #0
  hltdc->Instance->SRCR = LTDC_SRCR_IMR;
 8002b76:	625f      	str	r7, [r3, #36]	; 0x24
  hltdc->State = HAL_LTDC_STATE_READY;
 8002b78:	f884 70a1 	strb.w	r7, [r4, #161]	; 0xa1
  __HAL_UNLOCK(hltdc);
 8002b7c:	f884 00a0 	strb.w	r0, [r4, #160]	; 0xa0
}
 8002b80:	bdf8      	pop	{r3, r4, r5, r6, r7, pc}
  __HAL_LOCK(hltdc);
 8002b82:	4628      	mov	r0, r5
 8002b84:	e7fc      	b.n	8002b80 <HAL_LTDC_SetWindowPosition+0x4c>

08002b86 <HAL_LTDC_SetAlpha>:
{
 8002b86:	b570      	push	{r4, r5, r6, lr}
  __HAL_LOCK(hltdc);
 8002b88:	f890 30a0 	ldrb.w	r3, [r0, #160]	; 0xa0
 8002b8c:	2b01      	cmp	r3, #1
{
 8002b8e:	4604      	mov	r4, r0
 8002b90:	f04f 0302 	mov.w	r3, #2
  __HAL_LOCK(hltdc);
 8002b94:	d015      	beq.n	8002bc2 <HAL_LTDC_SetAlpha+0x3c>
  hltdc->State = HAL_LTDC_STATE_BUSY;
 8002b96:	f880 30a1 	strb.w	r3, [r0, #161]	; 0xa1
  pLayerCfg->Alpha = Alpha;
 8002b9a:	2334      	movs	r3, #52	; 0x34
 8002b9c:	4353      	muls	r3, r2
 8002b9e:	18c5      	adds	r5, r0, r3
  __HAL_LOCK(hltdc);
 8002ba0:	2601      	movs	r6, #1
 8002ba2:	f880 60a0 	strb.w	r6, [r0, #160]	; 0xa0
  pLayerCfg->Alpha = Alpha;
 8002ba6:	64e9      	str	r1, [r5, #76]	; 0x4c
  pLayerCfg = &hltdc->LayerCfg[LayerIdx];
 8002ba8:	f103 0138 	add.w	r1, r3, #56	; 0x38
  LTDC_SetConfig(hltdc, pLayerCfg, LayerIdx);
 8002bac:	4401      	add	r1, r0
 8002bae:	f7ff fd74 	bl	800269a <LTDC_SetConfig>
  hltdc->Instance->SRCR = LTDC_SRCR_IMR;
 8002bb2:	6823      	ldr	r3, [r4, #0]
  __HAL_UNLOCK(hltdc);
 8002bb4:	2000      	movs	r0, #0
  hltdc->Instance->SRCR = LTDC_SRCR_IMR;
 8002bb6:	625e      	str	r6, [r3, #36]	; 0x24
  hltdc->State = HAL_LTDC_STATE_READY;
 8002bb8:	f884 60a1 	strb.w	r6, [r4, #161]	; 0xa1
  __HAL_UNLOCK(hltdc);
 8002bbc:	f884 00a0 	strb.w	r0, [r4, #160]	; 0xa0
}
 8002bc0:	bd70      	pop	{r4, r5, r6, pc}
  __HAL_LOCK(hltdc);
 8002bc2:	4618      	mov	r0, r3
 8002bc4:	e7fc      	b.n	8002bc0 <HAL_LTDC_SetAlpha+0x3a>

08002bc6 <HAL_LTDC_SetAddress>:
{
 8002bc6:	b570      	push	{r4, r5, r6, lr}
  __HAL_LOCK(hltdc);
 8002bc8:	f890 30a0 	ldrb.w	r3, [r0, #160]	; 0xa0
 8002bcc:	2b01      	cmp	r3, #1
{
 8002bce:	4604      	mov	r4, r0
 8002bd0:	f04f 0302 	mov.w	r3, #2
  __HAL_LOCK(hltdc);
 8002bd4:	d015      	beq.n	8002c02 <HAL_LTDC_SetAddress+0x3c>
  hltdc->State = HAL_LTDC_STATE_BUSY;
 8002bd6:	f880 30a1 	strb.w	r3, [r0, #161]	; 0xa1
  pLayerCfg->FBStartAdress = Address;
 8002bda:	2334      	movs	r3, #52	; 0x34
 8002bdc:	4353      	muls	r3, r2
 8002bde:	18c5      	adds	r5, r0, r3
  __HAL_LOCK(hltdc);
 8002be0:	2601      	movs	r6, #1
 8002be2:	f880 60a0 	strb.w	r6, [r0, #160]	; 0xa0
  pLayerCfg->FBStartAdress = Address;
 8002be6:	65e9      	str	r1, [r5, #92]	; 0x5c
  pLayerCfg = &hltdc->LayerCfg[LayerIdx];
 8002be8:	f103 0138 	add.w	r1, r3, #56	; 0x38
  LTDC_SetConfig(hltdc, pLayerCfg, LayerIdx);
 8002bec:	4401      	add	r1, r0
 8002bee:	f7ff fd54 	bl	800269a <LTDC_SetConfig>
  hltdc->Instance->SRCR = LTDC_SRCR_IMR;
 8002bf2:	6823      	ldr	r3, [r4, #0]
  __HAL_UNLOCK(hltdc);
 8002bf4:	2000      	movs	r0, #0
  hltdc->Instance->SRCR = LTDC_SRCR_IMR;
 8002bf6:	625e      	str	r6, [r3, #36]	; 0x24
  hltdc->State = HAL_LTDC_STATE_READY;
 8002bf8:	f884 60a1 	strb.w	r6, [r4, #161]	; 0xa1
  __HAL_UNLOCK(hltdc);
 8002bfc:	f884 00a0 	strb.w	r0, [r4, #160]	; 0xa0
}
 8002c00:	bd70      	pop	{r4, r5, r6, pc}
  __HAL_LOCK(hltdc);
 8002c02:	4618      	mov	r0, r3
 8002c04:	e7fc      	b.n	8002c00 <HAL_LTDC_SetAddress+0x3a>
	...

08002c08 <HAL_LTDC_ProgramLineEvent>:
  __HAL_LOCK(hltdc);
 8002c08:	f890 30a0 	ldrb.w	r3, [r0, #160]	; 0xa0
 8002c0c:	2b01      	cmp	r3, #1
 8002c0e:	f04f 0302 	mov.w	r3, #2
 8002c12:	d012      	beq.n	8002c3a <HAL_LTDC_ProgramLineEvent+0x32>
  hltdc->State = HAL_LTDC_STATE_BUSY;
 8002c14:	f880 30a1 	strb.w	r3, [r0, #161]	; 0xa1
  __HAL_LTDC_DISABLE_IT(hltdc, LTDC_IT_LI);
 8002c18:	6803      	ldr	r3, [r0, #0]
 8002c1a:	6b5a      	ldr	r2, [r3, #52]	; 0x34
 8002c1c:	f022 0201 	bic.w	r2, r2, #1
 8002c20:	635a      	str	r2, [r3, #52]	; 0x34
  LTDC->LIPCR = (uint32_t)Line;
 8002c22:	4a07      	ldr	r2, [pc, #28]	; (8002c40 <HAL_LTDC_ProgramLineEvent+0x38>)
 8002c24:	6411      	str	r1, [r2, #64]	; 0x40
  __HAL_LTDC_ENABLE_IT(hltdc, LTDC_IT_LI);
 8002c26:	6b5a      	ldr	r2, [r3, #52]	; 0x34
 8002c28:	f042 0201 	orr.w	r2, r2, #1
 8002c2c:	635a      	str	r2, [r3, #52]	; 0x34
  hltdc->State = HAL_LTDC_STATE_READY;
 8002c2e:	2301      	movs	r3, #1
 8002c30:	f880 30a1 	strb.w	r3, [r0, #161]	; 0xa1
  __HAL_UNLOCK(hltdc);
 8002c34:	2300      	movs	r3, #0
 8002c36:	f880 30a0 	strb.w	r3, [r0, #160]	; 0xa0
  __HAL_LOCK(hltdc);
 8002c3a:	4618      	mov	r0, r3
}
 8002c3c:	4770      	bx	lr
 8002c3e:	bf00      	nop
 8002c40:	40016800 	.word	0x40016800

08002c44 <HAL_PWREx_EnableOverDrive>:
  *         During the Over-drive switch activation, no peripheral clocks should be enabled.   
  *         The peripheral clocks must be enabled once the Over-drive mode is activated.   
  * @retval HAL status
  */
HAL_StatusTypeDef HAL_PWREx_EnableOverDrive(void)
{
 8002c44:	b537      	push	{r0, r1, r2, r4, r5, lr}
  uint32_t tickstart = 0U;

  __HAL_RCC_PWR_CLK_ENABLE();
 8002c46:	2300      	movs	r3, #0
 8002c48:	9301      	str	r3, [sp, #4]
 8002c4a:	4b18      	ldr	r3, [pc, #96]	; (8002cac <HAL_PWREx_EnableOverDrive+0x68>)
  __HAL_PWR_OVERDRIVE_ENABLE();

  /* Get tick */
  tickstart = HAL_GetTick();

  while(!__HAL_PWR_GET_FLAG(PWR_FLAG_ODRDY))
 8002c4c:	4d18      	ldr	r5, [pc, #96]	; (8002cb0 <HAL_PWREx_EnableOverDrive+0x6c>)
  __HAL_RCC_PWR_CLK_ENABLE();
 8002c4e:	6c1a      	ldr	r2, [r3, #64]	; 0x40
 8002c50:	f042 5280 	orr.w	r2, r2, #268435456	; 0x10000000
 8002c54:	641a      	str	r2, [r3, #64]	; 0x40
 8002c56:	6c1b      	ldr	r3, [r3, #64]	; 0x40
 8002c58:	f003 5380 	and.w	r3, r3, #268435456	; 0x10000000
 8002c5c:	9301      	str	r3, [sp, #4]
 8002c5e:	9b01      	ldr	r3, [sp, #4]
  __HAL_PWR_OVERDRIVE_ENABLE();
 8002c60:	4b14      	ldr	r3, [pc, #80]	; (8002cb4 <HAL_PWREx_EnableOverDrive+0x70>)
 8002c62:	2201      	movs	r2, #1
 8002c64:	641a      	str	r2, [r3, #64]	; 0x40
  tickstart = HAL_GetTick();
 8002c66:	f7fe fe6b 	bl	8001940 <HAL_GetTick>
 8002c6a:	4604      	mov	r4, r0
  while(!__HAL_PWR_GET_FLAG(PWR_FLAG_ODRDY))
 8002c6c:	686b      	ldr	r3, [r5, #4]
 8002c6e:	03da      	lsls	r2, r3, #15
 8002c70:	d50b      	bpl.n	8002c8a <HAL_PWREx_EnableOverDrive+0x46>
      return HAL_TIMEOUT;
    }
  }
  
  /* Enable the Over-drive switch */
  __HAL_PWR_OVERDRIVESWITCHING_ENABLE();
 8002c72:	4b10      	ldr	r3, [pc, #64]	; (8002cb4 <HAL_PWREx_EnableOverDrive+0x70>)

  /* Get tick */
  tickstart = HAL_GetTick();

  while(!__HAL_PWR_GET_FLAG(PWR_FLAG_ODSWRDY))
 8002c74:	4d0e      	ldr	r5, [pc, #56]	; (8002cb0 <HAL_PWREx_EnableOverDrive+0x6c>)
  __HAL_PWR_OVERDRIVESWITCHING_ENABLE();
 8002c76:	2201      	movs	r2, #1
 8002c78:	645a      	str	r2, [r3, #68]	; 0x44
  tickstart = HAL_GetTick();
 8002c7a:	f7fe fe61 	bl	8001940 <HAL_GetTick>
 8002c7e:	4604      	mov	r4, r0
  while(!__HAL_PWR_GET_FLAG(PWR_FLAG_ODSWRDY))
 8002c80:	686b      	ldr	r3, [r5, #4]
 8002c82:	039b      	lsls	r3, r3, #14
 8002c84:	d50a      	bpl.n	8002c9c <HAL_PWREx_EnableOverDrive+0x58>
    if((HAL_GetTick() - tickstart ) > PWR_OVERDRIVE_TIMEOUT_VALUE)
    {
      return HAL_TIMEOUT;
    }
  } 
  return HAL_OK;
 8002c86:	2000      	movs	r0, #0
 8002c88:	e006      	b.n	8002c98 <HAL_PWREx_EnableOverDrive+0x54>
    if((HAL_GetTick() - tickstart) > PWR_OVERDRIVE_TIMEOUT_VALUE)
 8002c8a:	f7fe fe59 	bl	8001940 <HAL_GetTick>
 8002c8e:	1b00      	subs	r0, r0, r4
 8002c90:	f5b0 7f7a 	cmp.w	r0, #1000	; 0x3e8
 8002c94:	d9ea      	bls.n	8002c6c <HAL_PWREx_EnableOverDrive+0x28>
      return HAL_TIMEOUT;
 8002c96:	2003      	movs	r0, #3
}
 8002c98:	b003      	add	sp, #12
 8002c9a:	bd30      	pop	{r4, r5, pc}
    if((HAL_GetTick() - tickstart ) > PWR_OVERDRIVE_TIMEOUT_VALUE)
 8002c9c:	f7fe fe50 	bl	8001940 <HAL_GetTick>
 8002ca0:	1b00      	subs	r0, r0, r4
 8002ca2:	f5b0 7f7a 	cmp.w	r0, #1000	; 0x3e8
 8002ca6:	d9eb      	bls.n	8002c80 <HAL_PWREx_EnableOverDrive+0x3c>
 8002ca8:	e7f5      	b.n	8002c96 <HAL_PWREx_EnableOverDrive+0x52>
 8002caa:	bf00      	nop
 8002cac:	40023800 	.word	0x40023800
 8002cb0:	40007000 	.word	0x40007000
 8002cb4:	420e0000 	.word	0x420e0000

08002cb8 <HAL_RCC_OscConfig>:
  *         supported by this API. User should request a transition to HSE Off
  *         first and then HSE On or HSE Bypass.
  * @retval HAL status
  */
__weak HAL_StatusTypeDef HAL_RCC_OscConfig(RCC_OscInitTypeDef  *RCC_OscInitStruct)
{
 8002cb8:	e92d 41f3 	stmdb	sp!, {r0, r1, r4, r5, r6, r7, r8, lr}
  uint32_t tickstart, pll_config;

  /* Check Null pointer */
  if(RCC_OscInitStruct == NULL)
 8002cbc:	4604      	mov	r4, r0
 8002cbe:	b340      	cbz	r0, 8002d12 <HAL_RCC_OscConfig+0x5a>
  }

  /* Check the parameters */
  assert_param(IS_RCC_OSCILLATORTYPE(RCC_OscInitStruct->OscillatorType));
  /*------------------------------- HSE Configuration ------------------------*/
  if(((RCC_OscInitStruct->OscillatorType) & RCC_OSCILLATORTYPE_HSE) == RCC_OSCILLATORTYPE_HSE)
 8002cc0:	6803      	ldr	r3, [r0, #0]
 8002cc2:	07dd      	lsls	r5, r3, #31
 8002cc4:	d410      	bmi.n	8002ce8 <HAL_RCC_OscConfig+0x30>
        }
      }
    }
  }
  /*----------------------------- HSI Configuration --------------------------*/
  if(((RCC_OscInitStruct->OscillatorType) & RCC_OSCILLATORTYPE_HSI) == RCC_OSCILLATORTYPE_HSI)
 8002cc6:	6823      	ldr	r3, [r4, #0]
 8002cc8:	0798      	lsls	r0, r3, #30
 8002cca:	d45e      	bmi.n	8002d8a <HAL_RCC_OscConfig+0xd2>
        }
      }
    }
  }
  /*------------------------------ LSI Configuration -------------------------*/
  if(((RCC_OscInitStruct->OscillatorType) & RCC_OSCILLATORTYPE_LSI) == RCC_OSCILLATORTYPE_LSI)
 8002ccc:	6823      	ldr	r3, [r4, #0]
 8002cce:	071a      	lsls	r2, r3, #28
 8002cd0:	f100 80a0 	bmi.w	8002e14 <HAL_RCC_OscConfig+0x15c>
        }
      }
    }
  }
  /*------------------------------ LSE Configuration -------------------------*/
  if(((RCC_OscInitStruct->OscillatorType) & RCC_OSCILLATORTYPE_LSE) == RCC_OSCILLATORTYPE_LSE)
 8002cd4:	6823      	ldr	r3, [r4, #0]
 8002cd6:	075b      	lsls	r3, r3, #29
 8002cd8:	f100 80c0 	bmi.w	8002e5c <HAL_RCC_OscConfig+0x1a4>
    }
  }
  /*-------------------------------- PLL Configuration -----------------------*/
  /* Check the parameters */
  assert_param(IS_RCC_PLL(RCC_OscInitStruct->PLL.PLLState));
  if ((RCC_OscInitStruct->PLL.PLLState) != RCC_PLL_NONE)
 8002cdc:	69a0      	ldr	r0, [r4, #24]
 8002cde:	2800      	cmp	r0, #0
 8002ce0:	f040 8128 	bne.w	8002f34 <HAL_RCC_OscConfig+0x27c>
          return HAL_ERROR;
        }
      }
    }
  }
  return HAL_OK;
 8002ce4:	2000      	movs	r0, #0
 8002ce6:	e02b      	b.n	8002d40 <HAL_RCC_OscConfig+0x88>
    if((__HAL_RCC_GET_SYSCLK_SOURCE() == RCC_CFGR_SWS_HSE) ||\
 8002ce8:	4b8f      	ldr	r3, [pc, #572]	; (8002f28 <HAL_RCC_OscConfig+0x270>)
 8002cea:	689a      	ldr	r2, [r3, #8]
 8002cec:	f002 020c 	and.w	r2, r2, #12
 8002cf0:	2a04      	cmp	r2, #4
 8002cf2:	d007      	beq.n	8002d04 <HAL_RCC_OscConfig+0x4c>
      ((__HAL_RCC_GET_SYSCLK_SOURCE() == RCC_CFGR_SWS_PLL) && ((RCC->PLLCFGR & RCC_PLLCFGR_PLLSRC) == RCC_PLLCFGR_PLLSRC_HSE)))
 8002cf4:	689a      	ldr	r2, [r3, #8]
 8002cf6:	f002 020c 	and.w	r2, r2, #12
    if((__HAL_RCC_GET_SYSCLK_SOURCE() == RCC_CFGR_SWS_HSE) ||\
 8002cfa:	2a08      	cmp	r2, #8
 8002cfc:	d10b      	bne.n	8002d16 <HAL_RCC_OscConfig+0x5e>
      ((__HAL_RCC_GET_SYSCLK_SOURCE() == RCC_CFGR_SWS_PLL) && ((RCC->PLLCFGR & RCC_PLLCFGR_PLLSRC) == RCC_PLLCFGR_PLLSRC_HSE)))
 8002cfe:	685a      	ldr	r2, [r3, #4]
 8002d00:	0251      	lsls	r1, r2, #9
 8002d02:	d508      	bpl.n	8002d16 <HAL_RCC_OscConfig+0x5e>
      if((__HAL_RCC_GET_FLAG(RCC_FLAG_HSERDY) != RESET) && (RCC_OscInitStruct->HSEState == RCC_HSE_OFF))
 8002d04:	4b88      	ldr	r3, [pc, #544]	; (8002f28 <HAL_RCC_OscConfig+0x270>)
 8002d06:	681b      	ldr	r3, [r3, #0]
 8002d08:	039a      	lsls	r2, r3, #14
 8002d0a:	d5dc      	bpl.n	8002cc6 <HAL_RCC_OscConfig+0xe>
 8002d0c:	6863      	ldr	r3, [r4, #4]
 8002d0e:	2b00      	cmp	r3, #0
 8002d10:	d1d9      	bne.n	8002cc6 <HAL_RCC_OscConfig+0xe>
          return HAL_ERROR;
 8002d12:	2001      	movs	r0, #1
 8002d14:	e014      	b.n	8002d40 <HAL_RCC_OscConfig+0x88>
      __HAL_RCC_HSE_CONFIG(RCC_OscInitStruct->HSEState);
 8002d16:	6862      	ldr	r2, [r4, #4]
 8002d18:	f5b2 3f80 	cmp.w	r2, #65536	; 0x10000
 8002d1c:	d113      	bne.n	8002d46 <HAL_RCC_OscConfig+0x8e>
 8002d1e:	681a      	ldr	r2, [r3, #0]
 8002d20:	f442 3280 	orr.w	r2, r2, #65536	; 0x10000
 8002d24:	601a      	str	r2, [r3, #0]
        tickstart = HAL_GetTick();
 8002d26:	f7fe fe0b 	bl	8001940 <HAL_GetTick>
        while(__HAL_RCC_GET_FLAG(RCC_FLAG_HSERDY) == RESET)
 8002d2a:	4e7f      	ldr	r6, [pc, #508]	; (8002f28 <HAL_RCC_OscConfig+0x270>)
        tickstart = HAL_GetTick();
 8002d2c:	4605      	mov	r5, r0
        while(__HAL_RCC_GET_FLAG(RCC_FLAG_HSERDY) == RESET)
 8002d2e:	6833      	ldr	r3, [r6, #0]
 8002d30:	039b      	lsls	r3, r3, #14
 8002d32:	d4c8      	bmi.n	8002cc6 <HAL_RCC_OscConfig+0xe>
          if((HAL_GetTick() - tickstart ) > HSE_TIMEOUT_VALUE)
 8002d34:	f7fe fe04 	bl	8001940 <HAL_GetTick>
 8002d38:	1b40      	subs	r0, r0, r5
 8002d3a:	2864      	cmp	r0, #100	; 0x64
 8002d3c:	d9f7      	bls.n	8002d2e <HAL_RCC_OscConfig+0x76>
            return HAL_TIMEOUT;
 8002d3e:	2003      	movs	r0, #3
}
 8002d40:	b002      	add	sp, #8
 8002d42:	e8bd 81f0 	ldmia.w	sp!, {r4, r5, r6, r7, r8, pc}
      __HAL_RCC_HSE_CONFIG(RCC_OscInitStruct->HSEState);
 8002d46:	4d78      	ldr	r5, [pc, #480]	; (8002f28 <HAL_RCC_OscConfig+0x270>)
 8002d48:	f5b2 2fa0 	cmp.w	r2, #327680	; 0x50000
 8002d4c:	682b      	ldr	r3, [r5, #0]
 8002d4e:	d107      	bne.n	8002d60 <HAL_RCC_OscConfig+0xa8>
 8002d50:	f443 2380 	orr.w	r3, r3, #262144	; 0x40000
 8002d54:	602b      	str	r3, [r5, #0]
 8002d56:	682b      	ldr	r3, [r5, #0]
 8002d58:	f443 3380 	orr.w	r3, r3, #65536	; 0x10000
 8002d5c:	602b      	str	r3, [r5, #0]
      if((RCC_OscInitStruct->HSEState) != RCC_HSE_OFF)
 8002d5e:	e7e2      	b.n	8002d26 <HAL_RCC_OscConfig+0x6e>
      __HAL_RCC_HSE_CONFIG(RCC_OscInitStruct->HSEState);
 8002d60:	f423 3380 	bic.w	r3, r3, #65536	; 0x10000
 8002d64:	602b      	str	r3, [r5, #0]
 8002d66:	682b      	ldr	r3, [r5, #0]
 8002d68:	f423 2380 	bic.w	r3, r3, #262144	; 0x40000
 8002d6c:	602b      	str	r3, [r5, #0]
      if((RCC_OscInitStruct->HSEState) != RCC_HSE_OFF)
 8002d6e:	2a00      	cmp	r2, #0
 8002d70:	d1d9      	bne.n	8002d26 <HAL_RCC_OscConfig+0x6e>
        tickstart = HAL_GetTick();
 8002d72:	f7fe fde5 	bl	8001940 <HAL_GetTick>
 8002d76:	4606      	mov	r6, r0
        while(__HAL_RCC_GET_FLAG(RCC_FLAG_HSERDY) != RESET)
 8002d78:	682b      	ldr	r3, [r5, #0]
 8002d7a:	039f      	lsls	r7, r3, #14
 8002d7c:	d5a3      	bpl.n	8002cc6 <HAL_RCC_OscConfig+0xe>
          if((HAL_GetTick() - tickstart ) > HSE_TIMEOUT_VALUE)
 8002d7e:	f7fe fddf 	bl	8001940 <HAL_GetTick>
 8002d82:	1b80      	subs	r0, r0, r6
 8002d84:	2864      	cmp	r0, #100	; 0x64
 8002d86:	d9f7      	bls.n	8002d78 <HAL_RCC_OscConfig+0xc0>
 8002d88:	e7d9      	b.n	8002d3e <HAL_RCC_OscConfig+0x86>
    if((__HAL_RCC_GET_SYSCLK_SOURCE() == RCC_CFGR_SWS_HSI) ||\
 8002d8a:	4b67      	ldr	r3, [pc, #412]	; (8002f28 <HAL_RCC_OscConfig+0x270>)
 8002d8c:	689a      	ldr	r2, [r3, #8]
 8002d8e:	f012 0f0c 	tst.w	r2, #12
 8002d92:	d007      	beq.n	8002da4 <HAL_RCC_OscConfig+0xec>
      ((__HAL_RCC_GET_SYSCLK_SOURCE() == RCC_CFGR_SWS_PLL) && ((RCC->PLLCFGR & RCC_PLLCFGR_PLLSRC) == RCC_PLLCFGR_PLLSRC_HSI)))
 8002d94:	689a      	ldr	r2, [r3, #8]
 8002d96:	f002 020c 	and.w	r2, r2, #12
    if((__HAL_RCC_GET_SYSCLK_SOURCE() == RCC_CFGR_SWS_HSI) ||\
 8002d9a:	2a08      	cmp	r2, #8
 8002d9c:	d111      	bne.n	8002dc2 <HAL_RCC_OscConfig+0x10a>
      ((__HAL_RCC_GET_SYSCLK_SOURCE() == RCC_CFGR_SWS_PLL) && ((RCC->PLLCFGR & RCC_PLLCFGR_PLLSRC) == RCC_PLLCFGR_PLLSRC_HSI)))
 8002d9e:	685b      	ldr	r3, [r3, #4]
 8002da0:	025e      	lsls	r6, r3, #9
 8002da2:	d40e      	bmi.n	8002dc2 <HAL_RCC_OscConfig+0x10a>
      if((__HAL_RCC_GET_FLAG(RCC_FLAG_HSIRDY) != RESET) && (RCC_OscInitStruct->HSIState != RCC_HSI_ON))
 8002da4:	4a60      	ldr	r2, [pc, #384]	; (8002f28 <HAL_RCC_OscConfig+0x270>)
 8002da6:	6813      	ldr	r3, [r2, #0]
 8002da8:	079d      	lsls	r5, r3, #30
 8002daa:	d502      	bpl.n	8002db2 <HAL_RCC_OscConfig+0xfa>
 8002dac:	68e3      	ldr	r3, [r4, #12]
 8002dae:	2b01      	cmp	r3, #1
 8002db0:	d1af      	bne.n	8002d12 <HAL_RCC_OscConfig+0x5a>
        __HAL_RCC_HSI_CALIBRATIONVALUE_ADJUST(RCC_OscInitStruct->HSICalibrationValue);
 8002db2:	6813      	ldr	r3, [r2, #0]
 8002db4:	6921      	ldr	r1, [r4, #16]
 8002db6:	f023 03f8 	bic.w	r3, r3, #248	; 0xf8
 8002dba:	ea43 03c1 	orr.w	r3, r3, r1, lsl #3
 8002dbe:	6013      	str	r3, [r2, #0]
      if((__HAL_RCC_GET_FLAG(RCC_FLAG_HSIRDY) != RESET) && (RCC_OscInitStruct->HSIState != RCC_HSI_ON))
 8002dc0:	e784      	b.n	8002ccc <HAL_RCC_OscConfig+0x14>
      if((RCC_OscInitStruct->HSIState)!= RCC_HSI_OFF)
 8002dc2:	68e2      	ldr	r2, [r4, #12]
 8002dc4:	4b59      	ldr	r3, [pc, #356]	; (8002f2c <HAL_RCC_OscConfig+0x274>)
 8002dc6:	b1b2      	cbz	r2, 8002df6 <HAL_RCC_OscConfig+0x13e>
        __HAL_RCC_HSI_ENABLE();
 8002dc8:	2201      	movs	r2, #1
 8002dca:	601a      	str	r2, [r3, #0]
        tickstart = HAL_GetTick();
 8002dcc:	f7fe fdb8 	bl	8001940 <HAL_GetTick>
        while(__HAL_RCC_GET_FLAG(RCC_FLAG_HSIRDY) == RESET)
 8002dd0:	4d55      	ldr	r5, [pc, #340]	; (8002f28 <HAL_RCC_OscConfig+0x270>)
        tickstart = HAL_GetTick();
 8002dd2:	4606      	mov	r6, r0
        while(__HAL_RCC_GET_FLAG(RCC_FLAG_HSIRDY) == RESET)
 8002dd4:	682b      	ldr	r3, [r5, #0]
 8002dd6:	0798      	lsls	r0, r3, #30
 8002dd8:	d507      	bpl.n	8002dea <HAL_RCC_OscConfig+0x132>
        __HAL_RCC_HSI_CALIBRATIONVALUE_ADJUST(RCC_OscInitStruct->HSICalibrationValue);
 8002dda:	682b      	ldr	r3, [r5, #0]
 8002ddc:	6922      	ldr	r2, [r4, #16]
 8002dde:	f023 03f8 	bic.w	r3, r3, #248	; 0xf8
 8002de2:	ea43 03c2 	orr.w	r3, r3, r2, lsl #3
 8002de6:	602b      	str	r3, [r5, #0]
 8002de8:	e770      	b.n	8002ccc <HAL_RCC_OscConfig+0x14>
          if((HAL_GetTick() - tickstart ) > HSI_TIMEOUT_VALUE)
 8002dea:	f7fe fda9 	bl	8001940 <HAL_GetTick>
 8002dee:	1b80      	subs	r0, r0, r6
 8002df0:	2802      	cmp	r0, #2
 8002df2:	d9ef      	bls.n	8002dd4 <HAL_RCC_OscConfig+0x11c>
 8002df4:	e7a3      	b.n	8002d3e <HAL_RCC_OscConfig+0x86>
        __HAL_RCC_HSI_DISABLE();
 8002df6:	601a      	str	r2, [r3, #0]
        tickstart = HAL_GetTick();
 8002df8:	f7fe fda2 	bl	8001940 <HAL_GetTick>
        while(__HAL_RCC_GET_FLAG(RCC_FLAG_HSIRDY) != RESET)
 8002dfc:	4e4a      	ldr	r6, [pc, #296]	; (8002f28 <HAL_RCC_OscConfig+0x270>)
        tickstart = HAL_GetTick();
 8002dfe:	4605      	mov	r5, r0
        while(__HAL_RCC_GET_FLAG(RCC_FLAG_HSIRDY) != RESET)
 8002e00:	6833      	ldr	r3, [r6, #0]
 8002e02:	0799      	lsls	r1, r3, #30
 8002e04:	f57f af62 	bpl.w	8002ccc <HAL_RCC_OscConfig+0x14>
          if((HAL_GetTick() - tickstart ) > HSI_TIMEOUT_VALUE)
 8002e08:	f7fe fd9a 	bl	8001940 <HAL_GetTick>
 8002e0c:	1b40      	subs	r0, r0, r5
 8002e0e:	2802      	cmp	r0, #2
 8002e10:	d9f6      	bls.n	8002e00 <HAL_RCC_OscConfig+0x148>
 8002e12:	e794      	b.n	8002d3e <HAL_RCC_OscConfig+0x86>
    if((RCC_OscInitStruct->LSIState)!= RCC_LSI_OFF)
 8002e14:	6962      	ldr	r2, [r4, #20]
 8002e16:	4b45      	ldr	r3, [pc, #276]	; (8002f2c <HAL_RCC_OscConfig+0x274>)
 8002e18:	b182      	cbz	r2, 8002e3c <HAL_RCC_OscConfig+0x184>
      __HAL_RCC_LSI_ENABLE();
 8002e1a:	2201      	movs	r2, #1
 8002e1c:	f8c3 2e80 	str.w	r2, [r3, #3712]	; 0xe80
      tickstart = HAL_GetTick();
 8002e20:	f7fe fd8e 	bl	8001940 <HAL_GetTick>
      while(__HAL_RCC_GET_FLAG(RCC_FLAG_LSIRDY) == RESET)
 8002e24:	4e40      	ldr	r6, [pc, #256]	; (8002f28 <HAL_RCC_OscConfig+0x270>)
      tickstart = HAL_GetTick();
 8002e26:	4605      	mov	r5, r0
      while(__HAL_RCC_GET_FLAG(RCC_FLAG_LSIRDY) == RESET)
 8002e28:	6f73      	ldr	r3, [r6, #116]	; 0x74
 8002e2a:	079f      	lsls	r7, r3, #30
 8002e2c:	f53f af52 	bmi.w	8002cd4 <HAL_RCC_OscConfig+0x1c>
        if((HAL_GetTick() - tickstart ) > LSI_TIMEOUT_VALUE)
 8002e30:	f7fe fd86 	bl	8001940 <HAL_GetTick>
 8002e34:	1b40      	subs	r0, r0, r5
 8002e36:	2802      	cmp	r0, #2
 8002e38:	d9f6      	bls.n	8002e28 <HAL_RCC_OscConfig+0x170>
 8002e3a:	e780      	b.n	8002d3e <HAL_RCC_OscConfig+0x86>
      __HAL_RCC_LSI_DISABLE();
 8002e3c:	f8c3 2e80 	str.w	r2, [r3, #3712]	; 0xe80
      tickstart = HAL_GetTick();
 8002e40:	f7fe fd7e 	bl	8001940 <HAL_GetTick>
      while(__HAL_RCC_GET_FLAG(RCC_FLAG_LSIRDY) != RESET)
 8002e44:	4e38      	ldr	r6, [pc, #224]	; (8002f28 <HAL_RCC_OscConfig+0x270>)
      tickstart = HAL_GetTick();
 8002e46:	4605      	mov	r5, r0
      while(__HAL_RCC_GET_FLAG(RCC_FLAG_LSIRDY) != RESET)
 8002e48:	6f73      	ldr	r3, [r6, #116]	; 0x74
 8002e4a:	0798      	lsls	r0, r3, #30
 8002e4c:	f57f af42 	bpl.w	8002cd4 <HAL_RCC_OscConfig+0x1c>
        if((HAL_GetTick() - tickstart ) > LSI_TIMEOUT_VALUE)
 8002e50:	f7fe fd76 	bl	8001940 <HAL_GetTick>
 8002e54:	1b40      	subs	r0, r0, r5
 8002e56:	2802      	cmp	r0, #2
 8002e58:	d9f6      	bls.n	8002e48 <HAL_RCC_OscConfig+0x190>
 8002e5a:	e770      	b.n	8002d3e <HAL_RCC_OscConfig+0x86>
    if(__HAL_RCC_PWR_IS_CLK_DISABLED())
 8002e5c:	4b32      	ldr	r3, [pc, #200]	; (8002f28 <HAL_RCC_OscConfig+0x270>)
 8002e5e:	6c1a      	ldr	r2, [r3, #64]	; 0x40
 8002e60:	f012 5280 	ands.w	r2, r2, #268435456	; 0x10000000
 8002e64:	d128      	bne.n	8002eb8 <HAL_RCC_OscConfig+0x200>
      __HAL_RCC_PWR_CLK_ENABLE();
 8002e66:	9201      	str	r2, [sp, #4]
 8002e68:	6c1a      	ldr	r2, [r3, #64]	; 0x40
 8002e6a:	f042 5280 	orr.w	r2, r2, #268435456	; 0x10000000
 8002e6e:	641a      	str	r2, [r3, #64]	; 0x40
 8002e70:	6c1b      	ldr	r3, [r3, #64]	; 0x40
 8002e72:	f003 5380 	and.w	r3, r3, #268435456	; 0x10000000
 8002e76:	9301      	str	r3, [sp, #4]
 8002e78:	9b01      	ldr	r3, [sp, #4]
      pwrclkchanged = SET;
 8002e7a:	2701      	movs	r7, #1
    if(HAL_IS_BIT_CLR(PWR->CR, PWR_CR_DBP))
 8002e7c:	4d2c      	ldr	r5, [pc, #176]	; (8002f30 <HAL_RCC_OscConfig+0x278>)
 8002e7e:	682b      	ldr	r3, [r5, #0]
 8002e80:	05d9      	lsls	r1, r3, #23
 8002e82:	d51b      	bpl.n	8002ebc <HAL_RCC_OscConfig+0x204>
    __HAL_RCC_LSE_CONFIG(RCC_OscInitStruct->LSEState);
 8002e84:	68a3      	ldr	r3, [r4, #8]
 8002e86:	4d28      	ldr	r5, [pc, #160]	; (8002f28 <HAL_RCC_OscConfig+0x270>)
 8002e88:	2b01      	cmp	r3, #1
 8002e8a:	d127      	bne.n	8002edc <HAL_RCC_OscConfig+0x224>
 8002e8c:	6f2b      	ldr	r3, [r5, #112]	; 0x70
 8002e8e:	f043 0301 	orr.w	r3, r3, #1
 8002e92:	672b      	str	r3, [r5, #112]	; 0x70
      tickstart = HAL_GetTick();
 8002e94:	f7fe fd54 	bl	8001940 <HAL_GetTick>
      while(__HAL_RCC_GET_FLAG(RCC_FLAG_LSERDY) == RESET)
 8002e98:	4e23      	ldr	r6, [pc, #140]	; (8002f28 <HAL_RCC_OscConfig+0x270>)
      tickstart = HAL_GetTick();
 8002e9a:	4605      	mov	r5, r0
        if((HAL_GetTick() - tickstart ) > RCC_LSE_TIMEOUT_VALUE)
 8002e9c:	f241 3888 	movw	r8, #5000	; 0x1388
      while(__HAL_RCC_GET_FLAG(RCC_FLAG_LSERDY) == RESET)
 8002ea0:	6f33      	ldr	r3, [r6, #112]	; 0x70
 8002ea2:	079b      	lsls	r3, r3, #30
 8002ea4:	d539      	bpl.n	8002f1a <HAL_RCC_OscConfig+0x262>
    if(pwrclkchanged == SET)
 8002ea6:	2f00      	cmp	r7, #0
 8002ea8:	f43f af18 	beq.w	8002cdc <HAL_RCC_OscConfig+0x24>
      __HAL_RCC_PWR_CLK_DISABLE();
 8002eac:	4a1e      	ldr	r2, [pc, #120]	; (8002f28 <HAL_RCC_OscConfig+0x270>)
 8002eae:	6c13      	ldr	r3, [r2, #64]	; 0x40
 8002eb0:	f023 5380 	bic.w	r3, r3, #268435456	; 0x10000000
 8002eb4:	6413      	str	r3, [r2, #64]	; 0x40
 8002eb6:	e711      	b.n	8002cdc <HAL_RCC_OscConfig+0x24>
    FlagStatus       pwrclkchanged = RESET;
 8002eb8:	2700      	movs	r7, #0
 8002eba:	e7df      	b.n	8002e7c <HAL_RCC_OscConfig+0x1c4>
      SET_BIT(PWR->CR, PWR_CR_DBP);
 8002ebc:	682b      	ldr	r3, [r5, #0]
 8002ebe:	f443 7380 	orr.w	r3, r3, #256	; 0x100
 8002ec2:	602b      	str	r3, [r5, #0]
      tickstart = HAL_GetTick();
 8002ec4:	f7fe fd3c 	bl	8001940 <HAL_GetTick>
 8002ec8:	4606      	mov	r6, r0
      while(HAL_IS_BIT_CLR(PWR->CR, PWR_CR_DBP))
 8002eca:	682b      	ldr	r3, [r5, #0]
 8002ecc:	05da      	lsls	r2, r3, #23
 8002ece:	d4d9      	bmi.n	8002e84 <HAL_RCC_OscConfig+0x1cc>
        if((HAL_GetTick() - tickstart) > RCC_DBP_TIMEOUT_VALUE)
 8002ed0:	f7fe fd36 	bl	8001940 <HAL_GetTick>
 8002ed4:	1b80      	subs	r0, r0, r6
 8002ed6:	2802      	cmp	r0, #2
 8002ed8:	d9f7      	bls.n	8002eca <HAL_RCC_OscConfig+0x212>
 8002eda:	e730      	b.n	8002d3e <HAL_RCC_OscConfig+0x86>
    __HAL_RCC_LSE_CONFIG(RCC_OscInitStruct->LSEState);
 8002edc:	2b05      	cmp	r3, #5
 8002ede:	d104      	bne.n	8002eea <HAL_RCC_OscConfig+0x232>
 8002ee0:	6f2b      	ldr	r3, [r5, #112]	; 0x70
 8002ee2:	f043 0304 	orr.w	r3, r3, #4
 8002ee6:	672b      	str	r3, [r5, #112]	; 0x70
 8002ee8:	e7d0      	b.n	8002e8c <HAL_RCC_OscConfig+0x1d4>
 8002eea:	6f2a      	ldr	r2, [r5, #112]	; 0x70
 8002eec:	f022 0201 	bic.w	r2, r2, #1
 8002ef0:	672a      	str	r2, [r5, #112]	; 0x70
 8002ef2:	6f2a      	ldr	r2, [r5, #112]	; 0x70
 8002ef4:	f022 0204 	bic.w	r2, r2, #4
 8002ef8:	672a      	str	r2, [r5, #112]	; 0x70
    if((RCC_OscInitStruct->LSEState) != RCC_LSE_OFF)
 8002efa:	2b00      	cmp	r3, #0
 8002efc:	d1ca      	bne.n	8002e94 <HAL_RCC_OscConfig+0x1dc>
      tickstart = HAL_GetTick();
 8002efe:	f7fe fd1f 	bl	8001940 <HAL_GetTick>
        if((HAL_GetTick() - tickstart ) > RCC_LSE_TIMEOUT_VALUE)
 8002f02:	f241 3888 	movw	r8, #5000	; 0x1388
      tickstart = HAL_GetTick();
 8002f06:	4606      	mov	r6, r0
      while(__HAL_RCC_GET_FLAG(RCC_FLAG_LSERDY) != RESET)
 8002f08:	6f2b      	ldr	r3, [r5, #112]	; 0x70
 8002f0a:	0798      	lsls	r0, r3, #30
 8002f0c:	d5cb      	bpl.n	8002ea6 <HAL_RCC_OscConfig+0x1ee>
        if((HAL_GetTick() - tickstart ) > RCC_LSE_TIMEOUT_VALUE)
 8002f0e:	f7fe fd17 	bl	8001940 <HAL_GetTick>
 8002f12:	1b80      	subs	r0, r0, r6
 8002f14:	4540      	cmp	r0, r8
 8002f16:	d9f7      	bls.n	8002f08 <HAL_RCC_OscConfig+0x250>
 8002f18:	e711      	b.n	8002d3e <HAL_RCC_OscConfig+0x86>
        if((HAL_GetTick() - tickstart ) > RCC_LSE_TIMEOUT_VALUE)
 8002f1a:	f7fe fd11 	bl	8001940 <HAL_GetTick>
 8002f1e:	1b40      	subs	r0, r0, r5
 8002f20:	4540      	cmp	r0, r8
 8002f22:	d9bd      	bls.n	8002ea0 <HAL_RCC_OscConfig+0x1e8>
 8002f24:	e70b      	b.n	8002d3e <HAL_RCC_OscConfig+0x86>
 8002f26:	bf00      	nop
 8002f28:	40023800 	.word	0x40023800
 8002f2c:	42470000 	.word	0x42470000
 8002f30:	40007000 	.word	0x40007000
    if(__HAL_RCC_GET_SYSCLK_SOURCE() != RCC_CFGR_SWS_PLL)
 8002f34:	4d36      	ldr	r5, [pc, #216]	; (8003010 <HAL_RCC_OscConfig+0x358>)
 8002f36:	68ab      	ldr	r3, [r5, #8]
 8002f38:	f003 030c 	and.w	r3, r3, #12
 8002f3c:	2b08      	cmp	r3, #8
 8002f3e:	d03d      	beq.n	8002fbc <HAL_RCC_OscConfig+0x304>
      if((RCC_OscInitStruct->PLL.PLLState) == RCC_PLL_ON)
 8002f40:	4b34      	ldr	r3, [pc, #208]	; (8003014 <HAL_RCC_OscConfig+0x35c>)
 8002f42:	2200      	movs	r2, #0
 8002f44:	2802      	cmp	r0, #2
        __HAL_RCC_PLL_DISABLE();
 8002f46:	661a      	str	r2, [r3, #96]	; 0x60
      if((RCC_OscInitStruct->PLL.PLLState) == RCC_PLL_ON)
 8002f48:	d12b      	bne.n	8002fa2 <HAL_RCC_OscConfig+0x2ea>
        tickstart = HAL_GetTick();
 8002f4a:	f7fe fcf9 	bl	8001940 <HAL_GetTick>
 8002f4e:	4606      	mov	r6, r0
        while(__HAL_RCC_GET_FLAG(RCC_FLAG_PLLRDY) != RESET)
 8002f50:	682b      	ldr	r3, [r5, #0]
 8002f52:	0199      	lsls	r1, r3, #6
 8002f54:	d41f      	bmi.n	8002f96 <HAL_RCC_OscConfig+0x2de>
        WRITE_REG(RCC->PLLCFGR, (RCC_OscInitStruct->PLL.PLLSource                                            | \
 8002f56:	e9d4 3207 	ldrd	r3, r2, [r4, #28]
 8002f5a:	4313      	orrs	r3, r2
 8002f5c:	6a62      	ldr	r2, [r4, #36]	; 0x24
 8002f5e:	ea43 1382 	orr.w	r3, r3, r2, lsl #6
 8002f62:	6ae2      	ldr	r2, [r4, #44]	; 0x2c
 8002f64:	ea43 6302 	orr.w	r3, r3, r2, lsl #24
 8002f68:	6aa2      	ldr	r2, [r4, #40]	; 0x28
 8002f6a:	0852      	lsrs	r2, r2, #1
 8002f6c:	3a01      	subs	r2, #1
 8002f6e:	ea43 4302 	orr.w	r3, r3, r2, lsl #16
 8002f72:	606b      	str	r3, [r5, #4]
        __HAL_RCC_PLL_ENABLE();
 8002f74:	4b27      	ldr	r3, [pc, #156]	; (8003014 <HAL_RCC_OscConfig+0x35c>)
        while(__HAL_RCC_GET_FLAG(RCC_FLAG_PLLRDY) == RESET)
 8002f76:	4d26      	ldr	r5, [pc, #152]	; (8003010 <HAL_RCC_OscConfig+0x358>)
        __HAL_RCC_PLL_ENABLE();
 8002f78:	2201      	movs	r2, #1
 8002f7a:	661a      	str	r2, [r3, #96]	; 0x60
        tickstart = HAL_GetTick();
 8002f7c:	f7fe fce0 	bl	8001940 <HAL_GetTick>
 8002f80:	4604      	mov	r4, r0
        while(__HAL_RCC_GET_FLAG(RCC_FLAG_PLLRDY) == RESET)
 8002f82:	682b      	ldr	r3, [r5, #0]
 8002f84:	019a      	lsls	r2, r3, #6
 8002f86:	f53f aead 	bmi.w	8002ce4 <HAL_RCC_OscConfig+0x2c>
          if((HAL_GetTick() - tickstart ) > PLL_TIMEOUT_VALUE)
 8002f8a:	f7fe fcd9 	bl	8001940 <HAL_GetTick>
 8002f8e:	1b00      	subs	r0, r0, r4
 8002f90:	2802      	cmp	r0, #2
 8002f92:	d9f6      	bls.n	8002f82 <HAL_RCC_OscConfig+0x2ca>
 8002f94:	e6d3      	b.n	8002d3e <HAL_RCC_OscConfig+0x86>
          if((HAL_GetTick() - tickstart ) > PLL_TIMEOUT_VALUE)
 8002f96:	f7fe fcd3 	bl	8001940 <HAL_GetTick>
 8002f9a:	1b80      	subs	r0, r0, r6
 8002f9c:	2802      	cmp	r0, #2
 8002f9e:	d9d7      	bls.n	8002f50 <HAL_RCC_OscConfig+0x298>
 8002fa0:	e6cd      	b.n	8002d3e <HAL_RCC_OscConfig+0x86>
        tickstart = HAL_GetTick();
 8002fa2:	f7fe fccd 	bl	8001940 <HAL_GetTick>
 8002fa6:	4604      	mov	r4, r0
        while(__HAL_RCC_GET_FLAG(RCC_FLAG_PLLRDY) != RESET)
 8002fa8:	682b      	ldr	r3, [r5, #0]
 8002faa:	019b      	lsls	r3, r3, #6
 8002fac:	f57f ae9a 	bpl.w	8002ce4 <HAL_RCC_OscConfig+0x2c>
          if((HAL_GetTick() - tickstart ) > PLL_TIMEOUT_VALUE)
 8002fb0:	f7fe fcc6 	bl	8001940 <HAL_GetTick>
 8002fb4:	1b00      	subs	r0, r0, r4
 8002fb6:	2802      	cmp	r0, #2
 8002fb8:	d9f6      	bls.n	8002fa8 <HAL_RCC_OscConfig+0x2f0>
 8002fba:	e6c0      	b.n	8002d3e <HAL_RCC_OscConfig+0x86>
      if((RCC_OscInitStruct->PLL.PLLState) == RCC_PLL_OFF)
 8002fbc:	2801      	cmp	r0, #1
 8002fbe:	f43f aebf 	beq.w	8002d40 <HAL_RCC_OscConfig+0x88>
        pll_config = RCC->PLLCFGR;
 8002fc2:	686b      	ldr	r3, [r5, #4]
        if (((RCC_OscInitStruct->PLL.PLLState) == RCC_PLL_OFF) ||
 8002fc4:	69e2      	ldr	r2, [r4, #28]
            (READ_BIT(pll_config, RCC_PLLCFGR_PLLSRC) != RCC_OscInitStruct->PLL.PLLSource) ||
 8002fc6:	f403 0180 	and.w	r1, r3, #4194304	; 0x400000
        if (((RCC_OscInitStruct->PLL.PLLState) == RCC_PLL_OFF) ||
 8002fca:	4291      	cmp	r1, r2
 8002fcc:	f47f aea1 	bne.w	8002d12 <HAL_RCC_OscConfig+0x5a>
            (READ_BIT(pll_config, RCC_PLLCFGR_PLLSRC) != RCC_OscInitStruct->PLL.PLLSource) ||
 8002fd0:	6a21      	ldr	r1, [r4, #32]
            (READ_BIT(pll_config, RCC_PLLCFGR_PLLM) != (RCC_OscInitStruct->PLL.PLLM) << RCC_PLLCFGR_PLLM_Pos) ||
 8002fd2:	f003 023f 	and.w	r2, r3, #63	; 0x3f
            (READ_BIT(pll_config, RCC_PLLCFGR_PLLSRC) != RCC_OscInitStruct->PLL.PLLSource) ||
 8002fd6:	428a      	cmp	r2, r1
 8002fd8:	f47f ae9b 	bne.w	8002d12 <HAL_RCC_OscConfig+0x5a>
            (READ_BIT(pll_config, RCC_PLLCFGR_PLLN) != (RCC_OscInitStruct->PLL.PLLN) << RCC_PLLCFGR_PLLN_Pos) ||
 8002fdc:	6a61      	ldr	r1, [r4, #36]	; 0x24
            (READ_BIT(pll_config, RCC_PLLCFGR_PLLM) != (RCC_OscInitStruct->PLL.PLLM) << RCC_PLLCFGR_PLLM_Pos) ||
 8002fde:	f647 72c0 	movw	r2, #32704	; 0x7fc0
 8002fe2:	401a      	ands	r2, r3
 8002fe4:	ebb2 1f81 	cmp.w	r2, r1, lsl #6
 8002fe8:	f47f ae93 	bne.w	8002d12 <HAL_RCC_OscConfig+0x5a>
            (READ_BIT(pll_config, RCC_PLLCFGR_PLLP) != (((RCC_OscInitStruct->PLL.PLLP >> 1U) - 1U)) << RCC_PLLCFGR_PLLP_Pos) ||
 8002fec:	6aa2      	ldr	r2, [r4, #40]	; 0x28
 8002fee:	0852      	lsrs	r2, r2, #1
 8002ff0:	f403 3140 	and.w	r1, r3, #196608	; 0x30000
 8002ff4:	3a01      	subs	r2, #1
            (READ_BIT(pll_config, RCC_PLLCFGR_PLLN) != (RCC_OscInitStruct->PLL.PLLN) << RCC_PLLCFGR_PLLN_Pos) ||
 8002ff6:	ebb1 4f02 	cmp.w	r1, r2, lsl #16
 8002ffa:	f47f ae8a 	bne.w	8002d12 <HAL_RCC_OscConfig+0x5a>
            (READ_BIT(pll_config, RCC_PLLCFGR_PLLQ) != (RCC_OscInitStruct->PLL.PLLQ << RCC_PLLCFGR_PLLQ_Pos)))
 8002ffe:	6ae2      	ldr	r2, [r4, #44]	; 0x2c
 8003000:	f003 6370 	and.w	r3, r3, #251658240	; 0xf000000
            (READ_BIT(pll_config, RCC_PLLCFGR_PLLP) != (((RCC_OscInitStruct->PLL.PLLP >> 1U) - 1U)) << RCC_PLLCFGR_PLLP_Pos) ||
 8003004:	ebb3 6f02 	cmp.w	r3, r2, lsl #24
 8003008:	f43f ae6c 	beq.w	8002ce4 <HAL_RCC_OscConfig+0x2c>
 800300c:	e681      	b.n	8002d12 <HAL_RCC_OscConfig+0x5a>
 800300e:	bf00      	nop
 8003010:	40023800 	.word	0x40023800
 8003014:	42470000 	.word	0x42470000

08003018 <HAL_RCC_GetSysClockFreq>:
{
  uint32_t pllm = 0U, pllvco = 0U, pllp = 0U;
  uint32_t sysclockfreq = 0U;

  /* Get SYSCLK source -------------------------------------------------------*/
  switch (RCC->CFGR & RCC_CFGR_SWS)
 8003018:	4913      	ldr	r1, [pc, #76]	; (8003068 <HAL_RCC_GetSysClockFreq+0x50>)
{
 800301a:	b508      	push	{r3, lr}
  switch (RCC->CFGR & RCC_CFGR_SWS)
 800301c:	688b      	ldr	r3, [r1, #8]
 800301e:	f003 030c 	and.w	r3, r3, #12
 8003022:	2b04      	cmp	r3, #4
 8003024:	d01c      	beq.n	8003060 <HAL_RCC_GetSysClockFreq+0x48>
 8003026:	2b08      	cmp	r3, #8
 8003028:	d11c      	bne.n	8003064 <HAL_RCC_GetSysClockFreq+0x4c>
    }
    case RCC_CFGR_SWS_PLL:  /* PLL used as system clock  source */
    {
      /* PLL_VCO = (HSE_VALUE or HSI_VALUE / PLLM) * PLLN
      SYSCLK = PLL_VCO / PLLP */
      pllm = RCC->PLLCFGR & RCC_PLLCFGR_PLLM;
 800302a:	684a      	ldr	r2, [r1, #4]
      if(__HAL_RCC_GET_PLL_OSCSOURCE() != RCC_PLLSOURCE_HSI)
 800302c:	684b      	ldr	r3, [r1, #4]
      {
        /* HSE used as PLL clock source */
        pllvco = (uint32_t) ((((uint64_t) HSE_VALUE * ((uint64_t) ((RCC->PLLCFGR & RCC_PLLCFGR_PLLN) >> RCC_PLLCFGR_PLLN_Pos)))) / (uint64_t)pllm);
 800302e:	6849      	ldr	r1, [r1, #4]
      if(__HAL_RCC_GET_PLL_OSCSOURCE() != RCC_PLLSOURCE_HSI)
 8003030:	f413 0380 	ands.w	r3, r3, #4194304	; 0x400000
        pllvco = (uint32_t) ((((uint64_t) HSE_VALUE * ((uint64_t) ((RCC->PLLCFGR & RCC_PLLCFGR_PLLN) >> RCC_PLLCFGR_PLLN_Pos)))) / (uint64_t)pllm);
 8003034:	bf14      	ite	ne
 8003036:	480d      	ldrne	r0, [pc, #52]	; (800306c <HAL_RCC_GetSysClockFreq+0x54>)
      }
      else
      {
        /* HSI used as PLL clock source */
        pllvco = (uint32_t) ((((uint64_t) HSI_VALUE * ((uint64_t) ((RCC->PLLCFGR & RCC_PLLCFGR_PLLN) >> RCC_PLLCFGR_PLLN_Pos)))) / (uint64_t)pllm);
 8003038:	480d      	ldreq	r0, [pc, #52]	; (8003070 <HAL_RCC_GetSysClockFreq+0x58>)
        pllvco = (uint32_t) ((((uint64_t) HSE_VALUE * ((uint64_t) ((RCC->PLLCFGR & RCC_PLLCFGR_PLLN) >> RCC_PLLCFGR_PLLN_Pos)))) / (uint64_t)pllm);
 800303a:	f3c1 1188 	ubfx	r1, r1, #6, #9
 800303e:	bf18      	it	ne
 8003040:	2300      	movne	r3, #0
      pllm = RCC->PLLCFGR & RCC_PLLCFGR_PLLM;
 8003042:	f002 023f 	and.w	r2, r2, #63	; 0x3f
        pllvco = (uint32_t) ((((uint64_t) HSI_VALUE * ((uint64_t) ((RCC->PLLCFGR & RCC_PLLCFGR_PLLN) >> RCC_PLLCFGR_PLLN_Pos)))) / (uint64_t)pllm);
 8003046:	fba1 0100 	umull	r0, r1, r1, r0
 800304a:	f7fd f8cf 	bl	80001ec <__aeabi_uldivmod>
      }
      pllp = ((((RCC->PLLCFGR & RCC_PLLCFGR_PLLP) >> RCC_PLLCFGR_PLLP_Pos) + 1U) *2U);
 800304e:	4b06      	ldr	r3, [pc, #24]	; (8003068 <HAL_RCC_GetSysClockFreq+0x50>)
 8003050:	685b      	ldr	r3, [r3, #4]
 8003052:	f3c3 4301 	ubfx	r3, r3, #16, #2
 8003056:	3301      	adds	r3, #1
 8003058:	005b      	lsls	r3, r3, #1

      sysclockfreq = pllvco/pllp;
 800305a:	fbb0 f0f3 	udiv	r0, r0, r3
      sysclockfreq = HSI_VALUE;
      break;
    }
  }
  return sysclockfreq;
}
 800305e:	bd08      	pop	{r3, pc}
  switch (RCC->CFGR & RCC_CFGR_SWS)
 8003060:	4802      	ldr	r0, [pc, #8]	; (800306c <HAL_RCC_GetSysClockFreq+0x54>)
 8003062:	e7fc      	b.n	800305e <HAL_RCC_GetSysClockFreq+0x46>
      sysclockfreq = HSI_VALUE;
 8003064:	4802      	ldr	r0, [pc, #8]	; (8003070 <HAL_RCC_GetSysClockFreq+0x58>)
  return sysclockfreq;
 8003066:	e7fa      	b.n	800305e <HAL_RCC_GetSysClockFreq+0x46>
 8003068:	40023800 	.word	0x40023800
 800306c:	007a1200 	.word	0x007a1200
 8003070:	00f42400 	.word	0x00f42400

08003074 <HAL_RCC_ClockConfig>:
{
 8003074:	e92d 41f0 	stmdb	sp!, {r4, r5, r6, r7, r8, lr}
 8003078:	460d      	mov	r5, r1
  if(RCC_ClkInitStruct == NULL)
 800307a:	4604      	mov	r4, r0
 800307c:	b910      	cbnz	r0, 8003084 <HAL_RCC_ClockConfig+0x10>
    return HAL_ERROR;
 800307e:	2001      	movs	r0, #1
}
 8003080:	e8bd 81f0 	ldmia.w	sp!, {r4, r5, r6, r7, r8, pc}
  if(FLatency > __HAL_FLASH_GET_LATENCY())
 8003084:	4b44      	ldr	r3, [pc, #272]	; (8003198 <HAL_RCC_ClockConfig+0x124>)
 8003086:	681a      	ldr	r2, [r3, #0]
 8003088:	f002 020f 	and.w	r2, r2, #15
 800308c:	428a      	cmp	r2, r1
 800308e:	d328      	bcc.n	80030e2 <HAL_RCC_ClockConfig+0x6e>
  if(((RCC_ClkInitStruct->ClockType) & RCC_CLOCKTYPE_HCLK) == RCC_CLOCKTYPE_HCLK)
 8003090:	6822      	ldr	r2, [r4, #0]
 8003092:	0797      	lsls	r7, r2, #30
 8003094:	d42d      	bmi.n	80030f2 <HAL_RCC_ClockConfig+0x7e>
  if(((RCC_ClkInitStruct->ClockType) & RCC_CLOCKTYPE_SYSCLK) == RCC_CLOCKTYPE_SYSCLK)
 8003096:	07d0      	lsls	r0, r2, #31
 8003098:	d441      	bmi.n	800311e <HAL_RCC_ClockConfig+0xaa>
  if(FLatency < __HAL_FLASH_GET_LATENCY())
 800309a:	4b3f      	ldr	r3, [pc, #252]	; (8003198 <HAL_RCC_ClockConfig+0x124>)
 800309c:	681a      	ldr	r2, [r3, #0]
 800309e:	f002 020f 	and.w	r2, r2, #15
 80030a2:	42aa      	cmp	r2, r5
 80030a4:	d866      	bhi.n	8003174 <HAL_RCC_ClockConfig+0x100>
  if(((RCC_ClkInitStruct->ClockType) & RCC_CLOCKTYPE_PCLK1) == RCC_CLOCKTYPE_PCLK1)
 80030a6:	6822      	ldr	r2, [r4, #0]
 80030a8:	0751      	lsls	r1, r2, #29
 80030aa:	d46c      	bmi.n	8003186 <HAL_RCC_ClockConfig+0x112>
  if(((RCC_ClkInitStruct->ClockType) & RCC_CLOCKTYPE_PCLK2) == RCC_CLOCKTYPE_PCLK2)
 80030ac:	0713      	lsls	r3, r2, #28
 80030ae:	d507      	bpl.n	80030c0 <HAL_RCC_ClockConfig+0x4c>
    MODIFY_REG(RCC->CFGR, RCC_CFGR_PPRE2, ((RCC_ClkInitStruct->APB2CLKDivider) << 3U));
 80030b0:	4a3a      	ldr	r2, [pc, #232]	; (800319c <HAL_RCC_ClockConfig+0x128>)
 80030b2:	6921      	ldr	r1, [r4, #16]
 80030b4:	6893      	ldr	r3, [r2, #8]
 80030b6:	f423 4360 	bic.w	r3, r3, #57344	; 0xe000
 80030ba:	ea43 03c1 	orr.w	r3, r3, r1, lsl #3
 80030be:	6093      	str	r3, [r2, #8]
  SystemCoreClock = HAL_RCC_GetSysClockFreq() >> AHBPrescTable[(RCC->CFGR & RCC_CFGR_HPRE)>> RCC_CFGR_HPRE_Pos];
 80030c0:	f7ff ffaa 	bl	8003018 <HAL_RCC_GetSysClockFreq>
 80030c4:	4b35      	ldr	r3, [pc, #212]	; (800319c <HAL_RCC_ClockConfig+0x128>)
 80030c6:	4a36      	ldr	r2, [pc, #216]	; (80031a0 <HAL_RCC_ClockConfig+0x12c>)
 80030c8:	689b      	ldr	r3, [r3, #8]
 80030ca:	f3c3 1303 	ubfx	r3, r3, #4, #4
 80030ce:	5cd3      	ldrb	r3, [r2, r3]
 80030d0:	40d8      	lsrs	r0, r3
 80030d2:	4b34      	ldr	r3, [pc, #208]	; (80031a4 <HAL_RCC_ClockConfig+0x130>)
 80030d4:	6018      	str	r0, [r3, #0]
  HAL_InitTick (uwTickPrio);
 80030d6:	4b34      	ldr	r3, [pc, #208]	; (80031a8 <HAL_RCC_ClockConfig+0x134>)
 80030d8:	6818      	ldr	r0, [r3, #0]
 80030da:	f7fe fbe9 	bl	80018b0 <HAL_InitTick>
  return HAL_OK;
 80030de:	2000      	movs	r0, #0
 80030e0:	e7ce      	b.n	8003080 <HAL_RCC_ClockConfig+0xc>
    __HAL_FLASH_SET_LATENCY(FLatency);
 80030e2:	b2ca      	uxtb	r2, r1
 80030e4:	701a      	strb	r2, [r3, #0]
    if(__HAL_FLASH_GET_LATENCY() != FLatency)
 80030e6:	681b      	ldr	r3, [r3, #0]
 80030e8:	f003 030f 	and.w	r3, r3, #15
 80030ec:	428b      	cmp	r3, r1
 80030ee:	d1c6      	bne.n	800307e <HAL_RCC_ClockConfig+0xa>
 80030f0:	e7ce      	b.n	8003090 <HAL_RCC_ClockConfig+0x1c>
    if(((RCC_ClkInitStruct->ClockType) & RCC_CLOCKTYPE_PCLK1) == RCC_CLOCKTYPE_PCLK1)
 80030f2:	4b2a      	ldr	r3, [pc, #168]	; (800319c <HAL_RCC_ClockConfig+0x128>)
 80030f4:	f012 0f04 	tst.w	r2, #4
      MODIFY_REG(RCC->CFGR, RCC_CFGR_PPRE1, RCC_HCLK_DIV16);
 80030f8:	bf1e      	ittt	ne
 80030fa:	6899      	ldrne	r1, [r3, #8]
 80030fc:	f441 51e0 	orrne.w	r1, r1, #7168	; 0x1c00
 8003100:	6099      	strne	r1, [r3, #8]
    if(((RCC_ClkInitStruct->ClockType) & RCC_CLOCKTYPE_PCLK2) == RCC_CLOCKTYPE_PCLK2)
 8003102:	0716      	lsls	r6, r2, #28
      MODIFY_REG(RCC->CFGR, RCC_CFGR_PPRE2, (RCC_HCLK_DIV16 << 3));
 8003104:	bf42      	ittt	mi
 8003106:	6899      	ldrmi	r1, [r3, #8]
 8003108:	f441 4160 	orrmi.w	r1, r1, #57344	; 0xe000
 800310c:	6099      	strmi	r1, [r3, #8]
    MODIFY_REG(RCC->CFGR, RCC_CFGR_HPRE, RCC_ClkInitStruct->AHBCLKDivider);
 800310e:	4923      	ldr	r1, [pc, #140]	; (800319c <HAL_RCC_ClockConfig+0x128>)
 8003110:	68a0      	ldr	r0, [r4, #8]
 8003112:	688b      	ldr	r3, [r1, #8]
 8003114:	f023 03f0 	bic.w	r3, r3, #240	; 0xf0
 8003118:	4303      	orrs	r3, r0
 800311a:	608b      	str	r3, [r1, #8]
 800311c:	e7bb      	b.n	8003096 <HAL_RCC_ClockConfig+0x22>
    if(RCC_ClkInitStruct->SYSCLKSource == RCC_SYSCLKSOURCE_HSE)
 800311e:	6862      	ldr	r2, [r4, #4]
 8003120:	4b1e      	ldr	r3, [pc, #120]	; (800319c <HAL_RCC_ClockConfig+0x128>)
 8003122:	2a01      	cmp	r2, #1
 8003124:	d11c      	bne.n	8003160 <HAL_RCC_ClockConfig+0xec>
      if(__HAL_RCC_GET_FLAG(RCC_FLAG_HSERDY) == RESET)
 8003126:	681b      	ldr	r3, [r3, #0]
 8003128:	f413 3f00 	tst.w	r3, #131072	; 0x20000
      if(__HAL_RCC_GET_FLAG(RCC_FLAG_HSIRDY) == RESET)
 800312c:	d0a7      	beq.n	800307e <HAL_RCC_ClockConfig+0xa>
    __HAL_RCC_SYSCLK_CONFIG(RCC_ClkInitStruct->SYSCLKSource);
 800312e:	4e1b      	ldr	r6, [pc, #108]	; (800319c <HAL_RCC_ClockConfig+0x128>)
 8003130:	68b3      	ldr	r3, [r6, #8]
 8003132:	f023 0303 	bic.w	r3, r3, #3
 8003136:	4313      	orrs	r3, r2
 8003138:	60b3      	str	r3, [r6, #8]
    tickstart = HAL_GetTick();
 800313a:	f7fe fc01 	bl	8001940 <HAL_GetTick>
      if ((HAL_GetTick() - tickstart) > CLOCKSWITCH_TIMEOUT_VALUE)
 800313e:	f241 3888 	movw	r8, #5000	; 0x1388
    tickstart = HAL_GetTick();
 8003142:	4607      	mov	r7, r0
    while (__HAL_RCC_GET_SYSCLK_SOURCE() != (RCC_ClkInitStruct->SYSCLKSource << RCC_CFGR_SWS_Pos))
 8003144:	68b3      	ldr	r3, [r6, #8]
 8003146:	6862      	ldr	r2, [r4, #4]
 8003148:	f003 030c 	and.w	r3, r3, #12
 800314c:	ebb3 0f82 	cmp.w	r3, r2, lsl #2
 8003150:	d0a3      	beq.n	800309a <HAL_RCC_ClockConfig+0x26>
      if ((HAL_GetTick() - tickstart) > CLOCKSWITCH_TIMEOUT_VALUE)
 8003152:	f7fe fbf5 	bl	8001940 <HAL_GetTick>
 8003156:	1bc0      	subs	r0, r0, r7
 8003158:	4540      	cmp	r0, r8
 800315a:	d9f3      	bls.n	8003144 <HAL_RCC_ClockConfig+0xd0>
        return HAL_TIMEOUT;
 800315c:	2003      	movs	r0, #3
 800315e:	e78f      	b.n	8003080 <HAL_RCC_ClockConfig+0xc>
    else if((RCC_ClkInitStruct->SYSCLKSource == RCC_SYSCLKSOURCE_PLLCLK)   ||
 8003160:	1e91      	subs	r1, r2, #2
 8003162:	2901      	cmp	r1, #1
      if(__HAL_RCC_GET_FLAG(RCC_FLAG_PLLRDY) == RESET)
 8003164:	681b      	ldr	r3, [r3, #0]
    else if((RCC_ClkInitStruct->SYSCLKSource == RCC_SYSCLKSOURCE_PLLCLK)   ||
 8003166:	d802      	bhi.n	800316e <HAL_RCC_ClockConfig+0xfa>
      if(__HAL_RCC_GET_FLAG(RCC_FLAG_PLLRDY) == RESET)
 8003168:	f013 7f00 	tst.w	r3, #33554432	; 0x2000000
 800316c:	e7de      	b.n	800312c <HAL_RCC_ClockConfig+0xb8>
      if(__HAL_RCC_GET_FLAG(RCC_FLAG_HSIRDY) == RESET)
 800316e:	f013 0f02 	tst.w	r3, #2
 8003172:	e7db      	b.n	800312c <HAL_RCC_ClockConfig+0xb8>
    __HAL_FLASH_SET_LATENCY(FLatency);
 8003174:	b2ea      	uxtb	r2, r5
 8003176:	701a      	strb	r2, [r3, #0]
    if(__HAL_FLASH_GET_LATENCY() != FLatency)
 8003178:	681b      	ldr	r3, [r3, #0]
 800317a:	f003 030f 	and.w	r3, r3, #15
 800317e:	42ab      	cmp	r3, r5
 8003180:	f47f af7d 	bne.w	800307e <HAL_RCC_ClockConfig+0xa>
 8003184:	e78f      	b.n	80030a6 <HAL_RCC_ClockConfig+0x32>
    MODIFY_REG(RCC->CFGR, RCC_CFGR_PPRE1, RCC_ClkInitStruct->APB1CLKDivider);
 8003186:	4905      	ldr	r1, [pc, #20]	; (800319c <HAL_RCC_ClockConfig+0x128>)
 8003188:	68e0      	ldr	r0, [r4, #12]
 800318a:	688b      	ldr	r3, [r1, #8]
 800318c:	f423 53e0 	bic.w	r3, r3, #7168	; 0x1c00
 8003190:	4303      	orrs	r3, r0
 8003192:	608b      	str	r3, [r1, #8]
 8003194:	e78a      	b.n	80030ac <HAL_RCC_ClockConfig+0x38>
 8003196:	bf00      	nop
 8003198:	40023c00 	.word	0x40023c00
 800319c:	40023800 	.word	0x40023800
 80031a0:	0800b494 	.word	0x0800b494
 80031a4:	20000078 	.word	0x20000078
 80031a8:	20000080 	.word	0x20000080

080031ac <HAL_RCC_GetPCLK1Freq>:
  * @retval PCLK1 frequency
  */
uint32_t HAL_RCC_GetPCLK1Freq(void)
{
  /* Get HCLK source and Compute PCLK1 frequency ---------------------------*/
  return (HAL_RCC_GetHCLKFreq() >> APBPrescTable[(RCC->CFGR & RCC_CFGR_PPRE1)>> RCC_CFGR_PPRE1_Pos]);
 80031ac:	4b04      	ldr	r3, [pc, #16]	; (80031c0 <HAL_RCC_GetPCLK1Freq+0x14>)
 80031ae:	4a05      	ldr	r2, [pc, #20]	; (80031c4 <HAL_RCC_GetPCLK1Freq+0x18>)
 80031b0:	689b      	ldr	r3, [r3, #8]
 80031b2:	f3c3 2382 	ubfx	r3, r3, #10, #3
 80031b6:	5cd3      	ldrb	r3, [r2, r3]
 80031b8:	4a03      	ldr	r2, [pc, #12]	; (80031c8 <HAL_RCC_GetPCLK1Freq+0x1c>)
 80031ba:	6810      	ldr	r0, [r2, #0]
}
 80031bc:	40d8      	lsrs	r0, r3
 80031be:	4770      	bx	lr
 80031c0:	40023800 	.word	0x40023800
 80031c4:	0800b4a4 	.word	0x0800b4a4
 80031c8:	20000078 	.word	0x20000078

080031cc <HAL_RCCEx_PeriphCLKConfig>:
  /*----------------------- SAI/I2S Configuration (PLLI2S) -------------------*/
  /*----------------------- Common configuration SAI/I2S ---------------------*/
  /* In Case of SAI or I2S Clock Configuration through PLLI2S, PLLI2SN division
     factor is common parameters for both peripherals */
  if((((PeriphClkInit->PeriphClockSelection) & RCC_PERIPHCLK_I2S) == RCC_PERIPHCLK_I2S) ||
     (((PeriphClkInit->PeriphClockSelection) & RCC_PERIPHCLK_SAI_PLLI2S) == RCC_PERIPHCLK_SAI_PLLI2S) ||
 80031cc:	6803      	ldr	r3, [r0, #0]
  if((((PeriphClkInit->PeriphClockSelection) & RCC_PERIPHCLK_I2S) == RCC_PERIPHCLK_I2S) ||
 80031ce:	f013 0f43 	tst.w	r3, #67	; 0x43
{
 80031d2:	b5f7      	push	{r0, r1, r2, r4, r5, r6, r7, lr}
 80031d4:	4604      	mov	r4, r0
  if((((PeriphClkInit->PeriphClockSelection) & RCC_PERIPHCLK_I2S) == RCC_PERIPHCLK_I2S) ||
 80031d6:	f040 808c 	bne.w	80032f2 <HAL_RCCEx_PeriphCLKConfig+0x126>

  /*----------------------- SAI/LTDC Configuration (PLLSAI) ------------------*/
  /*----------------------- Common configuration SAI/LTDC --------------------*/
  /* In Case of SAI or LTDC Clock Configuration through PLLSAI, PLLSAIN division
     factor is common parameters for both peripherals */
  if((((PeriphClkInit->PeriphClockSelection) & RCC_PERIPHCLK_SAI_PLLSAI) == RCC_PERIPHCLK_SAI_PLLSAI) ||
 80031da:	6823      	ldr	r3, [r4, #0]
 80031dc:	f013 0f0c 	tst.w	r3, #12
 80031e0:	d045      	beq.n	800326e <HAL_RCCEx_PeriphCLKConfig+0xa2>
  {
    /* Check the PLLSAI division factors */
    assert_param(IS_RCC_PLLSAIN_VALUE(PeriphClkInit->PLLSAI.PLLSAIN));

    /* Disable PLLSAI Clock */
    __HAL_RCC_PLLSAI_DISABLE();
 80031e2:	4b8b      	ldr	r3, [pc, #556]	; (8003410 <HAL_RCCEx_PeriphCLKConfig+0x244>)
    /* Get tick */
    tickstart = HAL_GetTick();
    /* Wait till PLLSAI is disabled */
    while(__HAL_RCC_PLLSAI_GET_FLAG() != RESET)
 80031e4:	4d8b      	ldr	r5, [pc, #556]	; (8003414 <HAL_RCCEx_PeriphCLKConfig+0x248>)
    __HAL_RCC_PLLSAI_DISABLE();
 80031e6:	2200      	movs	r2, #0
 80031e8:	671a      	str	r2, [r3, #112]	; 0x70
    tickstart = HAL_GetTick();
 80031ea:	f7fe fba9 	bl	8001940 <HAL_GetTick>
 80031ee:	4606      	mov	r6, r0
    while(__HAL_RCC_PLLSAI_GET_FLAG() != RESET)
 80031f0:	682b      	ldr	r3, [r5, #0]
 80031f2:	009f      	lsls	r7, r3, #2
 80031f4:	f100 80cf 	bmi.w	8003396 <HAL_RCCEx_PeriphCLKConfig+0x1ca>
    }

    /*---------------------------- SAI configuration -------------------------*/
    /* In Case of SAI Clock Configuration through PLLSAI, PLLSAIQ and PLLSAI_DIVQ must
       be added only for SAI configuration */
    if(((PeriphClkInit->PeriphClockSelection) & RCC_PERIPHCLK_SAI_PLLSAI) == (RCC_PERIPHCLK_SAI_PLLSAI))
 80031f8:	6821      	ldr	r1, [r4, #0]
 80031fa:	074e      	lsls	r6, r1, #29
 80031fc:	d515      	bpl.n	800322a <HAL_RCCEx_PeriphCLKConfig+0x5e>
      /* Read PLLSAIR value from PLLSAICFGR register (this value is not need for SAI configuration) */
      tmpreg1 = ((RCC->PLLSAICFGR & RCC_PLLSAICFGR_PLLSAIR) >> RCC_PLLSAICFGR_PLLSAIR_Pos);
      /* PLLSAI_VCO Input  = PLL_SOURCE/PLLM */
      /* PLLSAI_VCO Output = PLLSAI_VCO Input * PLLSAIN */
      /* SAI_CLK(first level) = PLLSAI_VCO Output/PLLSAIQ */
      __HAL_RCC_PLLSAI_CONFIG(PeriphClkInit->PLLSAI.PLLSAIN , PeriphClkInit->PLLSAI.PLLSAIQ, tmpreg1);
 80031fe:	e9d4 0304 	ldrd	r0, r3, [r4, #16]
      tmpreg1 = ((RCC->PLLSAICFGR & RCC_PLLSAICFGR_PLLSAIR) >> RCC_PLLSAICFGR_PLLSAIR_Pos);
 8003202:	f8d5 2088 	ldr.w	r2, [r5, #136]	; 0x88
      __HAL_RCC_PLLSAI_CONFIG(PeriphClkInit->PLLSAI.PLLSAIN , PeriphClkInit->PLLSAI.PLLSAIQ, tmpreg1);
 8003206:	061b      	lsls	r3, r3, #24
 8003208:	f002 42e0 	and.w	r2, r2, #1879048192	; 0x70000000
 800320c:	ea43 1380 	orr.w	r3, r3, r0, lsl #6
 8003210:	4313      	orrs	r3, r2
 8003212:	f8c5 3088 	str.w	r3, [r5, #136]	; 0x88
      /* SAI_CLK_x = SAI_CLK(first level)/PLLSAIDIVQ */
      __HAL_RCC_PLLSAI_PLLSAICLKDIVQ_CONFIG(PeriphClkInit->PLLSAIDivQ);
 8003216:	f8d5 308c 	ldr.w	r3, [r5, #140]	; 0x8c
 800321a:	6a22      	ldr	r2, [r4, #32]
 800321c:	f423 53f8 	bic.w	r3, r3, #7936	; 0x1f00
 8003220:	3a01      	subs	r2, #1
 8003222:	ea43 2302 	orr.w	r3, r3, r2, lsl #8
 8003226:	f8c5 308c 	str.w	r3, [r5, #140]	; 0x8c
    }

    /*---------------------------- LTDC configuration ------------------------*/
    if(((PeriphClkInit->PeriphClockSelection) & RCC_PERIPHCLK_LTDC) == (RCC_PERIPHCLK_LTDC))
 800322a:	070d      	lsls	r5, r1, #28
 800322c:	d514      	bpl.n	8003258 <HAL_RCCEx_PeriphCLKConfig+0x8c>
    {
      assert_param(IS_RCC_PLLSAIR_VALUE(PeriphClkInit->PLLSAI.PLLSAIR));
      assert_param(IS_RCC_PLLSAI_DIVR_VALUE(PeriphClkInit->PLLSAIDivR));

      /* Read PLLSAIR value from PLLSAICFGR register (this value is not need for SAI configuration) */
      tmpreg1 = ((RCC->PLLSAICFGR & RCC_PLLSAICFGR_PLLSAIQ) >> RCC_PLLSAICFGR_PLLSAIQ_Pos);
 800322e:	4a79      	ldr	r2, [pc, #484]	; (8003414 <HAL_RCCEx_PeriphCLKConfig+0x248>)
      /* PLLSAI_VCO Input  = PLL_SOURCE/PLLM */
      /* PLLSAI_VCO Output = PLLSAI_VCO Input * PLLSAIN */
      /* LTDC_CLK(first level) = PLLSAI_VCO Output/PLLSAIR */
      __HAL_RCC_PLLSAI_CONFIG(PeriphClkInit->PLLSAI.PLLSAIN , tmpreg1, PeriphClkInit->PLLSAI.PLLSAIR);
 8003230:	69a3      	ldr	r3, [r4, #24]
      tmpreg1 = ((RCC->PLLSAICFGR & RCC_PLLSAICFGR_PLLSAIQ) >> RCC_PLLSAICFGR_PLLSAIQ_Pos);
 8003232:	f8d2 1088 	ldr.w	r1, [r2, #136]	; 0x88
      __HAL_RCC_PLLSAI_CONFIG(PeriphClkInit->PLLSAI.PLLSAIN , tmpreg1, PeriphClkInit->PLLSAI.PLLSAIR);
 8003236:	6920      	ldr	r0, [r4, #16]
 8003238:	071b      	lsls	r3, r3, #28
 800323a:	f001 6170 	and.w	r1, r1, #251658240	; 0xf000000
 800323e:	ea43 1380 	orr.w	r3, r3, r0, lsl #6
 8003242:	430b      	orrs	r3, r1
 8003244:	f8c2 3088 	str.w	r3, [r2, #136]	; 0x88
      /* LTDC_CLK = LTDC_CLK(first level)/PLLSAIDIVR */
      __HAL_RCC_PLLSAI_PLLSAICLKDIVR_CONFIG(PeriphClkInit->PLLSAIDivR);
 8003248:	f8d2 308c 	ldr.w	r3, [r2, #140]	; 0x8c
 800324c:	6a61      	ldr	r1, [r4, #36]	; 0x24
 800324e:	f423 3340 	bic.w	r3, r3, #196608	; 0x30000
 8003252:	430b      	orrs	r3, r1
 8003254:	f8c2 308c 	str.w	r3, [r2, #140]	; 0x8c
    }
    /* Enable PLLSAI Clock */
    __HAL_RCC_PLLSAI_ENABLE();
 8003258:	4b6d      	ldr	r3, [pc, #436]	; (8003410 <HAL_RCCEx_PeriphCLKConfig+0x244>)
    /* Get tick */
    tickstart = HAL_GetTick();
    /* Wait till PLLSAI is ready */
    while(__HAL_RCC_PLLSAI_GET_FLAG() == RESET)
 800325a:	4e6e      	ldr	r6, [pc, #440]	; (8003414 <HAL_RCCEx_PeriphCLKConfig+0x248>)
    __HAL_RCC_PLLSAI_ENABLE();
 800325c:	2201      	movs	r2, #1
 800325e:	671a      	str	r2, [r3, #112]	; 0x70
    tickstart = HAL_GetTick();
 8003260:	f7fe fb6e 	bl	8001940 <HAL_GetTick>
 8003264:	4605      	mov	r5, r0
    while(__HAL_RCC_PLLSAI_GET_FLAG() == RESET)
 8003266:	6833      	ldr	r3, [r6, #0]
 8003268:	0098      	lsls	r0, r3, #2
 800326a:	f140 809b 	bpl.w	80033a4 <HAL_RCCEx_PeriphCLKConfig+0x1d8>
    }
  }
  /*--------------------------------------------------------------------------*/

  /*---------------------------- RTC configuration ---------------------------*/
  if(((PeriphClkInit->PeriphClockSelection) & RCC_PERIPHCLK_RTC) == (RCC_PERIPHCLK_RTC))
 800326e:	6823      	ldr	r3, [r4, #0]
 8003270:	069b      	lsls	r3, r3, #26
 8003272:	d533      	bpl.n	80032dc <HAL_RCCEx_PeriphCLKConfig+0x110>
  {
    /* Check for RTC Parameters used to output RTCCLK */
    assert_param(IS_RCC_RTCCLKSOURCE(PeriphClkInit->RTCClockSelection));

    /* Enable Power Clock*/
    __HAL_RCC_PWR_CLK_ENABLE();
 8003274:	2300      	movs	r3, #0
 8003276:	9301      	str	r3, [sp, #4]
 8003278:	4b66      	ldr	r3, [pc, #408]	; (8003414 <HAL_RCCEx_PeriphCLKConfig+0x248>)

    /* Enable write access to Backup domain */
    PWR->CR |= PWR_CR_DBP;
 800327a:	4d67      	ldr	r5, [pc, #412]	; (8003418 <HAL_RCCEx_PeriphCLKConfig+0x24c>)
    __HAL_RCC_PWR_CLK_ENABLE();
 800327c:	6c1a      	ldr	r2, [r3, #64]	; 0x40
 800327e:	f042 5280 	orr.w	r2, r2, #268435456	; 0x10000000
 8003282:	641a      	str	r2, [r3, #64]	; 0x40
 8003284:	6c1b      	ldr	r3, [r3, #64]	; 0x40
 8003286:	f003 5380 	and.w	r3, r3, #268435456	; 0x10000000
 800328a:	9301      	str	r3, [sp, #4]
 800328c:	9b01      	ldr	r3, [sp, #4]
    PWR->CR |= PWR_CR_DBP;
 800328e:	682b      	ldr	r3, [r5, #0]
 8003290:	f443 7380 	orr.w	r3, r3, #256	; 0x100
 8003294:	602b      	str	r3, [r5, #0]

    /* Get tick */
    tickstart = HAL_GetTick();
 8003296:	f7fe fb53 	bl	8001940 <HAL_GetTick>
 800329a:	4606      	mov	r6, r0

    while((PWR->CR & PWR_CR_DBP) == RESET)
 800329c:	682b      	ldr	r3, [r5, #0]
 800329e:	05d9      	lsls	r1, r3, #23
 80032a0:	f140 8087 	bpl.w	80033b2 <HAL_RCCEx_PeriphCLKConfig+0x1e6>
      {
        return HAL_TIMEOUT;
      }
    }
    /* Reset the Backup domain only if the RTC Clock source selection is modified from reset value */
    tmpreg1 = (RCC->BDCR & RCC_BDCR_RTCSEL);
 80032a4:	4d5b      	ldr	r5, [pc, #364]	; (8003414 <HAL_RCCEx_PeriphCLKConfig+0x248>)
 80032a6:	6f2b      	ldr	r3, [r5, #112]	; 0x70
    if((tmpreg1 != 0x00000000U) && ((tmpreg1) != (PeriphClkInit->RTCClockSelection & RCC_BDCR_RTCSEL)))
 80032a8:	f413 7340 	ands.w	r3, r3, #768	; 0x300
 80032ac:	f040 8088 	bne.w	80033c0 <HAL_RCCEx_PeriphCLKConfig+0x1f4>
            return HAL_TIMEOUT;
          }
        }
      }
    }
    __HAL_RCC_RTC_CONFIG(PeriphClkInit->RTCClockSelection);
 80032b0:	6aa3      	ldr	r3, [r4, #40]	; 0x28
 80032b2:	f403 7240 	and.w	r2, r3, #768	; 0x300
 80032b6:	f5b2 7f40 	cmp.w	r2, #768	; 0x300
 80032ba:	4a56      	ldr	r2, [pc, #344]	; (8003414 <HAL_RCCEx_PeriphCLKConfig+0x248>)
 80032bc:	f040 80a4 	bne.w	8003408 <HAL_RCCEx_PeriphCLKConfig+0x23c>
 80032c0:	6891      	ldr	r1, [r2, #8]
 80032c2:	f023 4070 	bic.w	r0, r3, #4026531840	; 0xf0000000
 80032c6:	f421 11f8 	bic.w	r1, r1, #2031616	; 0x1f0000
 80032ca:	f420 7040 	bic.w	r0, r0, #768	; 0x300
 80032ce:	4301      	orrs	r1, r0
 80032d0:	6091      	str	r1, [r2, #8]
 80032d2:	6f11      	ldr	r1, [r2, #112]	; 0x70
 80032d4:	f3c3 030b 	ubfx	r3, r3, #0, #12
 80032d8:	430b      	orrs	r3, r1
 80032da:	6713      	str	r3, [r2, #112]	; 0x70
  }
  /*--------------------------------------------------------------------------*/

  /*---------------------------- TIM configuration ---------------------------*/
  if(((PeriphClkInit->PeriphClockSelection) & RCC_PERIPHCLK_TIM) == (RCC_PERIPHCLK_TIM))
 80032dc:	6820      	ldr	r0, [r4, #0]
 80032de:	f010 0010 	ands.w	r0, r0, #16
  {
    __HAL_RCC_TIMCLKPRESCALER(PeriphClkInit->TIMPresSelection);
 80032e2:	bf1f      	itttt	ne
 80032e4:	4b4d      	ldrne	r3, [pc, #308]	; (800341c <HAL_RCCEx_PeriphCLKConfig+0x250>)
 80032e6:	f894 202c 	ldrbne.w	r2, [r4, #44]	; 0x2c
 80032ea:	f8c3 21e0 	strne.w	r2, [r3, #480]	; 0x1e0
  }
  return HAL_OK;
 80032ee:	2000      	movne	r0, #0
 80032f0:	e04f      	b.n	8003392 <HAL_RCCEx_PeriphCLKConfig+0x1c6>
    __HAL_RCC_PLLI2S_DISABLE();
 80032f2:	4b47      	ldr	r3, [pc, #284]	; (8003410 <HAL_RCCEx_PeriphCLKConfig+0x244>)
    while(__HAL_RCC_GET_FLAG(RCC_FLAG_PLLI2SRDY)  != RESET)
 80032f4:	4e47      	ldr	r6, [pc, #284]	; (8003414 <HAL_RCCEx_PeriphCLKConfig+0x248>)
    __HAL_RCC_PLLI2S_DISABLE();
 80032f6:	2200      	movs	r2, #0
 80032f8:	669a      	str	r2, [r3, #104]	; 0x68
    tickstart = HAL_GetTick();
 80032fa:	f7fe fb21 	bl	8001940 <HAL_GetTick>
 80032fe:	4605      	mov	r5, r0
    while(__HAL_RCC_GET_FLAG(RCC_FLAG_PLLI2SRDY)  != RESET)
 8003300:	6833      	ldr	r3, [r6, #0]
 8003302:	011f      	lsls	r7, r3, #4
 8003304:	d43f      	bmi.n	8003386 <HAL_RCCEx_PeriphCLKConfig+0x1ba>
    if(((PeriphClkInit->PeriphClockSelection) & RCC_PERIPHCLK_I2S) == (RCC_PERIPHCLK_I2S))
 8003306:	6821      	ldr	r1, [r4, #0]
 8003308:	07cd      	lsls	r5, r1, #31
      __HAL_RCC_PLLI2S_CONFIG(PeriphClkInit->PLLI2S.PLLI2SN , PeriphClkInit->PLLI2S.PLLI2SR);
 800330a:	bf41      	itttt	mi
 800330c:	e9d4 2301 	ldrdmi	r2, r3, [r4, #4]
 8003310:	071b      	lslmi	r3, r3, #28
 8003312:	ea43 1382 	orrmi.w	r3, r3, r2, lsl #6
 8003316:	f8c6 3084 	strmi.w	r3, [r6, #132]	; 0x84
    if(((PeriphClkInit->PeriphClockSelection) & RCC_PERIPHCLK_SAI_PLLI2S) == (RCC_PERIPHCLK_SAI_PLLI2S))
 800331a:	0788      	lsls	r0, r1, #30
 800331c:	d515      	bpl.n	800334a <HAL_RCCEx_PeriphCLKConfig+0x17e>
      tmpreg1 = ((RCC->PLLI2SCFGR & RCC_PLLI2SCFGR_PLLI2SR) >> RCC_PLLI2SCFGR_PLLI2SR_Pos);
 800331e:	4a3d      	ldr	r2, [pc, #244]	; (8003414 <HAL_RCCEx_PeriphCLKConfig+0x248>)
      __HAL_RCC_PLLI2S_SAICLK_CONFIG(PeriphClkInit->PLLI2S.PLLI2SN , PeriphClkInit->PLLI2S.PLLI2SQ , tmpreg1);
 8003320:	68e3      	ldr	r3, [r4, #12]
      tmpreg1 = ((RCC->PLLI2SCFGR & RCC_PLLI2SCFGR_PLLI2SR) >> RCC_PLLI2SCFGR_PLLI2SR_Pos);
 8003322:	f8d2 0084 	ldr.w	r0, [r2, #132]	; 0x84
      __HAL_RCC_PLLI2S_SAICLK_CONFIG(PeriphClkInit->PLLI2S.PLLI2SN , PeriphClkInit->PLLI2S.PLLI2SQ , tmpreg1);
 8003326:	6865      	ldr	r5, [r4, #4]
 8003328:	061b      	lsls	r3, r3, #24
 800332a:	f000 40e0 	and.w	r0, r0, #1879048192	; 0x70000000
 800332e:	ea43 1385 	orr.w	r3, r3, r5, lsl #6
 8003332:	4303      	orrs	r3, r0
 8003334:	f8c2 3084 	str.w	r3, [r2, #132]	; 0x84
      __HAL_RCC_PLLI2S_PLLSAICLKDIVQ_CONFIG(PeriphClkInit->PLLI2SDivQ);
 8003338:	f8d2 008c 	ldr.w	r0, [r2, #140]	; 0x8c
 800333c:	69e3      	ldr	r3, [r4, #28]
 800333e:	f020 001f 	bic.w	r0, r0, #31
 8003342:	3b01      	subs	r3, #1
 8003344:	4303      	orrs	r3, r0
 8003346:	f8c2 308c 	str.w	r3, [r2, #140]	; 0x8c
    if((PeriphClkInit->PeriphClockSelection & RCC_PERIPHCLK_PLLI2S) == RCC_PERIPHCLK_PLLI2S)
 800334a:	0649      	lsls	r1, r1, #25
 800334c:	d50a      	bpl.n	8003364 <HAL_RCCEx_PeriphCLKConfig+0x198>
      __HAL_RCC_PLLI2S_SAICLK_CONFIG(PeriphClkInit->PLLI2S.PLLI2SN, PeriphClkInit->PLLI2S.PLLI2SQ, PeriphClkInit->PLLI2S.PLLI2SR);
 800334e:	68e3      	ldr	r3, [r4, #12]
 8003350:	6862      	ldr	r2, [r4, #4]
 8003352:	061b      	lsls	r3, r3, #24
 8003354:	ea43 1382 	orr.w	r3, r3, r2, lsl #6
 8003358:	68a2      	ldr	r2, [r4, #8]
 800335a:	ea43 7302 	orr.w	r3, r3, r2, lsl #28
 800335e:	4a2d      	ldr	r2, [pc, #180]	; (8003414 <HAL_RCCEx_PeriphCLKConfig+0x248>)
 8003360:	f8c2 3084 	str.w	r3, [r2, #132]	; 0x84
    __HAL_RCC_PLLI2S_ENABLE();
 8003364:	4b2a      	ldr	r3, [pc, #168]	; (8003410 <HAL_RCCEx_PeriphCLKConfig+0x244>)
    while(__HAL_RCC_GET_FLAG(RCC_FLAG_PLLI2SRDY)  == RESET)
 8003366:	4e2b      	ldr	r6, [pc, #172]	; (8003414 <HAL_RCCEx_PeriphCLKConfig+0x248>)
    __HAL_RCC_PLLI2S_ENABLE();
 8003368:	2201      	movs	r2, #1
 800336a:	669a      	str	r2, [r3, #104]	; 0x68
    tickstart = HAL_GetTick();
 800336c:	f7fe fae8 	bl	8001940 <HAL_GetTick>
 8003370:	4605      	mov	r5, r0
    while(__HAL_RCC_GET_FLAG(RCC_FLAG_PLLI2SRDY)  == RESET)
 8003372:	6833      	ldr	r3, [r6, #0]
 8003374:	011a      	lsls	r2, r3, #4
 8003376:	f53f af30 	bmi.w	80031da <HAL_RCCEx_PeriphCLKConfig+0xe>
      if((HAL_GetTick() - tickstart ) > PLLI2S_TIMEOUT_VALUE)
 800337a:	f7fe fae1 	bl	8001940 <HAL_GetTick>
 800337e:	1b40      	subs	r0, r0, r5
 8003380:	2802      	cmp	r0, #2
 8003382:	d9f6      	bls.n	8003372 <HAL_RCCEx_PeriphCLKConfig+0x1a6>
 8003384:	e004      	b.n	8003390 <HAL_RCCEx_PeriphCLKConfig+0x1c4>
      if((HAL_GetTick() - tickstart ) > PLLI2S_TIMEOUT_VALUE)
 8003386:	f7fe fadb 	bl	8001940 <HAL_GetTick>
 800338a:	1b40      	subs	r0, r0, r5
 800338c:	2802      	cmp	r0, #2
 800338e:	d9b7      	bls.n	8003300 <HAL_RCCEx_PeriphCLKConfig+0x134>
        return HAL_TIMEOUT;
 8003390:	2003      	movs	r0, #3
}
 8003392:	b003      	add	sp, #12
 8003394:	bdf0      	pop	{r4, r5, r6, r7, pc}
      if((HAL_GetTick() - tickstart ) > PLLSAI_TIMEOUT_VALUE)
 8003396:	f7fe fad3 	bl	8001940 <HAL_GetTick>
 800339a:	1b80      	subs	r0, r0, r6
 800339c:	2802      	cmp	r0, #2
 800339e:	f67f af27 	bls.w	80031f0 <HAL_RCCEx_PeriphCLKConfig+0x24>
 80033a2:	e7f5      	b.n	8003390 <HAL_RCCEx_PeriphCLKConfig+0x1c4>
      if((HAL_GetTick() - tickstart ) > PLLSAI_TIMEOUT_VALUE)
 80033a4:	f7fe facc 	bl	8001940 <HAL_GetTick>
 80033a8:	1b40      	subs	r0, r0, r5
 80033aa:	2802      	cmp	r0, #2
 80033ac:	f67f af5b 	bls.w	8003266 <HAL_RCCEx_PeriphCLKConfig+0x9a>
 80033b0:	e7ee      	b.n	8003390 <HAL_RCCEx_PeriphCLKConfig+0x1c4>
      if((HAL_GetTick() - tickstart ) > RCC_DBP_TIMEOUT_VALUE)
 80033b2:	f7fe fac5 	bl	8001940 <HAL_GetTick>
 80033b6:	1b80      	subs	r0, r0, r6
 80033b8:	2802      	cmp	r0, #2
 80033ba:	f67f af6f 	bls.w	800329c <HAL_RCCEx_PeriphCLKConfig+0xd0>
 80033be:	e7e7      	b.n	8003390 <HAL_RCCEx_PeriphCLKConfig+0x1c4>
    if((tmpreg1 != 0x00000000U) && ((tmpreg1) != (PeriphClkInit->RTCClockSelection & RCC_BDCR_RTCSEL)))
 80033c0:	6aa2      	ldr	r2, [r4, #40]	; 0x28
 80033c2:	f402 7240 	and.w	r2, r2, #768	; 0x300
 80033c6:	4293      	cmp	r3, r2
 80033c8:	f43f af72 	beq.w	80032b0 <HAL_RCCEx_PeriphCLKConfig+0xe4>
      tmpreg1 = (RCC->BDCR & ~(RCC_BDCR_RTCSEL));
 80033cc:	6f2b      	ldr	r3, [r5, #112]	; 0x70
      __HAL_RCC_BACKUPRESET_FORCE();
 80033ce:	4a10      	ldr	r2, [pc, #64]	; (8003410 <HAL_RCCEx_PeriphCLKConfig+0x244>)
 80033d0:	2101      	movs	r1, #1
 80033d2:	f8c2 1e40 	str.w	r1, [r2, #3648]	; 0xe40
      tmpreg1 = (RCC->BDCR & ~(RCC_BDCR_RTCSEL));
 80033d6:	f423 7340 	bic.w	r3, r3, #768	; 0x300
      __HAL_RCC_BACKUPRESET_RELEASE();
 80033da:	2100      	movs	r1, #0
 80033dc:	f8c2 1e40 	str.w	r1, [r2, #3648]	; 0xe40
      RCC->BDCR = tmpreg1;
 80033e0:	672b      	str	r3, [r5, #112]	; 0x70
      if(HAL_IS_BIT_SET(RCC->BDCR, RCC_BDCR_LSEON))
 80033e2:	6f2b      	ldr	r3, [r5, #112]	; 0x70
 80033e4:	07da      	lsls	r2, r3, #31
 80033e6:	f57f af63 	bpl.w	80032b0 <HAL_RCCEx_PeriphCLKConfig+0xe4>
        tickstart = HAL_GetTick();
 80033ea:	f7fe faa9 	bl	8001940 <HAL_GetTick>
          if((HAL_GetTick() - tickstart ) > RCC_LSE_TIMEOUT_VALUE)
 80033ee:	f241 3788 	movw	r7, #5000	; 0x1388
        tickstart = HAL_GetTick();
 80033f2:	4606      	mov	r6, r0
        while(__HAL_RCC_GET_FLAG(RCC_FLAG_LSERDY) == RESET)
 80033f4:	6f2b      	ldr	r3, [r5, #112]	; 0x70
 80033f6:	079b      	lsls	r3, r3, #30
 80033f8:	f53f af5a 	bmi.w	80032b0 <HAL_RCCEx_PeriphCLKConfig+0xe4>
          if((HAL_GetTick() - tickstart ) > RCC_LSE_TIMEOUT_VALUE)
 80033fc:	f7fe faa0 	bl	8001940 <HAL_GetTick>
 8003400:	1b80      	subs	r0, r0, r6
 8003402:	42b8      	cmp	r0, r7
 8003404:	d9f6      	bls.n	80033f4 <HAL_RCCEx_PeriphCLKConfig+0x228>
 8003406:	e7c3      	b.n	8003390 <HAL_RCCEx_PeriphCLKConfig+0x1c4>
    __HAL_RCC_RTC_CONFIG(PeriphClkInit->RTCClockSelection);
 8003408:	6891      	ldr	r1, [r2, #8]
 800340a:	f421 11f8 	bic.w	r1, r1, #2031616	; 0x1f0000
 800340e:	e75f      	b.n	80032d0 <HAL_RCCEx_PeriphCLKConfig+0x104>
 8003410:	42470000 	.word	0x42470000
 8003414:	40023800 	.word	0x40023800
 8003418:	40007000 	.word	0x40007000
 800341c:	42471000 	.word	0x42471000

08003420 <HAL_SDRAM_MspInit>:
  UNUSED(hsdram);

  /* NOTE: This function Should not be modified, when the callback is needed,
            the HAL_SDRAM_MspInit could be implemented in the user file
   */
}
 8003420:	4770      	bx	lr

08003422 <HAL_SDRAM_Init>:
{
 8003422:	b538      	push	{r3, r4, r5, lr}
 8003424:	460d      	mov	r5, r1
  if (hsdram == NULL)
 8003426:	4604      	mov	r4, r0
 8003428:	b1c8      	cbz	r0, 800345e <HAL_SDRAM_Init+0x3c>
  if (hsdram->State == HAL_SDRAM_STATE_RESET)
 800342a:	f890 302c 	ldrb.w	r3, [r0, #44]	; 0x2c
 800342e:	f003 02ff 	and.w	r2, r3, #255	; 0xff
 8003432:	b91b      	cbnz	r3, 800343c <HAL_SDRAM_Init+0x1a>
    hsdram->Lock = HAL_UNLOCKED;
 8003434:	f880 202d 	strb.w	r2, [r0, #45]	; 0x2d
    HAL_SDRAM_MspInit(hsdram);
 8003438:	f7ff fff2 	bl	8003420 <HAL_SDRAM_MspInit>
  hsdram->State = HAL_SDRAM_STATE_BUSY;
 800343c:	2302      	movs	r3, #2
 800343e:	f884 302c 	strb.w	r3, [r4, #44]	; 0x2c
  (void)FMC_SDRAM_Init(hsdram->Instance, &(hsdram->Init));
 8003442:	1d21      	adds	r1, r4, #4
 8003444:	6820      	ldr	r0, [r4, #0]
 8003446:	f000 fb83 	bl	8003b50 <FMC_SDRAM_Init>
  (void)FMC_SDRAM_Timing_Init(hsdram->Instance, Timing, hsdram->Init.SDBank);
 800344a:	6862      	ldr	r2, [r4, #4]
 800344c:	6820      	ldr	r0, [r4, #0]
 800344e:	4629      	mov	r1, r5
 8003450:	f000 fbb9 	bl	8003bc6 <FMC_SDRAM_Timing_Init>
  hsdram->State = HAL_SDRAM_STATE_READY;
 8003454:	2301      	movs	r3, #1
 8003456:	f884 302c 	strb.w	r3, [r4, #44]	; 0x2c
  return HAL_OK;
 800345a:	2000      	movs	r0, #0
}
 800345c:	bd38      	pop	{r3, r4, r5, pc}
    return HAL_ERROR;
 800345e:	2001      	movs	r0, #1
 8003460:	e7fc      	b.n	800345c <HAL_SDRAM_Init+0x3a>

08003462 <HAL_SDRAM_SendCommand>:
  * @param  Timeout Timeout duration
  * @retval HAL status
  */
HAL_StatusTypeDef HAL_SDRAM_SendCommand(SDRAM_HandleTypeDef *hsdram, FMC_SDRAM_CommandTypeDef *Command,
                                        uint32_t Timeout)
{
 8003462:	b570      	push	{r4, r5, r6, lr}
  HAL_SDRAM_StateTypeDef state = hsdram->State;
 8003464:	f890 302c 	ldrb.w	r3, [r0, #44]	; 0x2c

  /* Check the SDRAM controller state */
  if (state == HAL_SDRAM_STATE_BUSY)
 8003468:	2b02      	cmp	r3, #2
{
 800346a:	4605      	mov	r5, r0
 800346c:	460e      	mov	r6, r1
  HAL_SDRAM_StateTypeDef state = hsdram->State;
 800346e:	b2d8      	uxtb	r0, r3
  if (state == HAL_SDRAM_STATE_BUSY)
 8003470:	d012      	beq.n	8003498 <HAL_SDRAM_SendCommand+0x36>
  {
    return HAL_BUSY;
  }
  else if ((state == HAL_SDRAM_STATE_READY) || (state == HAL_SDRAM_STATE_PRECHARGED))
 8003472:	f000 04fb 	and.w	r4, r0, #251	; 0xfb
 8003476:	2c01      	cmp	r4, #1
 8003478:	d10f      	bne.n	800349a <HAL_SDRAM_SendCommand+0x38>
  {
    /* Update the SDRAM state */
    hsdram->State = HAL_SDRAM_STATE_BUSY;
 800347a:	2302      	movs	r3, #2
 800347c:	f885 302c 	strb.w	r3, [r5, #44]	; 0x2c

    /* Send SDRAM command */
    (void)FMC_SDRAM_SendCommand(hsdram->Instance, Command, Timeout);
 8003480:	6828      	ldr	r0, [r5, #0]
 8003482:	f000 fbd6 	bl	8003c32 <FMC_SDRAM_SendCommand>

    /* Update the SDRAM controller state state */
    if (Command->CommandMode == FMC_SDRAM_CMD_PALL)
 8003486:	6833      	ldr	r3, [r6, #0]
 8003488:	2b02      	cmp	r3, #2
    {
      hsdram->State = HAL_SDRAM_STATE_PRECHARGED;
 800348a:	bf06      	itte	eq
 800348c:	2305      	moveq	r3, #5
 800348e:	f885 302c 	strbeq.w	r3, [r5, #44]	; 0x2c
    }
    else
    {
      hsdram->State = HAL_SDRAM_STATE_READY;
 8003492:	f885 402c 	strbne.w	r4, [r5, #44]	; 0x2c
  else
  {
    return HAL_ERROR;
  }

  return HAL_OK;
 8003496:	2000      	movs	r0, #0
}
 8003498:	bd70      	pop	{r4, r5, r6, pc}
    return HAL_ERROR;
 800349a:	2001      	movs	r0, #1
 800349c:	e7fc      	b.n	8003498 <HAL_SDRAM_SendCommand+0x36>

0800349e <HAL_SDRAM_ProgramRefreshRate>:
  *                the configuration information for SDRAM module.
  * @param  RefreshRate The SDRAM refresh rate value
  * @retval HAL status
  */
HAL_StatusTypeDef HAL_SDRAM_ProgramRefreshRate(SDRAM_HandleTypeDef *hsdram, uint32_t RefreshRate)
{
 800349e:	b538      	push	{r3, r4, r5, lr}
  /* Check the SDRAM controller state */
  if (hsdram->State == HAL_SDRAM_STATE_BUSY)
 80034a0:	f890 302c 	ldrb.w	r3, [r0, #44]	; 0x2c
 80034a4:	2b02      	cmp	r3, #2
{
 80034a6:	4604      	mov	r4, r0
  if (hsdram->State == HAL_SDRAM_STATE_BUSY)
 80034a8:	b2d8      	uxtb	r0, r3
 80034aa:	d00d      	beq.n	80034c8 <HAL_SDRAM_ProgramRefreshRate+0x2a>
  {
    return HAL_BUSY;
  }
  else if (hsdram->State == HAL_SDRAM_STATE_READY)
 80034ac:	f894 302c 	ldrb.w	r3, [r4, #44]	; 0x2c
 80034b0:	2b01      	cmp	r3, #1
 80034b2:	b2dd      	uxtb	r5, r3
 80034b4:	d109      	bne.n	80034ca <HAL_SDRAM_ProgramRefreshRate+0x2c>
  {
    /* Update the SDRAM state */
    hsdram->State = HAL_SDRAM_STATE_BUSY;
 80034b6:	2302      	movs	r3, #2

    /* Program the refresh rate */
    (void)FMC_SDRAM_ProgramRefreshRate(hsdram->Instance, RefreshRate);
 80034b8:	6820      	ldr	r0, [r4, #0]
    hsdram->State = HAL_SDRAM_STATE_BUSY;
 80034ba:	f884 302c 	strb.w	r3, [r4, #44]	; 0x2c
    (void)FMC_SDRAM_ProgramRefreshRate(hsdram->Instance, RefreshRate);
 80034be:	f000 fbde 	bl	8003c7e <FMC_SDRAM_ProgramRefreshRate>

    /* Update the SDRAM state */
    hsdram->State = HAL_SDRAM_STATE_READY;
 80034c2:	f884 502c 	strb.w	r5, [r4, #44]	; 0x2c
  else
  {
    return HAL_ERROR;
  }

  return HAL_OK;
 80034c6:	2000      	movs	r0, #0
}
 80034c8:	bd38      	pop	{r3, r4, r5, pc}
    return HAL_ERROR;
 80034ca:	2001      	movs	r0, #1
 80034cc:	e7fc      	b.n	80034c8 <HAL_SDRAM_ProgramRefreshRate+0x2a>
	...

080034d0 <SPI_WaitFlagStateUntilTimeout>:
  * @param  Tickstart tick start value
  * @retval HAL status
  */
static HAL_StatusTypeDef SPI_WaitFlagStateUntilTimeout(SPI_HandleTypeDef *hspi, uint32_t Flag, FlagStatus State,
                                                       uint32_t Timeout, uint32_t Tickstart)
{
 80034d0:	e92d 47f3 	stmdb	sp!, {r0, r1, r4, r5, r6, r7, r8, r9, sl, lr}
 80034d4:	461f      	mov	r7, r3
 80034d6:	4689      	mov	r9, r1
 80034d8:	4690      	mov	r8, r2
 80034da:	4604      	mov	r4, r0
  __IO uint32_t count;
  uint32_t tmp_timeout;
  uint32_t tmp_tickstart;

  /* Adjust Timeout value  in case of end of transfer */
  tmp_timeout   = Timeout - (HAL_GetTick() - Tickstart);
 80034dc:	f7fe fa30 	bl	8001940 <HAL_GetTick>
 80034e0:	9b0a      	ldr	r3, [sp, #40]	; 0x28
 80034e2:	443b      	add	r3, r7
 80034e4:	1a1d      	subs	r5, r3, r0
  tmp_tickstart = HAL_GetTick();
 80034e6:	f7fe fa2b 	bl	8001940 <HAL_GetTick>

  /* Calculate Timeout based on a software loop to avoid blocking issue if Systick is disabled */
  count = tmp_timeout * ((SystemCoreClock * 32U) >> 20U);
 80034ea:	4b26      	ldr	r3, [pc, #152]	; (8003584 <SPI_WaitFlagStateUntilTimeout+0xb4>)
 80034ec:	681e      	ldr	r6, [r3, #0]
 80034ee:	f3c6 36cb 	ubfx	r6, r6, #15, #12
 80034f2:	436e      	muls	r6, r5
  tmp_tickstart = HAL_GetTick();
 80034f4:	4682      	mov	sl, r0
  count = tmp_timeout * ((SystemCoreClock * 32U) >> 20U);
 80034f6:	9601      	str	r6, [sp, #4]

  while ((__HAL_SPI_GET_FLAG(hspi, Flag) ? SET : RESET) != State)
 80034f8:	6822      	ldr	r2, [r4, #0]
 80034fa:	6893      	ldr	r3, [r2, #8]
 80034fc:	ea39 0303 	bics.w	r3, r9, r3
 8003500:	bf0c      	ite	eq
 8003502:	2301      	moveq	r3, #1
 8003504:	2300      	movne	r3, #0
 8003506:	4543      	cmp	r3, r8
 8003508:	d101      	bne.n	800350e <SPI_WaitFlagStateUntilTimeout+0x3e>
      }
      count--;
    }
  }

  return HAL_OK;
 800350a:	2000      	movs	r0, #0
 800350c:	e02e      	b.n	800356c <SPI_WaitFlagStateUntilTimeout+0x9c>
    if (Timeout != HAL_MAX_DELAY)
 800350e:	1c7b      	adds	r3, r7, #1
 8003510:	d0f3      	beq.n	80034fa <SPI_WaitFlagStateUntilTimeout+0x2a>
      if (((HAL_GetTick() - tmp_tickstart) >= tmp_timeout) || (tmp_timeout == 0U))
 8003512:	f7fe fa15 	bl	8001940 <HAL_GetTick>
 8003516:	eba0 000a 	sub.w	r0, r0, sl
 800351a:	42a8      	cmp	r0, r5
 800351c:	d329      	bcc.n	8003572 <SPI_WaitFlagStateUntilTimeout+0xa2>
        __HAL_SPI_DISABLE_IT(hspi, (SPI_IT_TXE | SPI_IT_RXNE | SPI_IT_ERR));
 800351e:	6823      	ldr	r3, [r4, #0]
 8003520:	685a      	ldr	r2, [r3, #4]
 8003522:	f022 02e0 	bic.w	r2, r2, #224	; 0xe0
 8003526:	605a      	str	r2, [r3, #4]
        if ((hspi->Init.Mode == SPI_MODE_MASTER) && ((hspi->Init.Direction == SPI_DIRECTION_1LINE)
 8003528:	6862      	ldr	r2, [r4, #4]
 800352a:	f5b2 7f82 	cmp.w	r2, #260	; 0x104
 800352e:	d10a      	bne.n	8003546 <SPI_WaitFlagStateUntilTimeout+0x76>
 8003530:	68a2      	ldr	r2, [r4, #8]
 8003532:	f5b2 4f00 	cmp.w	r2, #32768	; 0x8000
 8003536:	d002      	beq.n	800353e <SPI_WaitFlagStateUntilTimeout+0x6e>
                                                     || (hspi->Init.Direction == SPI_DIRECTION_2LINES_RXONLY)))
 8003538:	f5b2 6f80 	cmp.w	r2, #1024	; 0x400
 800353c:	d103      	bne.n	8003546 <SPI_WaitFlagStateUntilTimeout+0x76>
          __HAL_SPI_DISABLE(hspi);
 800353e:	681a      	ldr	r2, [r3, #0]
 8003540:	f022 0240 	bic.w	r2, r2, #64	; 0x40
 8003544:	601a      	str	r2, [r3, #0]
        if (hspi->Init.CRCCalculation == SPI_CRCCALCULATION_ENABLE)
 8003546:	6aa2      	ldr	r2, [r4, #40]	; 0x28
 8003548:	f5b2 5f00 	cmp.w	r2, #8192	; 0x2000
 800354c:	d107      	bne.n	800355e <SPI_WaitFlagStateUntilTimeout+0x8e>
          SPI_RESET_CRC(hspi);
 800354e:	681a      	ldr	r2, [r3, #0]
 8003550:	f422 5200 	bic.w	r2, r2, #8192	; 0x2000
 8003554:	601a      	str	r2, [r3, #0]
 8003556:	681a      	ldr	r2, [r3, #0]
 8003558:	f442 5200 	orr.w	r2, r2, #8192	; 0x2000
 800355c:	601a      	str	r2, [r3, #0]
        hspi->State = HAL_SPI_STATE_READY;
 800355e:	2301      	movs	r3, #1
 8003560:	f884 3051 	strb.w	r3, [r4, #81]	; 0x51
        __HAL_UNLOCK(hspi);
 8003564:	2300      	movs	r3, #0
 8003566:	f884 3050 	strb.w	r3, [r4, #80]	; 0x50
        return HAL_TIMEOUT;
 800356a:	2003      	movs	r0, #3
}
 800356c:	b002      	add	sp, #8
 800356e:	e8bd 87f0 	ldmia.w	sp!, {r4, r5, r6, r7, r8, r9, sl, pc}
      if (count == 0U)
 8003572:	9b01      	ldr	r3, [sp, #4]
        tmp_timeout = 0U;
 8003574:	2b00      	cmp	r3, #0
      count--;
 8003576:	9b01      	ldr	r3, [sp, #4]
 8003578:	f103 33ff 	add.w	r3, r3, #4294967295	; 0xffffffff
        tmp_timeout = 0U;
 800357c:	bf08      	it	eq
 800357e:	2500      	moveq	r5, #0
      count--;
 8003580:	9301      	str	r3, [sp, #4]
 8003582:	e7b9      	b.n	80034f8 <SPI_WaitFlagStateUntilTimeout+0x28>
 8003584:	20000078 	.word	0x20000078

08003588 <SPI_EndRxTxTransaction>:
  * @param  Timeout Timeout duration
  * @param  Tickstart tick start value
  * @retval HAL status
  */
static HAL_StatusTypeDef SPI_EndRxTxTransaction(SPI_HandleTypeDef *hspi, uint32_t Timeout, uint32_t Tickstart)
{
 8003588:	b530      	push	{r4, r5, lr}
 800358a:	460b      	mov	r3, r1
  /* Timeout in s */
  __IO uint32_t count = SPI_BSY_FLAG_WORKAROUND_TIMEOUT * (SystemCoreClock / 24U / 1000000U);
 800358c:	4913      	ldr	r1, [pc, #76]	; (80035dc <SPI_EndRxTxTransaction+0x54>)
 800358e:	680d      	ldr	r5, [r1, #0]
 8003590:	4913      	ldr	r1, [pc, #76]	; (80035e0 <SPI_EndRxTxTransaction+0x58>)
 8003592:	fbb5 f5f1 	udiv	r5, r5, r1
 8003596:	f44f 717a 	mov.w	r1, #1000	; 0x3e8
 800359a:	434d      	muls	r5, r1
  /* Erratasheet: BSY bit may stay high at the end of a data transfer in Slave mode */
  if (hspi->Init.Mode == SPI_MODE_MASTER)
 800359c:	6841      	ldr	r1, [r0, #4]
{
 800359e:	b085      	sub	sp, #20
  if (hspi->Init.Mode == SPI_MODE_MASTER)
 80035a0:	f5b1 7f82 	cmp.w	r1, #260	; 0x104
{
 80035a4:	4604      	mov	r4, r0
  __IO uint32_t count = SPI_BSY_FLAG_WORKAROUND_TIMEOUT * (SystemCoreClock / 24U / 1000000U);
 80035a6:	9503      	str	r5, [sp, #12]
  if (hspi->Init.Mode == SPI_MODE_MASTER)
 80035a8:	d10c      	bne.n	80035c4 <SPI_EndRxTxTransaction+0x3c>
  {
    /* Control the BSY flag */
    if (SPI_WaitFlagStateUntilTimeout(hspi, SPI_FLAG_BSY, RESET, Timeout, Tickstart) != HAL_OK)
 80035aa:	9200      	str	r2, [sp, #0]
 80035ac:	2180      	movs	r1, #128	; 0x80
 80035ae:	2200      	movs	r2, #0
 80035b0:	f7ff ff8e 	bl	80034d0 <SPI_WaitFlagStateUntilTimeout>
 80035b4:	b178      	cbz	r0, 80035d6 <SPI_EndRxTxTransaction+0x4e>
    {
      SET_BIT(hspi->ErrorCode, HAL_SPI_ERROR_FLAG);
 80035b6:	6d63      	ldr	r3, [r4, #84]	; 0x54
 80035b8:	f043 0320 	orr.w	r3, r3, #32
 80035bc:	6563      	str	r3, [r4, #84]	; 0x54
      return HAL_TIMEOUT;
 80035be:	2003      	movs	r0, #3
      count--;
    } while (__HAL_SPI_GET_FLAG(hspi, SPI_FLAG_BSY) != RESET);
  }

  return HAL_OK;
}
 80035c0:	b005      	add	sp, #20
 80035c2:	bd30      	pop	{r4, r5, pc}
      if (count == 0U)
 80035c4:	9b03      	ldr	r3, [sp, #12]
 80035c6:	b133      	cbz	r3, 80035d6 <SPI_EndRxTxTransaction+0x4e>
      count--;
 80035c8:	9b03      	ldr	r3, [sp, #12]
 80035ca:	3b01      	subs	r3, #1
 80035cc:	9303      	str	r3, [sp, #12]
    } while (__HAL_SPI_GET_FLAG(hspi, SPI_FLAG_BSY) != RESET);
 80035ce:	6823      	ldr	r3, [r4, #0]
 80035d0:	689b      	ldr	r3, [r3, #8]
 80035d2:	061b      	lsls	r3, r3, #24
 80035d4:	d4f6      	bmi.n	80035c4 <SPI_EndRxTxTransaction+0x3c>
  return HAL_OK;
 80035d6:	2000      	movs	r0, #0
 80035d8:	e7f2      	b.n	80035c0 <SPI_EndRxTxTransaction+0x38>
 80035da:	bf00      	nop
 80035dc:	20000078 	.word	0x20000078
 80035e0:	016e3600 	.word	0x016e3600

080035e4 <HAL_SPI_MspInit>:
}
 80035e4:	4770      	bx	lr

080035e6 <HAL_SPI_Init>:
{
 80035e6:	b538      	push	{r3, r4, r5, lr}
  if (hspi == NULL)
 80035e8:	4604      	mov	r4, r0
 80035ea:	2800      	cmp	r0, #0
 80035ec:	d05a      	beq.n	80036a4 <HAL_SPI_Init+0xbe>
  if (hspi->Init.TIMode == SPI_TIMODE_DISABLE)
 80035ee:	6a43      	ldr	r3, [r0, #36]	; 0x24
 80035f0:	2b00      	cmp	r3, #0
 80035f2:	d153      	bne.n	800369c <HAL_SPI_Init+0xb6>
    if (hspi->Init.Mode == SPI_MODE_MASTER)
 80035f4:	6842      	ldr	r2, [r0, #4]
 80035f6:	f5b2 7f82 	cmp.w	r2, #260	; 0x104
 80035fa:	d000      	beq.n	80035fe <HAL_SPI_Init+0x18>
      hspi->Init.BaudRatePrescaler = SPI_BAUDRATEPRESCALER_2;
 80035fc:	61c3      	str	r3, [r0, #28]
  if (hspi->State == HAL_SPI_STATE_RESET)
 80035fe:	f894 3051 	ldrb.w	r3, [r4, #81]	; 0x51
 8003602:	f003 02ff 	and.w	r2, r3, #255	; 0xff
 8003606:	b923      	cbnz	r3, 8003612 <HAL_SPI_Init+0x2c>
    hspi->Lock = HAL_UNLOCKED;
 8003608:	f884 2050 	strb.w	r2, [r4, #80]	; 0x50
    HAL_SPI_MspInit(hspi);
 800360c:	4620      	mov	r0, r4
 800360e:	f7ff ffe9 	bl	80035e4 <HAL_SPI_MspInit>
  __HAL_SPI_DISABLE(hspi);
 8003612:	6821      	ldr	r1, [r4, #0]
  WRITE_REG(hspi->Instance->CR1, ((hspi->Init.Mode & (SPI_CR1_MSTR | SPI_CR1_SSI)) |
 8003614:	68a5      	ldr	r5, [r4, #8]
 8003616:	69a2      	ldr	r2, [r4, #24]
 8003618:	6aa0      	ldr	r0, [r4, #40]	; 0x28
  hspi->State = HAL_SPI_STATE_BUSY;
 800361a:	2302      	movs	r3, #2
 800361c:	f884 3051 	strb.w	r3, [r4, #81]	; 0x51
  __HAL_SPI_DISABLE(hspi);
 8003620:	680b      	ldr	r3, [r1, #0]
 8003622:	f023 0340 	bic.w	r3, r3, #64	; 0x40
 8003626:	600b      	str	r3, [r1, #0]
  WRITE_REG(hspi->Instance->CR1, ((hspi->Init.Mode & (SPI_CR1_MSTR | SPI_CR1_SSI)) |
 8003628:	6863      	ldr	r3, [r4, #4]
 800362a:	f405 4504 	and.w	r5, r5, #33792	; 0x8400
 800362e:	f403 7382 	and.w	r3, r3, #260	; 0x104
 8003632:	432b      	orrs	r3, r5
 8003634:	68e5      	ldr	r5, [r4, #12]
 8003636:	f405 6500 	and.w	r5, r5, #2048	; 0x800
 800363a:	432b      	orrs	r3, r5
 800363c:	6925      	ldr	r5, [r4, #16]
 800363e:	f005 0502 	and.w	r5, r5, #2
 8003642:	432b      	orrs	r3, r5
 8003644:	6965      	ldr	r5, [r4, #20]
 8003646:	f005 0501 	and.w	r5, r5, #1
 800364a:	432b      	orrs	r3, r5
 800364c:	f402 7500 	and.w	r5, r2, #512	; 0x200
 8003650:	432b      	orrs	r3, r5
 8003652:	69e5      	ldr	r5, [r4, #28]
 8003654:	f005 0538 	and.w	r5, r5, #56	; 0x38
 8003658:	432b      	orrs	r3, r5
 800365a:	6a25      	ldr	r5, [r4, #32]
 800365c:	f005 0580 	and.w	r5, r5, #128	; 0x80
 8003660:	432b      	orrs	r3, r5
 8003662:	f400 5500 	and.w	r5, r0, #8192	; 0x2000
 8003666:	432b      	orrs	r3, r5
 8003668:	600b      	str	r3, [r1, #0]
  WRITE_REG(hspi->Instance->CR2, (((hspi->Init.NSS >> 16U) & SPI_CR2_SSOE) | (hspi->Init.TIMode & SPI_CR2_FRF)));
 800366a:	6a63      	ldr	r3, [r4, #36]	; 0x24
 800366c:	0c12      	lsrs	r2, r2, #16
 800366e:	f003 0310 	and.w	r3, r3, #16
  if (hspi->Init.CRCCalculation == SPI_CRCCALCULATION_ENABLE)
 8003672:	f5b0 5f00 	cmp.w	r0, #8192	; 0x2000
  WRITE_REG(hspi->Instance->CR2, (((hspi->Init.NSS >> 16U) & SPI_CR2_SSOE) | (hspi->Init.TIMode & SPI_CR2_FRF)));
 8003676:	f002 0204 	and.w	r2, r2, #4
 800367a:	ea42 0203 	orr.w	r2, r2, r3
    WRITE_REG(hspi->Instance->CRCPR, (hspi->Init.CRCPolynomial & SPI_CRCPR_CRCPOLY_Msk));
 800367e:	bf08      	it	eq
 8003680:	8da3      	ldrheq	r3, [r4, #44]	; 0x2c
  WRITE_REG(hspi->Instance->CR2, (((hspi->Init.NSS >> 16U) & SPI_CR2_SSOE) | (hspi->Init.TIMode & SPI_CR2_FRF)));
 8003682:	604a      	str	r2, [r1, #4]
    WRITE_REG(hspi->Instance->CRCPR, (hspi->Init.CRCPolynomial & SPI_CRCPR_CRCPOLY_Msk));
 8003684:	bf08      	it	eq
 8003686:	610b      	streq	r3, [r1, #16]
  CLEAR_BIT(hspi->Instance->I2SCFGR, SPI_I2SCFGR_I2SMOD);
 8003688:	69cb      	ldr	r3, [r1, #28]
 800368a:	f423 6300 	bic.w	r3, r3, #2048	; 0x800
 800368e:	61cb      	str	r3, [r1, #28]
  hspi->ErrorCode = HAL_SPI_ERROR_NONE;
 8003690:	2000      	movs	r0, #0
  hspi->State     = HAL_SPI_STATE_READY;
 8003692:	2301      	movs	r3, #1
  hspi->ErrorCode = HAL_SPI_ERROR_NONE;
 8003694:	6560      	str	r0, [r4, #84]	; 0x54
  hspi->State     = HAL_SPI_STATE_READY;
 8003696:	f884 3051 	strb.w	r3, [r4, #81]	; 0x51
}
 800369a:	bd38      	pop	{r3, r4, r5, pc}
    hspi->Init.CLKPolarity = SPI_POLARITY_LOW;
 800369c:	2300      	movs	r3, #0
    hspi->Init.CLKPhase    = SPI_PHASE_1EDGE;
 800369e:	e9c0 3304 	strd	r3, r3, [r0, #16]
 80036a2:	e7ac      	b.n	80035fe <HAL_SPI_Init+0x18>
    return HAL_ERROR;
 80036a4:	2001      	movs	r0, #1
 80036a6:	e7f8      	b.n	800369a <HAL_SPI_Init+0xb4>

080036a8 <HAL_SPI_MspDeInit>:
 80036a8:	4770      	bx	lr

080036aa <HAL_SPI_DeInit>:
{
 80036aa:	b510      	push	{r4, lr}
  if (hspi == NULL)
 80036ac:	4604      	mov	r4, r0
 80036ae:	b180      	cbz	r0, 80036d2 <HAL_SPI_DeInit+0x28>
  __HAL_SPI_DISABLE(hspi);
 80036b0:	6802      	ldr	r2, [r0, #0]
  hspi->State = HAL_SPI_STATE_BUSY;
 80036b2:	2302      	movs	r3, #2
 80036b4:	f880 3051 	strb.w	r3, [r0, #81]	; 0x51
  __HAL_SPI_DISABLE(hspi);
 80036b8:	6813      	ldr	r3, [r2, #0]
 80036ba:	f023 0340 	bic.w	r3, r3, #64	; 0x40
 80036be:	6013      	str	r3, [r2, #0]
  HAL_SPI_MspDeInit(hspi);
 80036c0:	f7ff fff2 	bl	80036a8 <HAL_SPI_MspDeInit>
  hspi->ErrorCode = HAL_SPI_ERROR_NONE;
 80036c4:	2000      	movs	r0, #0
 80036c6:	6560      	str	r0, [r4, #84]	; 0x54
  __HAL_UNLOCK(hspi);
 80036c8:	f884 0050 	strb.w	r0, [r4, #80]	; 0x50
  hspi->State = HAL_SPI_STATE_RESET;
 80036cc:	f884 0051 	strb.w	r0, [r4, #81]	; 0x51
}
 80036d0:	bd10      	pop	{r4, pc}
    return HAL_ERROR;
 80036d2:	2001      	movs	r0, #1
 80036d4:	e7fc      	b.n	80036d0 <HAL_SPI_DeInit+0x26>

080036d6 <HAL_SPI_Transmit>:
{
 80036d6:	e92d 43f7 	stmdb	sp!, {r0, r1, r2, r4, r5, r6, r7, r8, r9, lr}
 80036da:	461f      	mov	r7, r3
  __HAL_LOCK(hspi);
 80036dc:	f890 3050 	ldrb.w	r3, [r0, #80]	; 0x50
 80036e0:	2b01      	cmp	r3, #1
{
 80036e2:	4604      	mov	r4, r0
 80036e4:	460e      	mov	r6, r1
 80036e6:	4690      	mov	r8, r2
  __HAL_LOCK(hspi);
 80036e8:	f000 80b9 	beq.w	800385e <HAL_SPI_Transmit+0x188>
 80036ec:	2301      	movs	r3, #1
 80036ee:	f880 3050 	strb.w	r3, [r0, #80]	; 0x50
  tickstart = HAL_GetTick();
 80036f2:	f7fe f925 	bl	8001940 <HAL_GetTick>
  if (hspi->State != HAL_SPI_STATE_READY)
 80036f6:	f894 3051 	ldrb.w	r3, [r4, #81]	; 0x51
 80036fa:	2b01      	cmp	r3, #1
  tickstart = HAL_GetTick();
 80036fc:	4681      	mov	r9, r0
  if (hspi->State != HAL_SPI_STATE_READY)
 80036fe:	b2d8      	uxtb	r0, r3
 8003700:	f040 80ab 	bne.w	800385a <HAL_SPI_Transmit+0x184>
  if ((pData == NULL) || (Size == 0U))
 8003704:	2e00      	cmp	r6, #0
 8003706:	d077      	beq.n	80037f8 <HAL_SPI_Transmit+0x122>
 8003708:	f1b8 0f00 	cmp.w	r8, #0
 800370c:	d074      	beq.n	80037f8 <HAL_SPI_Transmit+0x122>
  hspi->State       = HAL_SPI_STATE_BUSY_TX;
 800370e:	2303      	movs	r3, #3
 8003710:	f884 3051 	strb.w	r3, [r4, #81]	; 0x51
  hspi->ErrorCode   = HAL_SPI_ERROR_NONE;
 8003714:	2300      	movs	r3, #0
 8003716:	6563      	str	r3, [r4, #84]	; 0x54
  hspi->RxISR       = NULL;
 8003718:	e9c4 3310 	strd	r3, r3, [r4, #64]	; 0x40
  hspi->TxXferCount = Size;
 800371c:	f8a4 8036 	strh.w	r8, [r4, #54]	; 0x36
  hspi->pRxBuffPtr  = (uint8_t *)NULL;
 8003720:	63a3      	str	r3, [r4, #56]	; 0x38
  hspi->RxXferSize  = 0U;
 8003722:	87a3      	strh	r3, [r4, #60]	; 0x3c
  hspi->RxXferCount = 0U;
 8003724:	87e3      	strh	r3, [r4, #62]	; 0x3e
  if (hspi->Init.Direction == SPI_DIRECTION_1LINE)
 8003726:	68a3      	ldr	r3, [r4, #8]
    __HAL_SPI_DISABLE(hspi);
 8003728:	6825      	ldr	r5, [r4, #0]
  hspi->pTxBuffPtr  = (uint8_t *)pData;
 800372a:	6326      	str	r6, [r4, #48]	; 0x30
  if (hspi->Init.Direction == SPI_DIRECTION_1LINE)
 800372c:	f5b3 4f00 	cmp.w	r3, #32768	; 0x8000
  hspi->TxXferSize  = Size;
 8003730:	f8a4 8034 	strh.w	r8, [r4, #52]	; 0x34
  if (hspi->Init.Direction == SPI_DIRECTION_1LINE)
 8003734:	d107      	bne.n	8003746 <HAL_SPI_Transmit+0x70>
    __HAL_SPI_DISABLE(hspi);
 8003736:	682b      	ldr	r3, [r5, #0]
 8003738:	f023 0340 	bic.w	r3, r3, #64	; 0x40
 800373c:	602b      	str	r3, [r5, #0]
    SPI_1LINE_TX(hspi);
 800373e:	682b      	ldr	r3, [r5, #0]
 8003740:	f443 4380 	orr.w	r3, r3, #16384	; 0x4000
 8003744:	602b      	str	r3, [r5, #0]
  if (hspi->Init.CRCCalculation == SPI_CRCCALCULATION_ENABLE)
 8003746:	6aa3      	ldr	r3, [r4, #40]	; 0x28
 8003748:	f5b3 5f00 	cmp.w	r3, #8192	; 0x2000
 800374c:	d107      	bne.n	800375e <HAL_SPI_Transmit+0x88>
    SPI_RESET_CRC(hspi);
 800374e:	682b      	ldr	r3, [r5, #0]
 8003750:	f423 5300 	bic.w	r3, r3, #8192	; 0x2000
 8003754:	602b      	str	r3, [r5, #0]
 8003756:	682b      	ldr	r3, [r5, #0]
 8003758:	f443 5300 	orr.w	r3, r3, #8192	; 0x2000
 800375c:	602b      	str	r3, [r5, #0]
  if ((hspi->Instance->CR1 & SPI_CR1_SPE) != SPI_CR1_SPE)
 800375e:	682b      	ldr	r3, [r5, #0]
  if (hspi->Init.DataSize == SPI_DATASIZE_16BIT)
 8003760:	68e2      	ldr	r2, [r4, #12]
  if ((hspi->Instance->CR1 & SPI_CR1_SPE) != SPI_CR1_SPE)
 8003762:	065b      	lsls	r3, r3, #25
    __HAL_SPI_ENABLE(hspi);
 8003764:	bf5e      	ittt	pl
 8003766:	682b      	ldrpl	r3, [r5, #0]
 8003768:	f043 0340 	orrpl.w	r3, r3, #64	; 0x40
 800376c:	602b      	strpl	r3, [r5, #0]
  if (hspi->Init.DataSize == SPI_DATASIZE_16BIT)
 800376e:	f5b2 6f00 	cmp.w	r2, #2048	; 0x800
    if ((hspi->Init.Mode == SPI_MODE_SLAVE) || (initial_TxXferCount == 0x01U))
 8003772:	6863      	ldr	r3, [r4, #4]
  if (hspi->Init.DataSize == SPI_DATASIZE_16BIT)
 8003774:	d14c      	bne.n	8003810 <HAL_SPI_Transmit+0x13a>
    if ((hspi->Init.Mode == SPI_MODE_SLAVE) || (initial_TxXferCount == 0x01U))
 8003776:	b113      	cbz	r3, 800377e <HAL_SPI_Transmit+0xa8>
 8003778:	f1b8 0f01 	cmp.w	r8, #1
 800377c:	d107      	bne.n	800378e <HAL_SPI_Transmit+0xb8>
      hspi->Instance->DR = *((uint16_t *)hspi->pTxBuffPtr);
 800377e:	f836 3b02 	ldrh.w	r3, [r6], #2
 8003782:	60eb      	str	r3, [r5, #12]
      hspi->pTxBuffPtr += sizeof(uint16_t);
 8003784:	6326      	str	r6, [r4, #48]	; 0x30
        hspi->TxXferCount--;
 8003786:	8ee3      	ldrh	r3, [r4, #54]	; 0x36
 8003788:	3b01      	subs	r3, #1
 800378a:	b29b      	uxth	r3, r3
 800378c:	86e3      	strh	r3, [r4, #54]	; 0x36
    while (hspi->TxXferCount > 0U)
 800378e:	8ee3      	ldrh	r3, [r4, #54]	; 0x36
 8003790:	b29b      	uxth	r3, r3
 8003792:	b9f3      	cbnz	r3, 80037d2 <HAL_SPI_Transmit+0xfc>
  if (hspi->Init.CRCCalculation == SPI_CRCCALCULATION_ENABLE)
 8003794:	6aa3      	ldr	r3, [r4, #40]	; 0x28
 8003796:	f5b3 5f00 	cmp.w	r3, #8192	; 0x2000
 800379a:	d104      	bne.n	80037a6 <HAL_SPI_Transmit+0xd0>
    SET_BIT(hspi->Instance->CR1, SPI_CR1_CRCNEXT);
 800379c:	6822      	ldr	r2, [r4, #0]
 800379e:	6813      	ldr	r3, [r2, #0]
 80037a0:	f443 5380 	orr.w	r3, r3, #4096	; 0x1000
 80037a4:	6013      	str	r3, [r2, #0]
  if (SPI_EndRxTxTransaction(hspi, Timeout, tickstart) != HAL_OK)
 80037a6:	464a      	mov	r2, r9
 80037a8:	4639      	mov	r1, r7
 80037aa:	4620      	mov	r0, r4
 80037ac:	f7ff feec 	bl	8003588 <SPI_EndRxTxTransaction>
 80037b0:	b108      	cbz	r0, 80037b6 <HAL_SPI_Transmit+0xe0>
    hspi->ErrorCode = HAL_SPI_ERROR_FLAG;
 80037b2:	2320      	movs	r3, #32
 80037b4:	6563      	str	r3, [r4, #84]	; 0x54
  if (hspi->Init.Direction == SPI_DIRECTION_2LINES)
 80037b6:	68a3      	ldr	r3, [r4, #8]
 80037b8:	b933      	cbnz	r3, 80037c8 <HAL_SPI_Transmit+0xf2>
    __HAL_SPI_CLEAR_OVRFLAG(hspi);
 80037ba:	9301      	str	r3, [sp, #4]
 80037bc:	6823      	ldr	r3, [r4, #0]
 80037be:	68da      	ldr	r2, [r3, #12]
 80037c0:	9201      	str	r2, [sp, #4]
 80037c2:	689b      	ldr	r3, [r3, #8]
 80037c4:	9301      	str	r3, [sp, #4]
 80037c6:	9b01      	ldr	r3, [sp, #4]
  if (hspi->ErrorCode != HAL_SPI_ERROR_NONE)
 80037c8:	6d60      	ldr	r0, [r4, #84]	; 0x54
    errorcode = HAL_BUSY;
 80037ca:	3800      	subs	r0, #0
 80037cc:	bf18      	it	ne
 80037ce:	2001      	movne	r0, #1
error:
 80037d0:	e012      	b.n	80037f8 <HAL_SPI_Transmit+0x122>
      if (__HAL_SPI_GET_FLAG(hspi, SPI_FLAG_TXE))
 80037d2:	6822      	ldr	r2, [r4, #0]
 80037d4:	6893      	ldr	r3, [r2, #8]
 80037d6:	0798      	lsls	r0, r3, #30
 80037d8:	d505      	bpl.n	80037e6 <HAL_SPI_Transmit+0x110>
        hspi->Instance->DR = *((uint16_t *)hspi->pTxBuffPtr);
 80037da:	6b23      	ldr	r3, [r4, #48]	; 0x30
 80037dc:	f833 1b02 	ldrh.w	r1, [r3], #2
 80037e0:	60d1      	str	r1, [r2, #12]
        hspi->pTxBuffPtr += sizeof(uint16_t);
 80037e2:	6323      	str	r3, [r4, #48]	; 0x30
 80037e4:	e7cf      	b.n	8003786 <HAL_SPI_Transmit+0xb0>
        if ((((HAL_GetTick() - tickstart) >=  Timeout) && (Timeout != HAL_MAX_DELAY)) || (Timeout == 0U))
 80037e6:	f7fe f8ab 	bl	8001940 <HAL_GetTick>
 80037ea:	eba0 0009 	sub.w	r0, r0, r9
 80037ee:	42b8      	cmp	r0, r7
 80037f0:	d30b      	bcc.n	800380a <HAL_SPI_Transmit+0x134>
 80037f2:	1c79      	adds	r1, r7, #1
 80037f4:	d0cb      	beq.n	800378e <HAL_SPI_Transmit+0xb8>
          errorcode = HAL_TIMEOUT;
 80037f6:	2003      	movs	r0, #3
  hspi->State = HAL_SPI_STATE_READY;
 80037f8:	2301      	movs	r3, #1
 80037fa:	f884 3051 	strb.w	r3, [r4, #81]	; 0x51
  __HAL_UNLOCK(hspi);
 80037fe:	2300      	movs	r3, #0
 8003800:	f884 3050 	strb.w	r3, [r4, #80]	; 0x50
}
 8003804:	b003      	add	sp, #12
 8003806:	e8bd 83f0 	ldmia.w	sp!, {r4, r5, r6, r7, r8, r9, pc}
        if ((((HAL_GetTick() - tickstart) >=  Timeout) && (Timeout != HAL_MAX_DELAY)) || (Timeout == 0U))
 800380a:	2f00      	cmp	r7, #0
 800380c:	d1bf      	bne.n	800378e <HAL_SPI_Transmit+0xb8>
 800380e:	e7f2      	b.n	80037f6 <HAL_SPI_Transmit+0x120>
    if ((hspi->Init.Mode == SPI_MODE_SLAVE) || (initial_TxXferCount == 0x01U))
 8003810:	b113      	cbz	r3, 8003818 <HAL_SPI_Transmit+0x142>
 8003812:	f1b8 0f01 	cmp.w	r8, #1
 8003816:	d108      	bne.n	800382a <HAL_SPI_Transmit+0x154>
      *((__IO uint8_t *)&hspi->Instance->DR) = (*hspi->pTxBuffPtr);
 8003818:	7833      	ldrb	r3, [r6, #0]
 800381a:	732b      	strb	r3, [r5, #12]
        hspi->pTxBuffPtr += sizeof(uint8_t);
 800381c:	6b23      	ldr	r3, [r4, #48]	; 0x30
 800381e:	3301      	adds	r3, #1
 8003820:	6323      	str	r3, [r4, #48]	; 0x30
        hspi->TxXferCount--;
 8003822:	8ee3      	ldrh	r3, [r4, #54]	; 0x36
 8003824:	3b01      	subs	r3, #1
 8003826:	b29b      	uxth	r3, r3
 8003828:	86e3      	strh	r3, [r4, #54]	; 0x36
    while (hspi->TxXferCount > 0U)
 800382a:	8ee3      	ldrh	r3, [r4, #54]	; 0x36
 800382c:	b29b      	uxth	r3, r3
 800382e:	2b00      	cmp	r3, #0
 8003830:	d0b0      	beq.n	8003794 <HAL_SPI_Transmit+0xbe>
      if (__HAL_SPI_GET_FLAG(hspi, SPI_FLAG_TXE))
 8003832:	6823      	ldr	r3, [r4, #0]
 8003834:	689a      	ldr	r2, [r3, #8]
 8003836:	0792      	lsls	r2, r2, #30
 8003838:	d503      	bpl.n	8003842 <HAL_SPI_Transmit+0x16c>
        *((__IO uint8_t *)&hspi->Instance->DR) = (*hspi->pTxBuffPtr);
 800383a:	6b22      	ldr	r2, [r4, #48]	; 0x30
 800383c:	7812      	ldrb	r2, [r2, #0]
 800383e:	731a      	strb	r2, [r3, #12]
 8003840:	e7ec      	b.n	800381c <HAL_SPI_Transmit+0x146>
        if ((((HAL_GetTick() - tickstart) >=  Timeout) && (Timeout != HAL_MAX_DELAY)) || (Timeout == 0U))
 8003842:	f7fe f87d 	bl	8001940 <HAL_GetTick>
 8003846:	eba0 0009 	sub.w	r0, r0, r9
 800384a:	42b8      	cmp	r0, r7
 800384c:	d302      	bcc.n	8003854 <HAL_SPI_Transmit+0x17e>
 800384e:	1c7b      	adds	r3, r7, #1
 8003850:	d0eb      	beq.n	800382a <HAL_SPI_Transmit+0x154>
 8003852:	e7d0      	b.n	80037f6 <HAL_SPI_Transmit+0x120>
 8003854:	2f00      	cmp	r7, #0
 8003856:	d1e8      	bne.n	800382a <HAL_SPI_Transmit+0x154>
 8003858:	e7cd      	b.n	80037f6 <HAL_SPI_Transmit+0x120>
    errorcode = HAL_BUSY;
 800385a:	2002      	movs	r0, #2
 800385c:	e7cc      	b.n	80037f8 <HAL_SPI_Transmit+0x122>
  __HAL_LOCK(hspi);
 800385e:	2002      	movs	r0, #2
 8003860:	e7d0      	b.n	8003804 <HAL_SPI_Transmit+0x12e>

08003862 <HAL_SPI_GetState>:
  return hspi->State;
 8003862:	f890 0051 	ldrb.w	r0, [r0, #81]	; 0x51
}
 8003866:	4770      	bx	lr

08003868 <HAL_TIM_Base_Start_IT>:

  /* Check the parameters */
  assert_param(IS_TIM_INSTANCE(htim->Instance));

  /* Check the TIM state */
  if (htim->State != HAL_TIM_STATE_READY)
 8003868:	f890 303d 	ldrb.w	r3, [r0, #61]	; 0x3d
 800386c:	2b01      	cmp	r3, #1
 800386e:	d130      	bne.n	80038d2 <HAL_TIM_Base_Start_IT+0x6a>
  {
    return HAL_ERROR;
  }

  /* Set the TIM state */
  htim->State = HAL_TIM_STATE_BUSY;
 8003870:	2302      	movs	r3, #2
 8003872:	f880 303d 	strb.w	r3, [r0, #61]	; 0x3d

  /* Enable the TIM Update interrupt */
  __HAL_TIM_ENABLE_IT(htim, TIM_IT_UPDATE);
 8003876:	6803      	ldr	r3, [r0, #0]
 8003878:	68da      	ldr	r2, [r3, #12]
 800387a:	f042 0201 	orr.w	r2, r2, #1
 800387e:	60da      	str	r2, [r3, #12]

  /* Enable the Peripheral, except in trigger mode where enable is automatically done with trigger */
  if (IS_TIM_SLAVE_INSTANCE(htim->Instance))
 8003880:	4a15      	ldr	r2, [pc, #84]	; (80038d8 <HAL_TIM_Base_Start_IT+0x70>)
 8003882:	4293      	cmp	r3, r2
 8003884:	d01a      	beq.n	80038bc <HAL_TIM_Base_Start_IT+0x54>
 8003886:	f1b3 4f80 	cmp.w	r3, #1073741824	; 0x40000000
 800388a:	d017      	beq.n	80038bc <HAL_TIM_Base_Start_IT+0x54>
 800388c:	f5a2 427c 	sub.w	r2, r2, #64512	; 0xfc00
 8003890:	4293      	cmp	r3, r2
 8003892:	d013      	beq.n	80038bc <HAL_TIM_Base_Start_IT+0x54>
 8003894:	f502 6280 	add.w	r2, r2, #1024	; 0x400
 8003898:	4293      	cmp	r3, r2
 800389a:	d00f      	beq.n	80038bc <HAL_TIM_Base_Start_IT+0x54>
 800389c:	f502 6280 	add.w	r2, r2, #1024	; 0x400
 80038a0:	4293      	cmp	r3, r2
 80038a2:	d00b      	beq.n	80038bc <HAL_TIM_Base_Start_IT+0x54>
 80038a4:	f502 4278 	add.w	r2, r2, #63488	; 0xf800
 80038a8:	4293      	cmp	r3, r2
 80038aa:	d007      	beq.n	80038bc <HAL_TIM_Base_Start_IT+0x54>
 80038ac:	f502 5270 	add.w	r2, r2, #15360	; 0x3c00
 80038b0:	4293      	cmp	r3, r2
 80038b2:	d003      	beq.n	80038bc <HAL_TIM_Base_Start_IT+0x54>
 80038b4:	f5a2 3294 	sub.w	r2, r2, #75776	; 0x12800
 80038b8:	4293      	cmp	r3, r2
 80038ba:	d104      	bne.n	80038c6 <HAL_TIM_Base_Start_IT+0x5e>
  {
    tmpsmcr = htim->Instance->SMCR & TIM_SMCR_SMS;
 80038bc:	689a      	ldr	r2, [r3, #8]
 80038be:	f002 0207 	and.w	r2, r2, #7
    if (!IS_TIM_SLAVEMODE_TRIGGER_ENABLED(tmpsmcr))
 80038c2:	2a06      	cmp	r2, #6
 80038c4:	d003      	beq.n	80038ce <HAL_TIM_Base_Start_IT+0x66>
      __HAL_TIM_ENABLE(htim);
    }
  }
  else
  {
    __HAL_TIM_ENABLE(htim);
 80038c6:	681a      	ldr	r2, [r3, #0]
 80038c8:	f042 0201 	orr.w	r2, r2, #1
 80038cc:	601a      	str	r2, [r3, #0]
  }

  /* Return function status */
  return HAL_OK;
 80038ce:	2000      	movs	r0, #0
}
 80038d0:	4770      	bx	lr
    return HAL_ERROR;
 80038d2:	2001      	movs	r0, #1
 80038d4:	4770      	bx	lr
 80038d6:	bf00      	nop
 80038d8:	40010000 	.word	0x40010000

080038dc <HAL_TIM_OC_DelayElapsedCallback>:
 80038dc:	4770      	bx	lr

080038de <HAL_TIM_IC_CaptureCallback>:
 80038de:	4770      	bx	lr

080038e0 <HAL_TIM_PWM_PulseFinishedCallback>:
 80038e0:	4770      	bx	lr

080038e2 <HAL_TIM_TriggerCallback>:
 80038e2:	4770      	bx	lr

080038e4 <HAL_TIM_IRQHandler>:
  * @retval None
  */
void HAL_TIM_IRQHandler(TIM_HandleTypeDef *htim)
{
  /* Capture compare 1 event */
  if (__HAL_TIM_GET_FLAG(htim, TIM_FLAG_CC1) != RESET)
 80038e4:	6803      	ldr	r3, [r0, #0]
 80038e6:	691a      	ldr	r2, [r3, #16]
 80038e8:	0791      	lsls	r1, r2, #30
{
 80038ea:	b510      	push	{r4, lr}
 80038ec:	4604      	mov	r4, r0
  if (__HAL_TIM_GET_FLAG(htim, TIM_FLAG_CC1) != RESET)
 80038ee:	d50e      	bpl.n	800390e <HAL_TIM_IRQHandler+0x2a>
  {
    if (__HAL_TIM_GET_IT_SOURCE(htim, TIM_IT_CC1) != RESET)
 80038f0:	68da      	ldr	r2, [r3, #12]
 80038f2:	0792      	lsls	r2, r2, #30
 80038f4:	d50b      	bpl.n	800390e <HAL_TIM_IRQHandler+0x2a>
    {
      {
        __HAL_TIM_CLEAR_IT(htim, TIM_IT_CC1);
 80038f6:	f06f 0202 	mvn.w	r2, #2
 80038fa:	611a      	str	r2, [r3, #16]
        htim->Channel = HAL_TIM_ACTIVE_CHANNEL_1;
 80038fc:	2201      	movs	r2, #1
 80038fe:	7702      	strb	r2, [r0, #28]

        /* Input capture event */
        if ((htim->Instance->CCMR1 & TIM_CCMR1_CC1S) != 0x00U)
 8003900:	699b      	ldr	r3, [r3, #24]
 8003902:	079b      	lsls	r3, r3, #30
 8003904:	d077      	beq.n	80039f6 <HAL_TIM_IRQHandler+0x112>
        {
#if (USE_HAL_TIM_REGISTER_CALLBACKS == 1)
          htim->IC_CaptureCallback(htim);
#else
          HAL_TIM_IC_CaptureCallback(htim);
 8003906:	f7ff ffea 	bl	80038de <HAL_TIM_IC_CaptureCallback>
#else
          HAL_TIM_OC_DelayElapsedCallback(htim);
          HAL_TIM_PWM_PulseFinishedCallback(htim);
#endif /* USE_HAL_TIM_REGISTER_CALLBACKS */
        }
        htim->Channel = HAL_TIM_ACTIVE_CHANNEL_CLEARED;
 800390a:	2300      	movs	r3, #0
 800390c:	7723      	strb	r3, [r4, #28]
      }
    }
  }
  /* Capture compare 2 event */
  if (__HAL_TIM_GET_FLAG(htim, TIM_FLAG_CC2) != RESET)
 800390e:	6823      	ldr	r3, [r4, #0]
 8003910:	691a      	ldr	r2, [r3, #16]
 8003912:	0750      	lsls	r0, r2, #29
 8003914:	d510      	bpl.n	8003938 <HAL_TIM_IRQHandler+0x54>
  {
    if (__HAL_TIM_GET_IT_SOURCE(htim, TIM_IT_CC2) != RESET)
 8003916:	68da      	ldr	r2, [r3, #12]
 8003918:	0751      	lsls	r1, r2, #29
 800391a:	d50d      	bpl.n	8003938 <HAL_TIM_IRQHandler+0x54>
    {
      __HAL_TIM_CLEAR_IT(htim, TIM_IT_CC2);
 800391c:	f06f 0204 	mvn.w	r2, #4
 8003920:	611a      	str	r2, [r3, #16]
      htim->Channel = HAL_TIM_ACTIVE_CHANNEL_2;
 8003922:	2202      	movs	r2, #2
 8003924:	7722      	strb	r2, [r4, #28]
      /* Input capture event */
      if ((htim->Instance->CCMR1 & TIM_CCMR1_CC2S) != 0x00U)
 8003926:	699b      	ldr	r3, [r3, #24]
 8003928:	f413 7f40 	tst.w	r3, #768	; 0x300
      {
#if (USE_HAL_TIM_REGISTER_CALLBACKS == 1)
        htim->IC_CaptureCallback(htim);
#else
        HAL_TIM_IC_CaptureCallback(htim);
 800392c:	4620      	mov	r0, r4
      if ((htim->Instance->CCMR1 & TIM_CCMR1_CC2S) != 0x00U)
 800392e:	d068      	beq.n	8003a02 <HAL_TIM_IRQHandler+0x11e>
        HAL_TIM_IC_CaptureCallback(htim);
 8003930:	f7ff ffd5 	bl	80038de <HAL_TIM_IC_CaptureCallback>
#else
        HAL_TIM_OC_DelayElapsedCallback(htim);
        HAL_TIM_PWM_PulseFinishedCallback(htim);
#endif /* USE_HAL_TIM_REGISTER_CALLBACKS */
      }
      htim->Channel = HAL_TIM_ACTIVE_CHANNEL_CLEARED;
 8003934:	2300      	movs	r3, #0
 8003936:	7723      	strb	r3, [r4, #28]
    }
  }
  /* Capture compare 3 event */
  if (__HAL_TIM_GET_FLAG(htim, TIM_FLAG_CC3) != RESET)
 8003938:	6823      	ldr	r3, [r4, #0]
 800393a:	691a      	ldr	r2, [r3, #16]
 800393c:	0712      	lsls	r2, r2, #28
 800393e:	d50f      	bpl.n	8003960 <HAL_TIM_IRQHandler+0x7c>
  {
    if (__HAL_TIM_GET_IT_SOURCE(htim, TIM_IT_CC3) != RESET)
 8003940:	68da      	ldr	r2, [r3, #12]
 8003942:	0710      	lsls	r0, r2, #28
 8003944:	d50c      	bpl.n	8003960 <HAL_TIM_IRQHandler+0x7c>
    {
      __HAL_TIM_CLEAR_IT(htim, TIM_IT_CC3);
 8003946:	f06f 0208 	mvn.w	r2, #8
 800394a:	611a      	str	r2, [r3, #16]
      htim->Channel = HAL_TIM_ACTIVE_CHANNEL_3;
 800394c:	2204      	movs	r2, #4
 800394e:	7722      	strb	r2, [r4, #28]
      /* Input capture event */
      if ((htim->Instance->CCMR2 & TIM_CCMR2_CC3S) != 0x00U)
 8003950:	69db      	ldr	r3, [r3, #28]
 8003952:	0799      	lsls	r1, r3, #30
      {
#if (USE_HAL_TIM_REGISTER_CALLBACKS == 1)
        htim->IC_CaptureCallback(htim);
#else
        HAL_TIM_IC_CaptureCallback(htim);
 8003954:	4620      	mov	r0, r4
      if ((htim->Instance->CCMR2 & TIM_CCMR2_CC3S) != 0x00U)
 8003956:	d05a      	beq.n	8003a0e <HAL_TIM_IRQHandler+0x12a>
        HAL_TIM_IC_CaptureCallback(htim);
 8003958:	f7ff ffc1 	bl	80038de <HAL_TIM_IC_CaptureCallback>
#else
        HAL_TIM_OC_DelayElapsedCallback(htim);
        HAL_TIM_PWM_PulseFinishedCallback(htim);
#endif /* USE_HAL_TIM_REGISTER_CALLBACKS */
      }
      htim->Channel = HAL_TIM_ACTIVE_CHANNEL_CLEARED;
 800395c:	2300      	movs	r3, #0
 800395e:	7723      	strb	r3, [r4, #28]
    }
  }
  /* Capture compare 4 event */
  if (__HAL_TIM_GET_FLAG(htim, TIM_FLAG_CC4) != RESET)
 8003960:	6823      	ldr	r3, [r4, #0]
 8003962:	691a      	ldr	r2, [r3, #16]
 8003964:	06d2      	lsls	r2, r2, #27
 8003966:	d510      	bpl.n	800398a <HAL_TIM_IRQHandler+0xa6>
  {
    if (__HAL_TIM_GET_IT_SOURCE(htim, TIM_IT_CC4) != RESET)
 8003968:	68da      	ldr	r2, [r3, #12]
 800396a:	06d0      	lsls	r0, r2, #27
 800396c:	d50d      	bpl.n	800398a <HAL_TIM_IRQHandler+0xa6>
    {
      __HAL_TIM_CLEAR_IT(htim, TIM_IT_CC4);
 800396e:	f06f 0210 	mvn.w	r2, #16
 8003972:	611a      	str	r2, [r3, #16]
      htim->Channel = HAL_TIM_ACTIVE_CHANNEL_4;
 8003974:	2208      	movs	r2, #8
 8003976:	7722      	strb	r2, [r4, #28]
      /* Input capture event */
      if ((htim->Instance->CCMR2 & TIM_CCMR2_CC4S) != 0x00U)
 8003978:	69db      	ldr	r3, [r3, #28]
 800397a:	f413 7f40 	tst.w	r3, #768	; 0x300
      {
#if (USE_HAL_TIM_REGISTER_CALLBACKS == 1)
        htim->IC_CaptureCallback(htim);
#else
        HAL_TIM_IC_CaptureCallback(htim);
 800397e:	4620      	mov	r0, r4
      if ((htim->Instance->CCMR2 & TIM_CCMR2_CC4S) != 0x00U)
 8003980:	d04b      	beq.n	8003a1a <HAL_TIM_IRQHandler+0x136>
        HAL_TIM_IC_CaptureCallback(htim);
 8003982:	f7ff ffac 	bl	80038de <HAL_TIM_IC_CaptureCallback>
#else
        HAL_TIM_OC_DelayElapsedCallback(htim);
        HAL_TIM_PWM_PulseFinishedCallback(htim);
#endif /* USE_HAL_TIM_REGISTER_CALLBACKS */
      }
      htim->Channel = HAL_TIM_ACTIVE_CHANNEL_CLEARED;
 8003986:	2300      	movs	r3, #0
 8003988:	7723      	strb	r3, [r4, #28]
    }
  }
  /* TIM Update event */
  if (__HAL_TIM_GET_FLAG(htim, TIM_FLAG_UPDATE) != RESET)
 800398a:	6823      	ldr	r3, [r4, #0]
 800398c:	691a      	ldr	r2, [r3, #16]
 800398e:	07d1      	lsls	r1, r2, #31
 8003990:	d508      	bpl.n	80039a4 <HAL_TIM_IRQHandler+0xc0>
  {
    if (__HAL_TIM_GET_IT_SOURCE(htim, TIM_IT_UPDATE) != RESET)
 8003992:	68da      	ldr	r2, [r3, #12]
 8003994:	07d2      	lsls	r2, r2, #31
 8003996:	d505      	bpl.n	80039a4 <HAL_TIM_IRQHandler+0xc0>
    {
      __HAL_TIM_CLEAR_IT(htim, TIM_IT_UPDATE);
 8003998:	f06f 0201 	mvn.w	r2, #1
 800399c:	611a      	str	r2, [r3, #16]
#if (USE_HAL_TIM_REGISTER_CALLBACKS == 1)
      htim->PeriodElapsedCallback(htim);
#else
      HAL_TIM_PeriodElapsedCallback(htim);
 800399e:	4620      	mov	r0, r4
 80039a0:	f7fc ff08 	bl	80007b4 <HAL_TIM_PeriodElapsedCallback>
#endif /* USE_HAL_TIM_REGISTER_CALLBACKS */
    }
  }
  /* TIM Break input event */
  if (__HAL_TIM_GET_FLAG(htim, TIM_FLAG_BREAK) != RESET)
 80039a4:	6823      	ldr	r3, [r4, #0]
 80039a6:	691a      	ldr	r2, [r3, #16]
 80039a8:	0610      	lsls	r0, r2, #24
 80039aa:	d508      	bpl.n	80039be <HAL_TIM_IRQHandler+0xda>
  {
    if (__HAL_TIM_GET_IT_SOURCE(htim, TIM_IT_BREAK) != RESET)
 80039ac:	68da      	ldr	r2, [r3, #12]
 80039ae:	0611      	lsls	r1, r2, #24
 80039b0:	d505      	bpl.n	80039be <HAL_TIM_IRQHandler+0xda>
    {
      __HAL_TIM_CLEAR_IT(htim, TIM_IT_BREAK);
 80039b2:	f06f 0280 	mvn.w	r2, #128	; 0x80
 80039b6:	611a      	str	r2, [r3, #16]
#if (USE_HAL_TIM_REGISTER_CALLBACKS == 1)
      htim->BreakCallback(htim);
#else
      HAL_TIMEx_BreakCallback(htim);
 80039b8:	4620      	mov	r0, r4
 80039ba:	f000 f8c8 	bl	8003b4e <HAL_TIMEx_BreakCallback>
#endif /* USE_HAL_TIM_REGISTER_CALLBACKS */
    }
  }
  /* TIM Trigger detection event */
  if (__HAL_TIM_GET_FLAG(htim, TIM_FLAG_TRIGGER) != RESET)
 80039be:	6823      	ldr	r3, [r4, #0]
 80039c0:	691a      	ldr	r2, [r3, #16]
 80039c2:	0652      	lsls	r2, r2, #25
 80039c4:	d508      	bpl.n	80039d8 <HAL_TIM_IRQHandler+0xf4>
  {
    if (__HAL_TIM_GET_IT_SOURCE(htim, TIM_IT_TRIGGER) != RESET)
 80039c6:	68da      	ldr	r2, [r3, #12]
 80039c8:	0650      	lsls	r0, r2, #25
 80039ca:	d505      	bpl.n	80039d8 <HAL_TIM_IRQHandler+0xf4>
    {
      __HAL_TIM_CLEAR_IT(htim, TIM_IT_TRIGGER);
 80039cc:	f06f 0240 	mvn.w	r2, #64	; 0x40
 80039d0:	611a      	str	r2, [r3, #16]
#if (USE_HAL_TIM_REGISTER_CALLBACKS == 1)
      htim->TriggerCallback(htim);
#else
      HAL_TIM_TriggerCallback(htim);
 80039d2:	4620      	mov	r0, r4
 80039d4:	f7ff ff85 	bl	80038e2 <HAL_TIM_TriggerCallback>
#endif /* USE_HAL_TIM_REGISTER_CALLBACKS */
    }
  }
  /* TIM commutation event */
  if (__HAL_TIM_GET_FLAG(htim, TIM_FLAG_COM) != RESET)
 80039d8:	6823      	ldr	r3, [r4, #0]
 80039da:	691a      	ldr	r2, [r3, #16]
 80039dc:	0691      	lsls	r1, r2, #26
 80039de:	d522      	bpl.n	8003a26 <HAL_TIM_IRQHandler+0x142>
  {
    if (__HAL_TIM_GET_IT_SOURCE(htim, TIM_IT_COM) != RESET)
 80039e0:	68da      	ldr	r2, [r3, #12]
 80039e2:	0692      	lsls	r2, r2, #26
 80039e4:	d51f      	bpl.n	8003a26 <HAL_TIM_IRQHandler+0x142>
    {
      __HAL_TIM_CLEAR_IT(htim, TIM_FLAG_COM);
 80039e6:	f06f 0220 	mvn.w	r2, #32
#if (USE_HAL_TIM_REGISTER_CALLBACKS == 1)
      htim->CommutationCallback(htim);
#else
      HAL_TIMEx_CommutCallback(htim);
 80039ea:	4620      	mov	r0, r4
      __HAL_TIM_CLEAR_IT(htim, TIM_FLAG_COM);
 80039ec:	611a      	str	r2, [r3, #16]
#endif /* USE_HAL_TIM_REGISTER_CALLBACKS */
    }
  }
}
 80039ee:	e8bd 4010 	ldmia.w	sp!, {r4, lr}
      HAL_TIMEx_CommutCallback(htim);
 80039f2:	f000 b8ab 	b.w	8003b4c <HAL_TIMEx_CommutCallback>
          HAL_TIM_OC_DelayElapsedCallback(htim);
 80039f6:	f7ff ff71 	bl	80038dc <HAL_TIM_OC_DelayElapsedCallback>
          HAL_TIM_PWM_PulseFinishedCallback(htim);
 80039fa:	4620      	mov	r0, r4
 80039fc:	f7ff ff70 	bl	80038e0 <HAL_TIM_PWM_PulseFinishedCallback>
 8003a00:	e783      	b.n	800390a <HAL_TIM_IRQHandler+0x26>
        HAL_TIM_OC_DelayElapsedCallback(htim);
 8003a02:	f7ff ff6b 	bl	80038dc <HAL_TIM_OC_DelayElapsedCallback>
        HAL_TIM_PWM_PulseFinishedCallback(htim);
 8003a06:	4620      	mov	r0, r4
 8003a08:	f7ff ff6a 	bl	80038e0 <HAL_TIM_PWM_PulseFinishedCallback>
 8003a0c:	e792      	b.n	8003934 <HAL_TIM_IRQHandler+0x50>
        HAL_TIM_OC_DelayElapsedCallback(htim);
 8003a0e:	f7ff ff65 	bl	80038dc <HAL_TIM_OC_DelayElapsedCallback>
        HAL_TIM_PWM_PulseFinishedCallback(htim);
 8003a12:	4620      	mov	r0, r4
 8003a14:	f7ff ff64 	bl	80038e0 <HAL_TIM_PWM_PulseFinishedCallback>
 8003a18:	e7a0      	b.n	800395c <HAL_TIM_IRQHandler+0x78>
        HAL_TIM_OC_DelayElapsedCallback(htim);
 8003a1a:	f7ff ff5f 	bl	80038dc <HAL_TIM_OC_DelayElapsedCallback>
        HAL_TIM_PWM_PulseFinishedCallback(htim);
 8003a1e:	4620      	mov	r0, r4
 8003a20:	f7ff ff5e 	bl	80038e0 <HAL_TIM_PWM_PulseFinishedCallback>
 8003a24:	e7af      	b.n	8003986 <HAL_TIM_IRQHandler+0xa2>
}
 8003a26:	bd10      	pop	{r4, pc}

08003a28 <TIM_Base_SetConfig>:
{
  uint32_t tmpcr1;
  tmpcr1 = TIMx->CR1;

  /* Set TIM Time Base Unit parameters ---------------------------------------*/
  if (IS_TIM_COUNTER_MODE_SELECT_INSTANCE(TIMx))
 8003a28:	4a30      	ldr	r2, [pc, #192]	; (8003aec <TIM_Base_SetConfig+0xc4>)
  tmpcr1 = TIMx->CR1;
 8003a2a:	6803      	ldr	r3, [r0, #0]
  if (IS_TIM_COUNTER_MODE_SELECT_INSTANCE(TIMx))
 8003a2c:	4290      	cmp	r0, r2
 8003a2e:	d012      	beq.n	8003a56 <TIM_Base_SetConfig+0x2e>
 8003a30:	f1b0 4f80 	cmp.w	r0, #1073741824	; 0x40000000
 8003a34:	d00f      	beq.n	8003a56 <TIM_Base_SetConfig+0x2e>
 8003a36:	f5a2 427c 	sub.w	r2, r2, #64512	; 0xfc00
 8003a3a:	4290      	cmp	r0, r2
 8003a3c:	d00b      	beq.n	8003a56 <TIM_Base_SetConfig+0x2e>
 8003a3e:	f502 6280 	add.w	r2, r2, #1024	; 0x400
 8003a42:	4290      	cmp	r0, r2
 8003a44:	d007      	beq.n	8003a56 <TIM_Base_SetConfig+0x2e>
 8003a46:	f502 6280 	add.w	r2, r2, #1024	; 0x400
 8003a4a:	4290      	cmp	r0, r2
 8003a4c:	d003      	beq.n	8003a56 <TIM_Base_SetConfig+0x2e>
 8003a4e:	f502 4278 	add.w	r2, r2, #63488	; 0xf800
 8003a52:	4290      	cmp	r0, r2
 8003a54:	d119      	bne.n	8003a8a <TIM_Base_SetConfig+0x62>
  {
    /* Select the Counter Mode */
    tmpcr1 &= ~(TIM_CR1_DIR | TIM_CR1_CMS);
    tmpcr1 |= Structure->CounterMode;
 8003a56:	684a      	ldr	r2, [r1, #4]
    tmpcr1 &= ~(TIM_CR1_DIR | TIM_CR1_CMS);
 8003a58:	f023 0370 	bic.w	r3, r3, #112	; 0x70
    tmpcr1 |= Structure->CounterMode;
 8003a5c:	4313      	orrs	r3, r2
  }

  if (IS_TIM_CLOCK_DIVISION_INSTANCE(TIMx))
 8003a5e:	4a23      	ldr	r2, [pc, #140]	; (8003aec <TIM_Base_SetConfig+0xc4>)
 8003a60:	4290      	cmp	r0, r2
 8003a62:	d029      	beq.n	8003ab8 <TIM_Base_SetConfig+0x90>
 8003a64:	f1b0 4f80 	cmp.w	r0, #1073741824	; 0x40000000
 8003a68:	d026      	beq.n	8003ab8 <TIM_Base_SetConfig+0x90>
 8003a6a:	f5a2 427c 	sub.w	r2, r2, #64512	; 0xfc00
 8003a6e:	4290      	cmp	r0, r2
 8003a70:	d022      	beq.n	8003ab8 <TIM_Base_SetConfig+0x90>
 8003a72:	f502 6280 	add.w	r2, r2, #1024	; 0x400
 8003a76:	4290      	cmp	r0, r2
 8003a78:	d01e      	beq.n	8003ab8 <TIM_Base_SetConfig+0x90>
 8003a7a:	f502 6280 	add.w	r2, r2, #1024	; 0x400
 8003a7e:	4290      	cmp	r0, r2
 8003a80:	d01a      	beq.n	8003ab8 <TIM_Base_SetConfig+0x90>
 8003a82:	f502 4278 	add.w	r2, r2, #63488	; 0xf800
 8003a86:	4290      	cmp	r0, r2
 8003a88:	d016      	beq.n	8003ab8 <TIM_Base_SetConfig+0x90>
 8003a8a:	4a19      	ldr	r2, [pc, #100]	; (8003af0 <TIM_Base_SetConfig+0xc8>)
 8003a8c:	4290      	cmp	r0, r2
 8003a8e:	d013      	beq.n	8003ab8 <TIM_Base_SetConfig+0x90>
 8003a90:	f502 6280 	add.w	r2, r2, #1024	; 0x400
 8003a94:	4290      	cmp	r0, r2
 8003a96:	d00f      	beq.n	8003ab8 <TIM_Base_SetConfig+0x90>
 8003a98:	f502 6280 	add.w	r2, r2, #1024	; 0x400
 8003a9c:	4290      	cmp	r0, r2
 8003a9e:	d00b      	beq.n	8003ab8 <TIM_Base_SetConfig+0x90>
 8003aa0:	f5a2 3298 	sub.w	r2, r2, #77824	; 0x13000
 8003aa4:	4290      	cmp	r0, r2
 8003aa6:	d007      	beq.n	8003ab8 <TIM_Base_SetConfig+0x90>
 8003aa8:	f502 6280 	add.w	r2, r2, #1024	; 0x400
 8003aac:	4290      	cmp	r0, r2
 8003aae:	d003      	beq.n	8003ab8 <TIM_Base_SetConfig+0x90>
 8003ab0:	f502 6280 	add.w	r2, r2, #1024	; 0x400
 8003ab4:	4290      	cmp	r0, r2
 8003ab6:	d103      	bne.n	8003ac0 <TIM_Base_SetConfig+0x98>
  {
    /* Set the clock division */
    tmpcr1 &= ~TIM_CR1_CKD;
    tmpcr1 |= (uint32_t)Structure->ClockDivision;
 8003ab8:	68ca      	ldr	r2, [r1, #12]
    tmpcr1 &= ~TIM_CR1_CKD;
 8003aba:	f423 7340 	bic.w	r3, r3, #768	; 0x300
    tmpcr1 |= (uint32_t)Structure->ClockDivision;
 8003abe:	4313      	orrs	r3, r2
  }

  /* Set the auto-reload preload */
  MODIFY_REG(tmpcr1, TIM_CR1_ARPE, Structure->AutoReloadPreload);
 8003ac0:	694a      	ldr	r2, [r1, #20]
 8003ac2:	f023 0380 	bic.w	r3, r3, #128	; 0x80
 8003ac6:	4313      	orrs	r3, r2

  TIMx->CR1 = tmpcr1;
 8003ac8:	6003      	str	r3, [r0, #0]

  /* Set the Autoreload value */
  TIMx->ARR = (uint32_t)Structure->Period ;
 8003aca:	688b      	ldr	r3, [r1, #8]
 8003acc:	62c3      	str	r3, [r0, #44]	; 0x2c

  /* Set the Prescaler value */
  TIMx->PSC = Structure->Prescaler;
 8003ace:	680b      	ldr	r3, [r1, #0]
 8003ad0:	6283      	str	r3, [r0, #40]	; 0x28

  if (IS_TIM_REPETITION_COUNTER_INSTANCE(TIMx))
 8003ad2:	4b06      	ldr	r3, [pc, #24]	; (8003aec <TIM_Base_SetConfig+0xc4>)
 8003ad4:	4298      	cmp	r0, r3
 8003ad6:	d003      	beq.n	8003ae0 <TIM_Base_SetConfig+0xb8>
 8003ad8:	f503 6380 	add.w	r3, r3, #1024	; 0x400
 8003adc:	4298      	cmp	r0, r3
 8003ade:	d101      	bne.n	8003ae4 <TIM_Base_SetConfig+0xbc>
  {
    /* Set the Repetition Counter value */
    TIMx->RCR = Structure->RepetitionCounter;
 8003ae0:	690b      	ldr	r3, [r1, #16]
 8003ae2:	6303      	str	r3, [r0, #48]	; 0x30
  }

  /* Generate an update event to reload the Prescaler
     and the repetition counter (only for advanced timer) value immediately */
  TIMx->EGR = TIM_EGR_UG;
 8003ae4:	2301      	movs	r3, #1
 8003ae6:	6143      	str	r3, [r0, #20]
}
 8003ae8:	4770      	bx	lr
 8003aea:	bf00      	nop
 8003aec:	40010000 	.word	0x40010000
 8003af0:	40014000 	.word	0x40014000

08003af4 <HAL_TIM_Base_Init>:
{
 8003af4:	b510      	push	{r4, lr}
  if (htim == NULL)
 8003af6:	4604      	mov	r4, r0
 8003af8:	b330      	cbz	r0, 8003b48 <HAL_TIM_Base_Init+0x54>
  if (htim->State == HAL_TIM_STATE_RESET)
 8003afa:	f890 303d 	ldrb.w	r3, [r0, #61]	; 0x3d
 8003afe:	f003 02ff 	and.w	r2, r3, #255	; 0xff
 8003b02:	b91b      	cbnz	r3, 8003b0c <HAL_TIM_Base_Init+0x18>
    htim->Lock = HAL_UNLOCKED;
 8003b04:	f880 203c 	strb.w	r2, [r0, #60]	; 0x3c
    HAL_TIM_Base_MspInit(htim);
 8003b08:	f7fc fdca 	bl	80006a0 <HAL_TIM_Base_MspInit>
  htim->State = HAL_TIM_STATE_BUSY;
 8003b0c:	2302      	movs	r3, #2
  TIM_Base_SetConfig(htim->Instance, &htim->Init);
 8003b0e:	6820      	ldr	r0, [r4, #0]
  htim->State = HAL_TIM_STATE_BUSY;
 8003b10:	f884 303d 	strb.w	r3, [r4, #61]	; 0x3d
  TIM_Base_SetConfig(htim->Instance, &htim->Init);
 8003b14:	1d21      	adds	r1, r4, #4
 8003b16:	f7ff ff87 	bl	8003a28 <TIM_Base_SetConfig>
  htim->DMABurstState = HAL_DMA_BURST_STATE_READY;
 8003b1a:	2301      	movs	r3, #1
 8003b1c:	f884 3046 	strb.w	r3, [r4, #70]	; 0x46
  return HAL_OK;
 8003b20:	2000      	movs	r0, #0
  TIM_CHANNEL_STATE_SET_ALL(htim, HAL_TIM_CHANNEL_STATE_READY);
 8003b22:	f884 303e 	strb.w	r3, [r4, #62]	; 0x3e
 8003b26:	f884 303f 	strb.w	r3, [r4, #63]	; 0x3f
 8003b2a:	f884 3040 	strb.w	r3, [r4, #64]	; 0x40
 8003b2e:	f884 3041 	strb.w	r3, [r4, #65]	; 0x41
  TIM_CHANNEL_N_STATE_SET_ALL(htim, HAL_TIM_CHANNEL_STATE_READY);
 8003b32:	f884 3042 	strb.w	r3, [r4, #66]	; 0x42
 8003b36:	f884 3043 	strb.w	r3, [r4, #67]	; 0x43
 8003b3a:	f884 3044 	strb.w	r3, [r4, #68]	; 0x44
 8003b3e:	f884 3045 	strb.w	r3, [r4, #69]	; 0x45
  htim->State = HAL_TIM_STATE_READY;
 8003b42:	f884 303d 	strb.w	r3, [r4, #61]	; 0x3d
}
 8003b46:	bd10      	pop	{r4, pc}
    return HAL_ERROR;
 8003b48:	2001      	movs	r0, #1
 8003b4a:	e7fc      	b.n	8003b46 <HAL_TIM_Base_Init+0x52>

08003b4c <HAL_TIMEx_CommutCallback>:
 8003b4c:	4770      	bx	lr

08003b4e <HAL_TIMEx_BreakCallback>:
 8003b4e:	4770      	bx	lr

08003b50 <FMC_SDRAM_Init>:
  * @param  Device Pointer to SDRAM device instance
  * @param  Init Pointer to SDRAM Initialization structure
  * @retval HAL status
  */
HAL_StatusTypeDef FMC_SDRAM_Init(FMC_SDRAM_TypeDef *Device, FMC_SDRAM_InitTypeDef *Init)
{
 8003b50:	e92d 43f0 	stmdb	sp!, {r4, r5, r6, r7, r8, r9, lr}
  assert_param(IS_FMC_READPIPE_DELAY(Init->ReadPipeDelay));

  /* Set SDRAM bank configuration parameters */
  if (Init->SDBank == FMC_SDRAM_BANK1)
  {
    MODIFY_REG(Device->SDCR[FMC_SDRAM_BANK1],
 8003b54:	e9d1 4307 	ldrd	r4, r3, [r1, #28]
  if (Init->SDBank == FMC_SDRAM_BANK1)
 8003b58:	680a      	ldr	r2, [r1, #0]
    MODIFY_REG(Device->SDCR[FMC_SDRAM_BANK1],
 8003b5a:	f8d1 9024 	ldr.w	r9, [r1, #36]	; 0x24
 8003b5e:	e9d1 5801 	ldrd	r5, r8, [r1, #4]
 8003b62:	e9d1 ec03 	ldrd	lr, ip, [r1, #12]
 8003b66:	e9d1 7605 	ldrd	r7, r6, [r1, #20]
 8003b6a:	4323      	orrs	r3, r4
  if (Init->SDBank == FMC_SDRAM_BANK1)
 8003b6c:	b9a2      	cbnz	r2, 8003b98 <FMC_SDRAM_Init+0x48>
    MODIFY_REG(Device->SDCR[FMC_SDRAM_BANK1],
 8003b6e:	ea43 0209 	orr.w	r2, r3, r9
 8003b72:	432a      	orrs	r2, r5
 8003b74:	ea42 0308 	orr.w	r3, r2, r8
 8003b78:	6801      	ldr	r1, [r0, #0]
 8003b7a:	ea43 030e 	orr.w	r3, r3, lr
 8003b7e:	ea43 030c 	orr.w	r3, r3, ip
 8003b82:	433b      	orrs	r3, r7
 8003b84:	f421 41ff 	bic.w	r1, r1, #32640	; 0x7f80
 8003b88:	4333      	orrs	r3, r6
 8003b8a:	f021 017f 	bic.w	r1, r1, #127	; 0x7f
 8003b8e:	430b      	orrs	r3, r1
 8003b90:	6003      	str	r3, [r0, #0]
                Init->CASLatency         |
                Init->WriteProtection));
  }

  return HAL_OK;
}
 8003b92:	2000      	movs	r0, #0
 8003b94:	e8bd 83f0 	ldmia.w	sp!, {r4, r5, r6, r7, r8, r9, pc}
    MODIFY_REG(Device->SDCR[FMC_SDRAM_BANK1],
 8003b98:	6802      	ldr	r2, [r0, #0]
 8003b9a:	ea43 0309 	orr.w	r3, r3, r9
 8003b9e:	f422 42f8 	bic.w	r2, r2, #31744	; 0x7c00
 8003ba2:	4313      	orrs	r3, r2
 8003ba4:	6003      	str	r3, [r0, #0]
    MODIFY_REG(Device->SDCR[FMC_SDRAM_BANK2],
 8003ba6:	ea45 0308 	orr.w	r3, r5, r8
 8003baa:	6842      	ldr	r2, [r0, #4]
 8003bac:	ea43 030e 	orr.w	r3, r3, lr
 8003bb0:	ea43 030c 	orr.w	r3, r3, ip
 8003bb4:	433b      	orrs	r3, r7
 8003bb6:	f422 42ff 	bic.w	r2, r2, #32640	; 0x7f80
 8003bba:	4333      	orrs	r3, r6
 8003bbc:	f022 027f 	bic.w	r2, r2, #127	; 0x7f
 8003bc0:	4313      	orrs	r3, r2
 8003bc2:	6043      	str	r3, [r0, #4]
 8003bc4:	e7e5      	b.n	8003b92 <FMC_SDRAM_Init+0x42>

08003bc6 <FMC_SDRAM_Timing_Init>:
  assert_param(IS_FMC_SDRAM_BANK(Bank));

  /* Set SDRAM device timing parameters */
  if (Bank == FMC_SDRAM_BANK1)
  {
    MODIFY_REG(Device->SDTR[FMC_SDRAM_BANK1],
 8003bc6:	68cb      	ldr	r3, [r1, #12]
 8003bc8:	f103 3cff 	add.w	ip, r3, #4294967295	; 0xffffffff
 8003bcc:	694b      	ldr	r3, [r1, #20]
{
 8003bce:	b5f0      	push	{r4, r5, r6, r7, lr}
    MODIFY_REG(Device->SDTR[FMC_SDRAM_BANK1],
 8003bd0:	680f      	ldr	r7, [r1, #0]
 8003bd2:	684c      	ldr	r4, [r1, #4]
 8003bd4:	688e      	ldr	r6, [r1, #8]
 8003bd6:	690d      	ldr	r5, [r1, #16]
 8003bd8:	6989      	ldr	r1, [r1, #24]
 8003bda:	3b01      	subs	r3, #1
 8003bdc:	051b      	lsls	r3, r3, #20
 8003bde:	3c01      	subs	r4, #1
 8003be0:	3e01      	subs	r6, #1
 8003be2:	3d01      	subs	r5, #1
 8003be4:	3901      	subs	r1, #1
 8003be6:	3f01      	subs	r7, #1
 8003be8:	0124      	lsls	r4, r4, #4
 8003bea:	0236      	lsls	r6, r6, #8
 8003bec:	042d      	lsls	r5, r5, #16
 8003bee:	0609      	lsls	r1, r1, #24
 8003bf0:	ea43 330c 	orr.w	r3, r3, ip, lsl #12
  if (Bank == FMC_SDRAM_BANK1)
 8003bf4:	b95a      	cbnz	r2, 8003c0e <FMC_SDRAM_Timing_Init+0x48>
    MODIFY_REG(Device->SDTR[FMC_SDRAM_BANK1],
 8003bf6:	433b      	orrs	r3, r7
 8003bf8:	4323      	orrs	r3, r4
 8003bfa:	6882      	ldr	r2, [r0, #8]
 8003bfc:	4333      	orrs	r3, r6
 8003bfe:	432b      	orrs	r3, r5
 8003c00:	430b      	orrs	r3, r1
 8003c02:	f002 4270 	and.w	r2, r2, #4026531840	; 0xf0000000
 8003c06:	4313      	orrs	r3, r2
 8003c08:	6083      	str	r3, [r0, #8]
                (((Timing->WriteRecoveryTime) - 1U)    << FMC_SDTR1_TWR_Pos)  |
                (((Timing->RCDDelay) - 1U)             << FMC_SDTR1_TRCD_Pos)));
  }

  return HAL_OK;
}
 8003c0a:	2000      	movs	r0, #0
 8003c0c:	bdf0      	pop	{r4, r5, r6, r7, pc}
    MODIFY_REG(Device->SDTR[FMC_SDRAM_BANK1],
 8003c0e:	6882      	ldr	r2, [r0, #8]
 8003c10:	f422 0270 	bic.w	r2, r2, #15728640	; 0xf00000
 8003c14:	f422 4270 	bic.w	r2, r2, #61440	; 0xf000
 8003c18:	431a      	orrs	r2, r3
 8003c1a:	6082      	str	r2, [r0, #8]
    MODIFY_REG(Device->SDTR[FMC_SDRAM_BANK2],
 8003c1c:	ea44 0306 	orr.w	r3, r4, r6
 8003c20:	68c2      	ldr	r2, [r0, #12]
 8003c22:	433b      	orrs	r3, r7
 8003c24:	432b      	orrs	r3, r5
 8003c26:	430b      	orrs	r3, r1
 8003c28:	f002 4270 	and.w	r2, r2, #4026531840	; 0xf0000000
 8003c2c:	4313      	orrs	r3, r2
 8003c2e:	60c3      	str	r3, [r0, #12]
 8003c30:	e7eb      	b.n	8003c0a <FMC_SDRAM_Timing_Init+0x44>

08003c32 <FMC_SDRAM_SendCommand>:
  * @param  Timeout Timeout wait value
  * @retval HAL state
  */
HAL_StatusTypeDef FMC_SDRAM_SendCommand(FMC_SDRAM_TypeDef *Device,
                                        FMC_SDRAM_CommandTypeDef *Command, uint32_t Timeout)
{
 8003c32:	b570      	push	{r4, r5, r6, lr}
 8003c34:	4604      	mov	r4, r0
 8003c36:	4615      	mov	r5, r2
  assert_param(IS_FMC_COMMAND_TARGET(Command->CommandTarget));
  assert_param(IS_FMC_AUTOREFRESH_NUMBER(Command->AutoRefreshNumber));
  assert_param(IS_FMC_MODE_REGISTER(Command->ModeRegisterDefinition));

  /* Set command register */
  MODIFY_REG(Device->SDCMR, (FMC_SDCMR_MODE | FMC_SDCMR_CTB2 | FMC_SDCMR_CTB1 | FMC_SDCMR_NRFS | FMC_SDCMR_MRD),
 8003c38:	6902      	ldr	r2, [r0, #16]
 8003c3a:	e9d1 3000 	ldrd	r3, r0, [r1]
 8003c3e:	4303      	orrs	r3, r0
 8003c40:	68c8      	ldr	r0, [r1, #12]
 8003c42:	0d92      	lsrs	r2, r2, #22
 8003c44:	ea43 2340 	orr.w	r3, r3, r0, lsl #9
 8003c48:	0592      	lsls	r2, r2, #22
 8003c4a:	4313      	orrs	r3, r2
 8003c4c:	688a      	ldr	r2, [r1, #8]
 8003c4e:	3a01      	subs	r2, #1
 8003c50:	ea43 1342 	orr.w	r3, r3, r2, lsl #5
 8003c54:	6123      	str	r3, [r4, #16]
             ((Command->CommandMode) | (Command->CommandTarget) |
              (((Command->AutoRefreshNumber) - 1U) << FMC_SDCMR_NRFS_Pos) |
              ((Command->ModeRegisterDefinition) << FMC_SDCMR_MRD_Pos)));
  /* Get tick */
  tickstart = HAL_GetTick();
 8003c56:	f7fd fe73 	bl	8001940 <HAL_GetTick>
 8003c5a:	4606      	mov	r6, r0

  /* wait until command is send */
  while (HAL_IS_BIT_SET(Device->SDSR, FMC_SDSR_BUSY))
 8003c5c:	69a3      	ldr	r3, [r4, #24]
 8003c5e:	f013 0320 	ands.w	r3, r3, #32
 8003c62:	d101      	bne.n	8003c68 <FMC_SDRAM_SendCommand+0x36>
      {
        return HAL_TIMEOUT;
      }
    }
  }
  return HAL_OK;
 8003c64:	4618      	mov	r0, r3
 8003c66:	e003      	b.n	8003c70 <FMC_SDRAM_SendCommand+0x3e>
    if (Timeout != HAL_MAX_DELAY)
 8003c68:	1c6b      	adds	r3, r5, #1
 8003c6a:	d0f7      	beq.n	8003c5c <FMC_SDRAM_SendCommand+0x2a>
      if ((Timeout == 0U) || ((HAL_GetTick() - tickstart) > Timeout))
 8003c6c:	b90d      	cbnz	r5, 8003c72 <FMC_SDRAM_SendCommand+0x40>
        return HAL_TIMEOUT;
 8003c6e:	2003      	movs	r0, #3
}
 8003c70:	bd70      	pop	{r4, r5, r6, pc}
      if ((Timeout == 0U) || ((HAL_GetTick() - tickstart) > Timeout))
 8003c72:	f7fd fe65 	bl	8001940 <HAL_GetTick>
 8003c76:	1b80      	subs	r0, r0, r6
 8003c78:	42a8      	cmp	r0, r5
 8003c7a:	d9ef      	bls.n	8003c5c <FMC_SDRAM_SendCommand+0x2a>
 8003c7c:	e7f7      	b.n	8003c6e <FMC_SDRAM_SendCommand+0x3c>

08003c7e <FMC_SDRAM_ProgramRefreshRate>:
  /* Check the parameters */
  assert_param(IS_FMC_SDRAM_DEVICE(Device));
  assert_param(IS_FMC_REFRESH_RATE(RefreshRate));

  /* Set the refresh rate in command register */
  MODIFY_REG(Device->SDRTR, FMC_SDRTR_COUNT, (RefreshRate << FMC_SDRTR_COUNT_Pos));
 8003c7e:	6943      	ldr	r3, [r0, #20]
 8003c80:	f423 537f 	bic.w	r3, r3, #16320	; 0x3fc0
 8003c84:	f023 033e 	bic.w	r3, r3, #62	; 0x3e
 8003c88:	ea43 0141 	orr.w	r1, r3, r1, lsl #1
 8003c8c:	6141      	str	r1, [r0, #20]

  return HAL_OK;
}
 8003c8e:	2000      	movs	r0, #0
 8003c90:	4770      	bx	lr
	...

08003c94 <GUI_X_Config>:
*
* Purpose:
*   Called during the initialization process in order to set up the
*   available memory for the GUI.
*/
void GUI_X_Config(void) {
 8003c94:	b508      	push	{r3, lr}
  //
  static U32 aMemory[GUI_NUMBYTES / 4];
  //
  // Assign memory to emWin
  //
  GUI_ALLOC_AssignMemory(aMemory, GUI_NUMBYTES);
 8003c96:	4805      	ldr	r0, [pc, #20]	; (8003cac <GUI_X_Config+0x18>)
 8003c98:	f44f 3116 	mov.w	r1, #153600	; 0x25800
 8003c9c:	f001 fc04 	bl	80054a8 <GUI_ALLOC_AssignMemory>
  //
  // Set default font
  //
  GUI_SetDefaultFont(GUI_FONT_6X8);
}
 8003ca0:	e8bd 4008 	ldmia.w	sp!, {r3, lr}
  GUI_SetDefaultFont(GUI_FONT_6X8);
 8003ca4:	4802      	ldr	r0, [pc, #8]	; (8003cb0 <GUI_X_Config+0x1c>)
 8003ca6:	f001 bf37 	b.w	8005b18 <GUI_SetDefaultFont>
 8003caa:	bf00      	nop
 8003cac:	2000032c 	.word	0x2000032c
 8003cb0:	0800d9cc 	.word	0x0800d9cc

08003cb4 <GUI_X_Init>:
*     GUI_X_Init() is called from GUI_Init is a possibility to init
*     some hardware which needs to be up and running before the GUI.
*     If not required, leave this routine blank.
*/

void GUI_X_Init(void) {}
 8003cb4:	4770      	bx	lr
	...

08003cb8 <DMA2D_MixColors>:
  * @param  BkColor
  * @param  Intens
  * @retval LCD_COLOR
  */
static LCD_COLOR DMA2D_MixColors(LCD_COLOR Color, LCD_COLOR BkColor, U8 Intens) 
{
 8003cb8:	b480      	push	{r7}
 8003cba:	b089      	sub	sp, #36	; 0x24
 8003cbc:	af00      	add	r7, sp, #0
 8003cbe:	60f8      	str	r0, [r7, #12]
 8003cc0:	60b9      	str	r1, [r7, #8]
 8003cc2:	4613      	mov	r3, r2
 8003cc4:	71fb      	strb	r3, [r7, #7]
  uint32_t ColorFG, ColorBG, ColorDst;

  if ((BkColor & 0xFF000000) == 0xFF000000)
 8003cc6:	68bb      	ldr	r3, [r7, #8]
 8003cc8:	f003 437f 	and.w	r3, r3, #4278190080	; 0xff000000
 8003ccc:	f1b3 4f7f 	cmp.w	r3, #4278190080	; 0xff000000
 8003cd0:	d101      	bne.n	8003cd6 <DMA2D_MixColors+0x1e>
  {
    return Color;
 8003cd2:	68fb      	ldr	r3, [r7, #12]
 8003cd4:	e039      	b.n	8003d4a <DMA2D_MixColors+0x92>
  }
  ColorFG = Color   ^ 0xFF000000;
 8003cd6:	68fb      	ldr	r3, [r7, #12]
 8003cd8:	f083 437f 	eor.w	r3, r3, #4278190080	; 0xff000000
 8003cdc:	61fb      	str	r3, [r7, #28]
  ColorBG = BkColor ^ 0xFF000000;
 8003cde:	68bb      	ldr	r3, [r7, #8]
 8003ce0:	f083 437f 	eor.w	r3, r3, #4278190080	; 0xff000000
 8003ce4:	61bb      	str	r3, [r7, #24]
  
  /* Set up mode */
  DMA2D->CR      = 0x00020000UL | (1 << 9);         /* Control Register (Memory to memory with blending of FG and BG and TCIE) */
 8003ce6:	4b1c      	ldr	r3, [pc, #112]	; (8003d58 <DMA2D_MixColors+0xa0>)
 8003ce8:	4a1c      	ldr	r2, [pc, #112]	; (8003d5c <DMA2D_MixColors+0xa4>)
 8003cea:	601a      	str	r2, [r3, #0]
  
  /* Set up pointers */
  DMA2D->FGMAR   = (uint32_t)&ColorFG;                   /* Foreground Memory Address Register */
 8003cec:	4a1a      	ldr	r2, [pc, #104]	; (8003d58 <DMA2D_MixColors+0xa0>)
 8003cee:	f107 031c 	add.w	r3, r7, #28
 8003cf2:	60d3      	str	r3, [r2, #12]
  DMA2D->BGMAR   = (uint32_t)&ColorBG;                   /* Background Memory Address Register */
 8003cf4:	4a18      	ldr	r2, [pc, #96]	; (8003d58 <DMA2D_MixColors+0xa0>)
 8003cf6:	f107 0318 	add.w	r3, r7, #24
 8003cfa:	6153      	str	r3, [r2, #20]
  DMA2D->OMAR    = (uint32_t)&ColorDst;                  /* Output Memory Address Register (Destination address) */
 8003cfc:	4a16      	ldr	r2, [pc, #88]	; (8003d58 <DMA2D_MixColors+0xa0>)
 8003cfe:	f107 0314 	add.w	r3, r7, #20
 8003d02:	63d3      	str	r3, [r2, #60]	; 0x3c
  
  /* Set up pixel format */
  DMA2D->FGPFCCR = LTDC_PIXEL_FORMAT_ARGB8888
                 | (1UL << 16)
                 | ((uint32_t)Intens << 24);
 8003d04:	79fb      	ldrb	r3, [r7, #7]
 8003d06:	061b      	lsls	r3, r3, #24
  DMA2D->FGPFCCR = LTDC_PIXEL_FORMAT_ARGB8888
 8003d08:	4a13      	ldr	r2, [pc, #76]	; (8003d58 <DMA2D_MixColors+0xa0>)
                 | ((uint32_t)Intens << 24);
 8003d0a:	f443 3380 	orr.w	r3, r3, #65536	; 0x10000
  DMA2D->FGPFCCR = LTDC_PIXEL_FORMAT_ARGB8888
 8003d0e:	61d3      	str	r3, [r2, #28]
  DMA2D->BGPFCCR = LTDC_PIXEL_FORMAT_ARGB8888
                 | (0UL << 16)
                 | ((uint32_t)(255 - Intens) << 24);
 8003d10:	79fb      	ldrb	r3, [r7, #7]
 8003d12:	f1c3 03ff 	rsb	r3, r3, #255	; 0xff
  DMA2D->BGPFCCR = LTDC_PIXEL_FORMAT_ARGB8888
 8003d16:	4a10      	ldr	r2, [pc, #64]	; (8003d58 <DMA2D_MixColors+0xa0>)
                 | ((uint32_t)(255 - Intens) << 24);
 8003d18:	061b      	lsls	r3, r3, #24
  DMA2D->BGPFCCR = LTDC_PIXEL_FORMAT_ARGB8888
 8003d1a:	6253      	str	r3, [r2, #36]	; 0x24
  DMA2D->OPFCCR  = LTDC_PIXEL_FORMAT_ARGB8888;
 8003d1c:	4b0e      	ldr	r3, [pc, #56]	; (8003d58 <DMA2D_MixColors+0xa0>)
 8003d1e:	2200      	movs	r2, #0
 8003d20:	635a      	str	r2, [r3, #52]	; 0x34
  
  /* Set up size */
  DMA2D->NLR     = (uint32_t)(1 << 16) | 1;              /* Number of Line Register (Size configuration of area to be transferred) */
 8003d22:	4b0d      	ldr	r3, [pc, #52]	; (8003d58 <DMA2D_MixColors+0xa0>)
 8003d24:	f04f 1201 	mov.w	r2, #65537	; 0x10001
 8003d28:	645a      	str	r2, [r3, #68]	; 0x44
  
  /* Execute operation */
  DMA2D->CR     |= DMA2D_CR_START;                               /* Control Register (Start operation) */
 8003d2a:	4b0b      	ldr	r3, [pc, #44]	; (8003d58 <DMA2D_MixColors+0xa0>)
 8003d2c:	681b      	ldr	r3, [r3, #0]
 8003d2e:	4a0a      	ldr	r2, [pc, #40]	; (8003d58 <DMA2D_MixColors+0xa0>)
 8003d30:	f043 0301 	orr.w	r3, r3, #1
 8003d34:	6013      	str	r3, [r2, #0]
  
  /* Wait until transfer is done */
  while (DMA2D->CR & DMA2D_CR_START) 
 8003d36:	bf00      	nop
 8003d38:	4b07      	ldr	r3, [pc, #28]	; (8003d58 <DMA2D_MixColors+0xa0>)
 8003d3a:	681b      	ldr	r3, [r3, #0]
 8003d3c:	f003 0301 	and.w	r3, r3, #1
 8003d40:	2b00      	cmp	r3, #0
 8003d42:	d1f9      	bne.n	8003d38 <DMA2D_MixColors+0x80>
  {
  }

  return (ColorDst ^ 0xFF000000);
 8003d44:	697b      	ldr	r3, [r7, #20]
 8003d46:	f083 437f 	eor.w	r3, r3, #4278190080	; 0xff000000
}
 8003d4a:	4618      	mov	r0, r3
 8003d4c:	3724      	adds	r7, #36	; 0x24
 8003d4e:	46bd      	mov	sp, r7
 8003d50:	f85d 7b04 	ldr.w	r7, [sp], #4
 8003d54:	4770      	bx	lr
 8003d56:	bf00      	nop
 8003d58:	4002b000 	.word	0x4002b000
 8003d5c:	00020200 	.word	0x00020200

08003d60 <DMA2D_ConvertColor>:
  * @param  PixelFormatDst
  * @param  NumItems
  * @retval None
  */
static void DMA2D_ConvertColor(void * pSrc, void * pDst,  uint32_t PixelFormatSrc, uint32_t PixelFormatDst, uint32_t NumItems)
{
 8003d60:	b480      	push	{r7}
 8003d62:	b085      	sub	sp, #20
 8003d64:	af00      	add	r7, sp, #0
 8003d66:	60f8      	str	r0, [r7, #12]
 8003d68:	60b9      	str	r1, [r7, #8]
 8003d6a:	607a      	str	r2, [r7, #4]
 8003d6c:	603b      	str	r3, [r7, #0]
  /* Set up mode */
  
  DMA2D->CR      = 0x00010000UL | (1 << 9);         /* Control Register (Memory to memory with pixel format conversion and TCIE) */
 8003d6e:	4b18      	ldr	r3, [pc, #96]	; (8003dd0 <DMA2D_ConvertColor+0x70>)
 8003d70:	f44f 3281 	mov.w	r2, #66048	; 0x10200
 8003d74:	601a      	str	r2, [r3, #0]
  
  /* Set up pointers */
  DMA2D->FGMAR   = (uint32_t)pSrc;                       /* Foreground Memory Address Register (Source address) */
 8003d76:	4a16      	ldr	r2, [pc, #88]	; (8003dd0 <DMA2D_ConvertColor+0x70>)
 8003d78:	68fb      	ldr	r3, [r7, #12]
 8003d7a:	60d3      	str	r3, [r2, #12]
  DMA2D->OMAR    = (uint32_t)pDst;                       /* Output Memory Address Register (Destination address) */
 8003d7c:	4a14      	ldr	r2, [pc, #80]	; (8003dd0 <DMA2D_ConvertColor+0x70>)
 8003d7e:	68bb      	ldr	r3, [r7, #8]
 8003d80:	63d3      	str	r3, [r2, #60]	; 0x3c
  
  /* Set up offsets */
  DMA2D->FGOR    = 0;                               /* Foreground Offset Register (Source line offset) */
 8003d82:	4b13      	ldr	r3, [pc, #76]	; (8003dd0 <DMA2D_ConvertColor+0x70>)
 8003d84:	2200      	movs	r2, #0
 8003d86:	611a      	str	r2, [r3, #16]
  DMA2D->OOR     = 0;                               /* Output Offset Register (Destination line offset) */
 8003d88:	4b11      	ldr	r3, [pc, #68]	; (8003dd0 <DMA2D_ConvertColor+0x70>)
 8003d8a:	2200      	movs	r2, #0
 8003d8c:	641a      	str	r2, [r3, #64]	; 0x40
  
  /* Set up pixel format */
  DMA2D->FGPFCCR = PixelFormatSrc;                  /* Foreground PFC Control Register (Defines the input pixel format) */
 8003d8e:	4a10      	ldr	r2, [pc, #64]	; (8003dd0 <DMA2D_ConvertColor+0x70>)
 8003d90:	687b      	ldr	r3, [r7, #4]
 8003d92:	61d3      	str	r3, [r2, #28]
  DMA2D->OPFCCR  = PixelFormatDst;                  /* Output PFC Control Register (Defines the output pixel format) */
 8003d94:	4a0e      	ldr	r2, [pc, #56]	; (8003dd0 <DMA2D_ConvertColor+0x70>)
 8003d96:	683b      	ldr	r3, [r7, #0]
 8003d98:	6353      	str	r3, [r2, #52]	; 0x34
  
  /* Set up size */
  DMA2D->NLR     = (uint32_t)(NumItems << 16) | 1;       /* Number of Line Register (Size configuration of area to be transferred) */
 8003d9a:	69bb      	ldr	r3, [r7, #24]
 8003d9c:	041b      	lsls	r3, r3, #16
 8003d9e:	4a0c      	ldr	r2, [pc, #48]	; (8003dd0 <DMA2D_ConvertColor+0x70>)
 8003da0:	f043 0301 	orr.w	r3, r3, #1
 8003da4:	6453      	str	r3, [r2, #68]	; 0x44
  
  /* Execute operation */
  DMA2D->CR     |= DMA2D_CR_START;  
 8003da6:	4b0a      	ldr	r3, [pc, #40]	; (8003dd0 <DMA2D_ConvertColor+0x70>)
 8003da8:	681b      	ldr	r3, [r3, #0]
 8003daa:	4a09      	ldr	r2, [pc, #36]	; (8003dd0 <DMA2D_ConvertColor+0x70>)
 8003dac:	f043 0301 	orr.w	r3, r3, #1
 8003db0:	6013      	str	r3, [r2, #0]
    
  while (DMA2D->CR & DMA2D_CR_START) 
 8003db2:	bf00      	nop
 8003db4:	4b06      	ldr	r3, [pc, #24]	; (8003dd0 <DMA2D_ConvertColor+0x70>)
 8003db6:	681b      	ldr	r3, [r3, #0]
 8003db8:	f003 0301 	and.w	r3, r3, #1
 8003dbc:	2b00      	cmp	r3, #0
 8003dbe:	d1f9      	bne.n	8003db4 <DMA2D_ConvertColor+0x54>
  {
  }
}
 8003dc0:	bf00      	nop
 8003dc2:	bf00      	nop
 8003dc4:	3714      	adds	r7, #20
 8003dc6:	46bd      	mov	sp, r7
 8003dc8:	f85d 7b04 	ldr.w	r7, [sp], #4
 8003dcc:	4770      	bx	lr
 8003dce:	bf00      	nop
 8003dd0:	4002b000 	.word	0x4002b000

08003dd4 <_LCD_GetpPalConvTable>:
  * @param  pBitmap
  * @param  LayerIndex
  * @retval LCD_PIXELINDEX
  */
static LCD_PIXELINDEX * _LCD_GetpPalConvTable(const LCD_LOGPALETTE GUI_UNI_PTR * pLogPal, const GUI_BITMAP GUI_UNI_PTR * pBitmap, int LayerIndex)
{
 8003dd4:	b580      	push	{r7, lr}
 8003dd6:	b086      	sub	sp, #24
 8003dd8:	af00      	add	r7, sp, #0
 8003dda:	60f8      	str	r0, [r7, #12]
 8003ddc:	60b9      	str	r1, [r7, #8]
 8003dde:	607a      	str	r2, [r7, #4]
  void (* pFunc)(void);
  int32_t DoDefault = 0;
 8003de0:	2300      	movs	r3, #0
 8003de2:	617b      	str	r3, [r7, #20]
  
  /* Check if we have a non transparent device independent bitmap */
  if (pBitmap->BitsPerPixel == 8) 
 8003de4:	68bb      	ldr	r3, [r7, #8]
 8003de6:	88db      	ldrh	r3, [r3, #6]
 8003de8:	2b08      	cmp	r3, #8
 8003dea:	d119      	bne.n	8003e20 <_LCD_GetpPalConvTable+0x4c>
  {
    pFunc = LCD_GetDevFunc(LayerIndex, LCD_DEVFUNC_DRAWBMP_8BPP);
 8003dec:	2125      	movs	r1, #37	; 0x25
 8003dee:	6878      	ldr	r0, [r7, #4]
 8003df0:	f003 f83e 	bl	8006e70 <LCD_GetDevFunc>
 8003df4:	6138      	str	r0, [r7, #16]
    if (pFunc) 
 8003df6:	693b      	ldr	r3, [r7, #16]
 8003df8:	2b00      	cmp	r3, #0
 8003dfa:	d00e      	beq.n	8003e1a <_LCD_GetpPalConvTable+0x46>
    {
      if (pBitmap->pPal) 
 8003dfc:	68bb      	ldr	r3, [r7, #8]
 8003dfe:	68db      	ldr	r3, [r3, #12]
 8003e00:	2b00      	cmp	r3, #0
 8003e02:	d007      	beq.n	8003e14 <_LCD_GetpPalConvTable+0x40>
      {
        if (pBitmap->pPal->HasTrans) 
 8003e04:	68bb      	ldr	r3, [r7, #8]
 8003e06:	68db      	ldr	r3, [r3, #12]
 8003e08:	791b      	ldrb	r3, [r3, #4]
 8003e0a:	2b00      	cmp	r3, #0
 8003e0c:	d00a      	beq.n	8003e24 <_LCD_GetpPalConvTable+0x50>
        {
          DoDefault = 1;
 8003e0e:	2301      	movs	r3, #1
 8003e10:	617b      	str	r3, [r7, #20]
 8003e12:	e007      	b.n	8003e24 <_LCD_GetpPalConvTable+0x50>
        }
      } 
      else 
      {
        DoDefault = 1;
 8003e14:	2301      	movs	r3, #1
 8003e16:	617b      	str	r3, [r7, #20]
 8003e18:	e004      	b.n	8003e24 <_LCD_GetpPalConvTable+0x50>
      }
    } 
    else 
    {
      DoDefault = 1;
 8003e1a:	2301      	movs	r3, #1
 8003e1c:	617b      	str	r3, [r7, #20]
 8003e1e:	e001      	b.n	8003e24 <_LCD_GetpPalConvTable+0x50>
    }
  } 
  else 
  {
    DoDefault = 1;
 8003e20:	2301      	movs	r3, #1
 8003e22:	617b      	str	r3, [r7, #20]
  }
  
  /* Default palette management for other cases */
  if (DoDefault) 
 8003e24:	697b      	ldr	r3, [r7, #20]
 8003e26:	2b00      	cmp	r3, #0
 8003e28:	d004      	beq.n	8003e34 <_LCD_GetpPalConvTable+0x60>
  {
    
    /* Return a pointer to the index values to be used by the controller */
    return LCD_GetpPalConvTable(pLogPal);
 8003e2a:	68f8      	ldr	r0, [r7, #12]
 8003e2c:	f002 ff70 	bl	8006d10 <LCD_GetpPalConvTable>
 8003e30:	4603      	mov	r3, r0
 8003e32:	e00e      	b.n	8003e52 <_LCD_GetpPalConvTable+0x7e>
  }
  
  /* Convert palette colors from ARGB to ABGR */
  InvertAlpha_SwapRB((U32 *)pLogPal->pPalEntries, aBufferDMA2D, pLogPal->NumEntries);
 8003e34:	68fb      	ldr	r3, [r7, #12]
 8003e36:	6898      	ldr	r0, [r3, #8]
 8003e38:	68fb      	ldr	r3, [r7, #12]
 8003e3a:	681b      	ldr	r3, [r3, #0]
 8003e3c:	461a      	mov	r2, r3
 8003e3e:	4907      	ldr	r1, [pc, #28]	; (8003e5c <_LCD_GetpPalConvTable+0x88>)
 8003e40:	f000 fa18 	bl	8004274 <InvertAlpha_SwapRB>
  
  /* Load LUT using DMA2D */
  DMA2D_LoadLUT(aBufferDMA2D, pLogPal->NumEntries);
 8003e44:	68fb      	ldr	r3, [r7, #12]
 8003e46:	681b      	ldr	r3, [r3, #0]
 8003e48:	4619      	mov	r1, r3
 8003e4a:	4804      	ldr	r0, [pc, #16]	; (8003e5c <_LCD_GetpPalConvTable+0x88>)
 8003e4c:	f000 fa02 	bl	8004254 <DMA2D_LoadLUT>
  
  /* Return something not NULL */
  return aBufferDMA2D;
 8003e50:	4b02      	ldr	r3, [pc, #8]	; (8003e5c <_LCD_GetpPalConvTable+0x88>)
}
 8003e52:	4618      	mov	r0, r3
 8003e54:	3718      	adds	r7, #24
 8003e56:	46bd      	mov	sp, r7
 8003e58:	bd80      	pop	{r7, pc}
 8003e5a:	bf00      	nop
 8003e5c:	20027930 	.word	0x20027930

08003e60 <DMA2D_MixColorsBulk>:
  * @param  Intens
  * @param  NumItems
  * @retval None
  */
static void DMA2D_MixColorsBulk(LCD_COLOR * pColorFG, LCD_COLOR * pColorBG, LCD_COLOR * pColorDst, U8 Intens, uint32_t NumItems)
{
 8003e60:	b480      	push	{r7}
 8003e62:	b085      	sub	sp, #20
 8003e64:	af00      	add	r7, sp, #0
 8003e66:	60f8      	str	r0, [r7, #12]
 8003e68:	60b9      	str	r1, [r7, #8]
 8003e6a:	607a      	str	r2, [r7, #4]
 8003e6c:	70fb      	strb	r3, [r7, #3]
  /* Set up mode */
  DMA2D->CR      = 0x00020000UL | (1 << 9);         /* Control Register (Memory to memory with blending of FG and BG and TCIE) */
 8003e6e:	4b1a      	ldr	r3, [pc, #104]	; (8003ed8 <DMA2D_MixColorsBulk+0x78>)
 8003e70:	4a1a      	ldr	r2, [pc, #104]	; (8003edc <DMA2D_MixColorsBulk+0x7c>)
 8003e72:	601a      	str	r2, [r3, #0]
  
  /* Set up pointers */
  DMA2D->FGMAR   = (uint32_t)pColorFG;                   /* Foreground Memory Address Register */
 8003e74:	4a18      	ldr	r2, [pc, #96]	; (8003ed8 <DMA2D_MixColorsBulk+0x78>)
 8003e76:	68fb      	ldr	r3, [r7, #12]
 8003e78:	60d3      	str	r3, [r2, #12]
  DMA2D->BGMAR   = (uint32_t)pColorBG;                   /* Background Memory Address Register */
 8003e7a:	4a17      	ldr	r2, [pc, #92]	; (8003ed8 <DMA2D_MixColorsBulk+0x78>)
 8003e7c:	68bb      	ldr	r3, [r7, #8]
 8003e7e:	6153      	str	r3, [r2, #20]
  DMA2D->OMAR    = (uint32_t)pColorDst;                  /* Output Memory Address Register (Destination address) */
 8003e80:	4a15      	ldr	r2, [pc, #84]	; (8003ed8 <DMA2D_MixColorsBulk+0x78>)
 8003e82:	687b      	ldr	r3, [r7, #4]
 8003e84:	63d3      	str	r3, [r2, #60]	; 0x3c
  
  /* Set up pixel format */
  DMA2D->FGPFCCR = LTDC_PIXEL_FORMAT_ARGB8888
                 | (1UL << 16)
                 | ((uint32_t)Intens << 24);
 8003e86:	78fb      	ldrb	r3, [r7, #3]
 8003e88:	061b      	lsls	r3, r3, #24
  DMA2D->FGPFCCR = LTDC_PIXEL_FORMAT_ARGB8888
 8003e8a:	4a13      	ldr	r2, [pc, #76]	; (8003ed8 <DMA2D_MixColorsBulk+0x78>)
                 | ((uint32_t)Intens << 24);
 8003e8c:	f443 3380 	orr.w	r3, r3, #65536	; 0x10000
  DMA2D->FGPFCCR = LTDC_PIXEL_FORMAT_ARGB8888
 8003e90:	61d3      	str	r3, [r2, #28]
  DMA2D->BGPFCCR = LTDC_PIXEL_FORMAT_ARGB8888
                 | (0UL << 16)
                 | ((uint32_t)(255 - Intens) << 24);
 8003e92:	78fb      	ldrb	r3, [r7, #3]
 8003e94:	f1c3 03ff 	rsb	r3, r3, #255	; 0xff
  DMA2D->BGPFCCR = LTDC_PIXEL_FORMAT_ARGB8888
 8003e98:	4a0f      	ldr	r2, [pc, #60]	; (8003ed8 <DMA2D_MixColorsBulk+0x78>)
                 | ((uint32_t)(255 - Intens) << 24);
 8003e9a:	061b      	lsls	r3, r3, #24
  DMA2D->BGPFCCR = LTDC_PIXEL_FORMAT_ARGB8888
 8003e9c:	6253      	str	r3, [r2, #36]	; 0x24
  DMA2D->OPFCCR  = LTDC_PIXEL_FORMAT_ARGB8888;
 8003e9e:	4b0e      	ldr	r3, [pc, #56]	; (8003ed8 <DMA2D_MixColorsBulk+0x78>)
 8003ea0:	2200      	movs	r2, #0
 8003ea2:	635a      	str	r2, [r3, #52]	; 0x34
  
  /* Set up size */
  DMA2D->NLR     = (uint32_t)(NumItems << 16) | 1;              /* Number of Line Register (Size configuration of area to be transferred) */
 8003ea4:	69bb      	ldr	r3, [r7, #24]
 8003ea6:	041b      	lsls	r3, r3, #16
 8003ea8:	4a0b      	ldr	r2, [pc, #44]	; (8003ed8 <DMA2D_MixColorsBulk+0x78>)
 8003eaa:	f043 0301 	orr.w	r3, r3, #1
 8003eae:	6453      	str	r3, [r2, #68]	; 0x44
  
  /* Execute operation */
  DMA2D->CR     |= DMA2D_CR_START;  
 8003eb0:	4b09      	ldr	r3, [pc, #36]	; (8003ed8 <DMA2D_MixColorsBulk+0x78>)
 8003eb2:	681b      	ldr	r3, [r3, #0]
 8003eb4:	4a08      	ldr	r2, [pc, #32]	; (8003ed8 <DMA2D_MixColorsBulk+0x78>)
 8003eb6:	f043 0301 	orr.w	r3, r3, #1
 8003eba:	6013      	str	r3, [r2, #0]
    
  while (DMA2D->CR & DMA2D_CR_START)
 8003ebc:	bf00      	nop
 8003ebe:	4b06      	ldr	r3, [pc, #24]	; (8003ed8 <DMA2D_MixColorsBulk+0x78>)
 8003ec0:	681b      	ldr	r3, [r3, #0]
 8003ec2:	f003 0301 	and.w	r3, r3, #1
 8003ec6:	2b00      	cmp	r3, #0
 8003ec8:	d1f9      	bne.n	8003ebe <DMA2D_MixColorsBulk+0x5e>
  {
  }
}
 8003eca:	bf00      	nop
 8003ecc:	bf00      	nop
 8003ece:	3714      	adds	r7, #20
 8003ed0:	46bd      	mov	sp, r7
 8003ed2:	f85d 7b04 	ldr.w	r7, [sp], #4
 8003ed6:	4770      	bx	lr
 8003ed8:	4002b000 	.word	0x4002b000
 8003edc:	00020200 	.word	0x00020200

08003ee0 <DMA2D_AlphaBlending>:
  * @param  pColorDst
  * @param  NumItems
  * @retval None
  */
static void DMA2D_AlphaBlending(LCD_COLOR * pColorFG, LCD_COLOR * pColorBG, LCD_COLOR * pColorDst, U32 NumItems)
{
 8003ee0:	b580      	push	{r7, lr}
 8003ee2:	b084      	sub	sp, #16
 8003ee4:	af00      	add	r7, sp, #0
 8003ee6:	60f8      	str	r0, [r7, #12]
 8003ee8:	60b9      	str	r1, [r7, #8]
 8003eea:	607a      	str	r2, [r7, #4]
 8003eec:	603b      	str	r3, [r7, #0]
  /* Invert alpha values */
  InvertAlpha(pColorFG, aBuffer_FG, NumItems);
 8003eee:	683a      	ldr	r2, [r7, #0]
 8003ef0:	490b      	ldr	r1, [pc, #44]	; (8003f20 <DMA2D_AlphaBlending+0x40>)
 8003ef2:	68f8      	ldr	r0, [r7, #12]
 8003ef4:	f000 f9d5 	bl	80042a2 <InvertAlpha>
  InvertAlpha(pColorBG, aBuffer_BG, NumItems);
 8003ef8:	683a      	ldr	r2, [r7, #0]
 8003efa:	490a      	ldr	r1, [pc, #40]	; (8003f24 <DMA2D_AlphaBlending+0x44>)
 8003efc:	68b8      	ldr	r0, [r7, #8]
 8003efe:	f000 f9d0 	bl	80042a2 <InvertAlpha>
  
  /* Use DMA2D for mixing */
  DMA2D_AlphaBlendingBulk(aBuffer_FG, aBuffer_BG, aBufferDMA2D, NumItems);
 8003f02:	683b      	ldr	r3, [r7, #0]
 8003f04:	4a08      	ldr	r2, [pc, #32]	; (8003f28 <DMA2D_AlphaBlending+0x48>)
 8003f06:	4907      	ldr	r1, [pc, #28]	; (8003f24 <DMA2D_AlphaBlending+0x44>)
 8003f08:	4805      	ldr	r0, [pc, #20]	; (8003f20 <DMA2D_AlphaBlending+0x40>)
 8003f0a:	f000 f9d7 	bl	80042bc <DMA2D_AlphaBlendingBulk>
  
  /* Invert alpha values */
  InvertAlpha(aBufferDMA2D, pColorDst, NumItems);
 8003f0e:	683a      	ldr	r2, [r7, #0]
 8003f10:	6879      	ldr	r1, [r7, #4]
 8003f12:	4805      	ldr	r0, [pc, #20]	; (8003f28 <DMA2D_AlphaBlending+0x48>)
 8003f14:	f000 f9c5 	bl	80042a2 <InvertAlpha>
}
 8003f18:	bf00      	nop
 8003f1a:	3710      	adds	r7, #16
 8003f1c:	46bd      	mov	sp, r7
 8003f1e:	bd80      	pop	{r7, pc}
 8003f20:	20026a30 	.word	0x20026a30
 8003f24:	20025b30 	.word	0x20025b30
 8003f28:	20027930 	.word	0x20027930

08003f2c <DMA2D_Index2ColorBulk>:
  * @param  SizeOfIndex
  * @param  PixelFormat
  * @retval None
  */
static void DMA2D_Index2ColorBulk(void * pIndex, LCD_COLOR * pColor, uint32_t NumItems, U8 SizeOfIndex, uint32_t PixelFormat)
{
 8003f2c:	b580      	push	{r7, lr}
 8003f2e:	b086      	sub	sp, #24
 8003f30:	af02      	add	r7, sp, #8
 8003f32:	60f8      	str	r0, [r7, #12]
 8003f34:	60b9      	str	r1, [r7, #8]
 8003f36:	607a      	str	r2, [r7, #4]
 8003f38:	70fb      	strb	r3, [r7, #3]
  /* Use DMA2D for the conversion */
  DMA2D_ConvertColor(pIndex, aBufferDMA2D, PixelFormat, LTDC_PIXEL_FORMAT_ARGB8888, NumItems);
 8003f3a:	687b      	ldr	r3, [r7, #4]
 8003f3c:	9300      	str	r3, [sp, #0]
 8003f3e:	2300      	movs	r3, #0
 8003f40:	69ba      	ldr	r2, [r7, #24]
 8003f42:	4906      	ldr	r1, [pc, #24]	; (8003f5c <DMA2D_Index2ColorBulk+0x30>)
 8003f44:	68f8      	ldr	r0, [r7, #12]
 8003f46:	f7ff ff0b 	bl	8003d60 <DMA2D_ConvertColor>
  
  /* Convert colors from ARGB to ABGR and invert alpha values */
  InvertAlpha_SwapRB(aBufferDMA2D, pColor, NumItems);
 8003f4a:	687a      	ldr	r2, [r7, #4]
 8003f4c:	68b9      	ldr	r1, [r7, #8]
 8003f4e:	4803      	ldr	r0, [pc, #12]	; (8003f5c <DMA2D_Index2ColorBulk+0x30>)
 8003f50:	f000 f990 	bl	8004274 <InvertAlpha_SwapRB>
}
 8003f54:	bf00      	nop
 8003f56:	3710      	adds	r7, #16
 8003f58:	46bd      	mov	sp, r7
 8003f5a:	bd80      	pop	{r7, pc}
 8003f5c:	20027930 	.word	0x20027930

08003f60 <DMA2D_Color2IndexBulk>:
  * @param  SizeOfIndex
  * @param  PixelFormat
  * @retval None
  */
static void DMA2D_Color2IndexBulk(LCD_COLOR * pColor, void * pIndex, uint32_t NumItems, U8 SizeOfIndex, uint32_t PixelFormat) 
{
 8003f60:	b580      	push	{r7, lr}
 8003f62:	b086      	sub	sp, #24
 8003f64:	af02      	add	r7, sp, #8
 8003f66:	60f8      	str	r0, [r7, #12]
 8003f68:	60b9      	str	r1, [r7, #8]
 8003f6a:	607a      	str	r2, [r7, #4]
 8003f6c:	70fb      	strb	r3, [r7, #3]
  /* Convert colors from ABGR to ARGB and invert alpha values */
  InvertAlpha_SwapRB(pColor, aBufferDMA2D, NumItems);
 8003f6e:	687a      	ldr	r2, [r7, #4]
 8003f70:	4907      	ldr	r1, [pc, #28]	; (8003f90 <DMA2D_Color2IndexBulk+0x30>)
 8003f72:	68f8      	ldr	r0, [r7, #12]
 8003f74:	f000 f97e 	bl	8004274 <InvertAlpha_SwapRB>
  
  /* Use DMA2D for the conversion */
  DMA2D_ConvertColor(aBufferDMA2D, pIndex, LTDC_PIXEL_FORMAT_ARGB8888, PixelFormat, NumItems);
 8003f78:	687b      	ldr	r3, [r7, #4]
 8003f7a:	9300      	str	r3, [sp, #0]
 8003f7c:	69bb      	ldr	r3, [r7, #24]
 8003f7e:	2200      	movs	r2, #0
 8003f80:	68b9      	ldr	r1, [r7, #8]
 8003f82:	4803      	ldr	r0, [pc, #12]	; (8003f90 <DMA2D_Color2IndexBulk+0x30>)
 8003f84:	f7ff feec 	bl	8003d60 <DMA2D_ConvertColor>
}
 8003f88:	bf00      	nop
 8003f8a:	3710      	adds	r7, #16
 8003f8c:	46bd      	mov	sp, r7
 8003f8e:	bd80      	pop	{r7, pc}
 8003f90:	20027930 	.word	0x20027930

08003f94 <LCD_MixColorsBulk>:
  * @param  ySize
  * @param  Intens
  * @retval None
  */
static void LCD_MixColorsBulk(U32 * pFG, U32 * pBG, U32 * pDst, unsigned OffFG, unsigned OffBG, unsigned OffDest, unsigned xSize, unsigned ySize, U8 Intens)
{
 8003f94:	b580      	push	{r7, lr}
 8003f96:	b088      	sub	sp, #32
 8003f98:	af02      	add	r7, sp, #8
 8003f9a:	60f8      	str	r0, [r7, #12]
 8003f9c:	60b9      	str	r1, [r7, #8]
 8003f9e:	607a      	str	r2, [r7, #4]
 8003fa0:	603b      	str	r3, [r7, #0]
  int32_t y;

  GUI_USE_PARA(OffFG);
  GUI_USE_PARA(OffDest);
  for (y = 0; y < ySize; y++) 
 8003fa2:	2300      	movs	r3, #0
 8003fa4:	617b      	str	r3, [r7, #20]
 8003fa6:	e030      	b.n	800400a <LCD_MixColorsBulk+0x76>
  {
    /* Invert alpha values */
    InvertAlpha(pFG, aBuffer_FG, xSize);
 8003fa8:	6aba      	ldr	r2, [r7, #40]	; 0x28
 8003faa:	491c      	ldr	r1, [pc, #112]	; (800401c <LCD_MixColorsBulk+0x88>)
 8003fac:	68f8      	ldr	r0, [r7, #12]
 8003fae:	f000 f978 	bl	80042a2 <InvertAlpha>
    InvertAlpha(pBG, aBuffer_BG, xSize);
 8003fb2:	6aba      	ldr	r2, [r7, #40]	; 0x28
 8003fb4:	491a      	ldr	r1, [pc, #104]	; (8004020 <LCD_MixColorsBulk+0x8c>)
 8003fb6:	68b8      	ldr	r0, [r7, #8]
 8003fb8:	f000 f973 	bl	80042a2 <InvertAlpha>

    DMA2D_MixColorsBulk(aBuffer_FG, aBuffer_BG, aBufferDMA2D, Intens, xSize);
 8003fbc:	f897 2030 	ldrb.w	r2, [r7, #48]	; 0x30
 8003fc0:	6abb      	ldr	r3, [r7, #40]	; 0x28
 8003fc2:	9300      	str	r3, [sp, #0]
 8003fc4:	4613      	mov	r3, r2
 8003fc6:	4a17      	ldr	r2, [pc, #92]	; (8004024 <LCD_MixColorsBulk+0x90>)
 8003fc8:	4915      	ldr	r1, [pc, #84]	; (8004020 <LCD_MixColorsBulk+0x8c>)
 8003fca:	4814      	ldr	r0, [pc, #80]	; (800401c <LCD_MixColorsBulk+0x88>)
 8003fcc:	f7ff ff48 	bl	8003e60 <DMA2D_MixColorsBulk>

    InvertAlpha(aBufferDMA2D, pDst, xSize);
 8003fd0:	6aba      	ldr	r2, [r7, #40]	; 0x28
 8003fd2:	6879      	ldr	r1, [r7, #4]
 8003fd4:	4813      	ldr	r0, [pc, #76]	; (8004024 <LCD_MixColorsBulk+0x90>)
 8003fd6:	f000 f964 	bl	80042a2 <InvertAlpha>
    pFG  += xSize + OffFG;
 8003fda:	6aba      	ldr	r2, [r7, #40]	; 0x28
 8003fdc:	683b      	ldr	r3, [r7, #0]
 8003fde:	4413      	add	r3, r2
 8003fe0:	009b      	lsls	r3, r3, #2
 8003fe2:	68fa      	ldr	r2, [r7, #12]
 8003fe4:	4413      	add	r3, r2
 8003fe6:	60fb      	str	r3, [r7, #12]
    pBG  += xSize + OffBG;
 8003fe8:	6aba      	ldr	r2, [r7, #40]	; 0x28
 8003fea:	6a3b      	ldr	r3, [r7, #32]
 8003fec:	4413      	add	r3, r2
 8003fee:	009b      	lsls	r3, r3, #2
 8003ff0:	68ba      	ldr	r2, [r7, #8]
 8003ff2:	4413      	add	r3, r2
 8003ff4:	60bb      	str	r3, [r7, #8]
    pDst += xSize + OffDest;
 8003ff6:	6aba      	ldr	r2, [r7, #40]	; 0x28
 8003ff8:	6a7b      	ldr	r3, [r7, #36]	; 0x24
 8003ffa:	4413      	add	r3, r2
 8003ffc:	009b      	lsls	r3, r3, #2
 8003ffe:	687a      	ldr	r2, [r7, #4]
 8004000:	4413      	add	r3, r2
 8004002:	607b      	str	r3, [r7, #4]
  for (y = 0; y < ySize; y++) 
 8004004:	697b      	ldr	r3, [r7, #20]
 8004006:	3301      	adds	r3, #1
 8004008:	617b      	str	r3, [r7, #20]
 800400a:	697b      	ldr	r3, [r7, #20]
 800400c:	6afa      	ldr	r2, [r7, #44]	; 0x2c
 800400e:	429a      	cmp	r2, r3
 8004010:	d8ca      	bhi.n	8003fa8 <LCD_MixColorsBulk+0x14>
  }
}
 8004012:	bf00      	nop
 8004014:	bf00      	nop
 8004016:	3718      	adds	r7, #24
 8004018:	46bd      	mov	sp, r7
 800401a:	bd80      	pop	{r7, pc}
 800401c:	20026a30 	.word	0x20026a30
 8004020:	20025b30 	.word	0x20025b30
 8004024:	20027930 	.word	0x20027930

08004028 <DMA2D_DrawBitmapL8>:
  * @param  xSize
  * @param  ySize
  * @retval None
  */
static void DMA2D_DrawBitmapL8(void * pSrc, void * pDst,  uint32_t OffSrc, uint32_t OffDst, uint32_t PixelFormatDst, uint32_t xSize, uint32_t ySize)
{
 8004028:	b480      	push	{r7}
 800402a:	b085      	sub	sp, #20
 800402c:	af00      	add	r7, sp, #0
 800402e:	60f8      	str	r0, [r7, #12]
 8004030:	60b9      	str	r1, [r7, #8]
 8004032:	607a      	str	r2, [r7, #4]
 8004034:	603b      	str	r3, [r7, #0]
  /* Set up mode */
  DMA2D->CR      = 0x00010000UL | (1 << 9);         /* Control Register (Memory to memory with pixel format conversion and TCIE) */
 8004036:	4b18      	ldr	r3, [pc, #96]	; (8004098 <DMA2D_DrawBitmapL8+0x70>)
 8004038:	f44f 3281 	mov.w	r2, #66048	; 0x10200
 800403c:	601a      	str	r2, [r3, #0]
  
  /* Set up pointers */
  DMA2D->FGMAR   = (uint32_t)pSrc;                       /* Foreground Memory Address Register (Source address) */
 800403e:	4a16      	ldr	r2, [pc, #88]	; (8004098 <DMA2D_DrawBitmapL8+0x70>)
 8004040:	68fb      	ldr	r3, [r7, #12]
 8004042:	60d3      	str	r3, [r2, #12]
  DMA2D->OMAR    = (uint32_t)pDst;                       /* Output Memory Address Register (Destination address) */
 8004044:	4a14      	ldr	r2, [pc, #80]	; (8004098 <DMA2D_DrawBitmapL8+0x70>)
 8004046:	68bb      	ldr	r3, [r7, #8]
 8004048:	63d3      	str	r3, [r2, #60]	; 0x3c
  
  /* Set up offsets */
  DMA2D->FGOR    = OffSrc;                          /* Foreground Offset Register (Source line offset) */
 800404a:	4a13      	ldr	r2, [pc, #76]	; (8004098 <DMA2D_DrawBitmapL8+0x70>)
 800404c:	687b      	ldr	r3, [r7, #4]
 800404e:	6113      	str	r3, [r2, #16]
  DMA2D->OOR     = OffDst;                          /* Output Offset Register (Destination line offset) */
 8004050:	4a11      	ldr	r2, [pc, #68]	; (8004098 <DMA2D_DrawBitmapL8+0x70>)
 8004052:	683b      	ldr	r3, [r7, #0]
 8004054:	6413      	str	r3, [r2, #64]	; 0x40
  
  /* Set up pixel format */
  DMA2D->FGPFCCR = LTDC_PIXEL_FORMAT_L8;             /* Foreground PFC Control Register (Defines the input pixel format) */
 8004056:	4b10      	ldr	r3, [pc, #64]	; (8004098 <DMA2D_DrawBitmapL8+0x70>)
 8004058:	2205      	movs	r2, #5
 800405a:	61da      	str	r2, [r3, #28]
  DMA2D->OPFCCR  = PixelFormatDst;                  /* Output PFC Control Register (Defines the output pixel format) */
 800405c:	4a0e      	ldr	r2, [pc, #56]	; (8004098 <DMA2D_DrawBitmapL8+0x70>)
 800405e:	69bb      	ldr	r3, [r7, #24]
 8004060:	6353      	str	r3, [r2, #52]	; 0x34
  
  /* Set up size */
  DMA2D->NLR     = (uint32_t)(xSize << 16) | ySize;      /* Number of Line Register (Size configuration of area to be transferred) */
 8004062:	69fb      	ldr	r3, [r7, #28]
 8004064:	041a      	lsls	r2, r3, #16
 8004066:	490c      	ldr	r1, [pc, #48]	; (8004098 <DMA2D_DrawBitmapL8+0x70>)
 8004068:	6a3b      	ldr	r3, [r7, #32]
 800406a:	4313      	orrs	r3, r2
 800406c:	644b      	str	r3, [r1, #68]	; 0x44
  
  /* Execute operation */
  DMA2D->CR     |= DMA2D_CR_START;                               /* Start operation */
 800406e:	4b0a      	ldr	r3, [pc, #40]	; (8004098 <DMA2D_DrawBitmapL8+0x70>)
 8004070:	681b      	ldr	r3, [r3, #0]
 8004072:	4a09      	ldr	r2, [pc, #36]	; (8004098 <DMA2D_DrawBitmapL8+0x70>)
 8004074:	f043 0301 	orr.w	r3, r3, #1
 8004078:	6013      	str	r3, [r2, #0]
  
  /* Wait until transfer is done */
  while (DMA2D->CR & DMA2D_CR_START)
 800407a:	bf00      	nop
 800407c:	4b06      	ldr	r3, [pc, #24]	; (8004098 <DMA2D_DrawBitmapL8+0x70>)
 800407e:	681b      	ldr	r3, [r3, #0]
 8004080:	f003 0301 	and.w	r3, r3, #1
 8004084:	2b00      	cmp	r3, #0
 8004086:	d1f9      	bne.n	800407c <DMA2D_DrawBitmapL8+0x54>
  {
  }
}
 8004088:	bf00      	nop
 800408a:	bf00      	nop
 800408c:	3714      	adds	r7, #20
 800408e:	46bd      	mov	sp, r7
 8004090:	f85d 7b04 	ldr.w	r7, [sp], #4
 8004094:	4770      	bx	lr
 8004096:	bf00      	nop
 8004098:	4002b000 	.word	0x4002b000

0800409c <BSP_LCD_DrawBitmap16bpp>:
  * @param  ySize
  * @param  BytesPerLine
  * @retval None
  */
static void BSP_LCD_DrawBitmap16bpp(int32_t LayerIndex, int32_t x, int32_t y, U16 const * p, int32_t xSize, int32_t ySize, int32_t BytesPerLine)
{
 800409c:	b5b0      	push	{r4, r5, r7, lr}
 800409e:	b08c      	sub	sp, #48	; 0x30
 80040a0:	af04      	add	r7, sp, #16
 80040a2:	60f8      	str	r0, [r7, #12]
 80040a4:	60b9      	str	r1, [r7, #8]
 80040a6:	607a      	str	r2, [r7, #4]
 80040a8:	603b      	str	r3, [r7, #0]
  uint32_t BufferSize, AddrDst;
  int32_t OffLineSrc, OffLineDst;

  BufferSize = GetBufferSize(LayerIndex);
 80040aa:	68fb      	ldr	r3, [r7, #12]
 80040ac:	4618      	mov	r0, r3
 80040ae:	f000 f8c5 	bl	800423c <GetBufferSize>
 80040b2:	61f8      	str	r0, [r7, #28]
  AddrDst = layer_prop[LayerIndex].address + BufferSize * layer_prop[LayerIndex].buffer_index + (y * layer_prop[LayerIndex].xSize + x) * layer_prop[LayerIndex].BytesPerPixel;
 80040b4:	492c      	ldr	r1, [pc, #176]	; (8004168 <BSP_LCD_DrawBitmap16bpp+0xcc>)
 80040b6:	68fa      	ldr	r2, [r7, #12]
 80040b8:	4613      	mov	r3, r2
 80040ba:	00db      	lsls	r3, r3, #3
 80040bc:	1a9b      	subs	r3, r3, r2
 80040be:	009b      	lsls	r3, r3, #2
 80040c0:	440b      	add	r3, r1
 80040c2:	681b      	ldr	r3, [r3, #0]
 80040c4:	461c      	mov	r4, r3
 80040c6:	4928      	ldr	r1, [pc, #160]	; (8004168 <BSP_LCD_DrawBitmap16bpp+0xcc>)
 80040c8:	68fa      	ldr	r2, [r7, #12]
 80040ca:	4613      	mov	r3, r2
 80040cc:	00db      	lsls	r3, r3, #3
 80040ce:	1a9b      	subs	r3, r3, r2
 80040d0:	009b      	lsls	r3, r3, #2
 80040d2:	440b      	add	r3, r1
 80040d4:	330c      	adds	r3, #12
 80040d6:	681b      	ldr	r3, [r3, #0]
 80040d8:	687a      	ldr	r2, [r7, #4]
 80040da:	fb03 f202 	mul.w	r2, r3, r2
 80040de:	68bb      	ldr	r3, [r7, #8]
 80040e0:	18d1      	adds	r1, r2, r3
 80040e2:	4821      	ldr	r0, [pc, #132]	; (8004168 <BSP_LCD_DrawBitmap16bpp+0xcc>)
 80040e4:	68fa      	ldr	r2, [r7, #12]
 80040e6:	4613      	mov	r3, r2
 80040e8:	00db      	lsls	r3, r3, #3
 80040ea:	1a9b      	subs	r3, r3, r2
 80040ec:	009b      	lsls	r3, r3, #2
 80040ee:	4403      	add	r3, r0
 80040f0:	3314      	adds	r3, #20
 80040f2:	681b      	ldr	r3, [r3, #0]
 80040f4:	fb01 f303 	mul.w	r3, r1, r3
 80040f8:	4618      	mov	r0, r3
 80040fa:	491b      	ldr	r1, [pc, #108]	; (8004168 <BSP_LCD_DrawBitmap16bpp+0xcc>)
 80040fc:	68fa      	ldr	r2, [r7, #12]
 80040fe:	4613      	mov	r3, r2
 8004100:	00db      	lsls	r3, r3, #3
 8004102:	1a9b      	subs	r3, r3, r2
 8004104:	009b      	lsls	r3, r3, #2
 8004106:	440b      	add	r3, r1
 8004108:	3308      	adds	r3, #8
 800410a:	681b      	ldr	r3, [r3, #0]
 800410c:	461a      	mov	r2, r3
 800410e:	69fb      	ldr	r3, [r7, #28]
 8004110:	fb02 f303 	mul.w	r3, r2, r3
 8004114:	4403      	add	r3, r0
 8004116:	4423      	add	r3, r4
 8004118:	61bb      	str	r3, [r7, #24]
  OffLineSrc = (BytesPerLine / 2) - xSize;
 800411a:	6bbb      	ldr	r3, [r7, #56]	; 0x38
 800411c:	0fda      	lsrs	r2, r3, #31
 800411e:	4413      	add	r3, r2
 8004120:	105b      	asrs	r3, r3, #1
 8004122:	461a      	mov	r2, r3
 8004124:	6b3b      	ldr	r3, [r7, #48]	; 0x30
 8004126:	1ad3      	subs	r3, r2, r3
 8004128:	617b      	str	r3, [r7, #20]
  OffLineDst = layer_prop[LayerIndex].xSize - xSize;
 800412a:	490f      	ldr	r1, [pc, #60]	; (8004168 <BSP_LCD_DrawBitmap16bpp+0xcc>)
 800412c:	68fa      	ldr	r2, [r7, #12]
 800412e:	4613      	mov	r3, r2
 8004130:	00db      	lsls	r3, r3, #3
 8004132:	1a9b      	subs	r3, r3, r2
 8004134:	009b      	lsls	r3, r3, #2
 8004136:	440b      	add	r3, r1
 8004138:	330c      	adds	r3, #12
 800413a:	681a      	ldr	r2, [r3, #0]
 800413c:	6b3b      	ldr	r3, [r7, #48]	; 0x30
 800413e:	1ad3      	subs	r3, r2, r3
 8004140:	613b      	str	r3, [r7, #16]
  DMA2D_CopyBuffer(LayerIndex, (void *)p, (void *)AddrDst, xSize, ySize, OffLineSrc, OffLineDst);
 8004142:	68f8      	ldr	r0, [r7, #12]
 8004144:	69bc      	ldr	r4, [r7, #24]
 8004146:	6b3d      	ldr	r5, [r7, #48]	; 0x30
 8004148:	6b7b      	ldr	r3, [r7, #52]	; 0x34
 800414a:	697a      	ldr	r2, [r7, #20]
 800414c:	6939      	ldr	r1, [r7, #16]
 800414e:	9102      	str	r1, [sp, #8]
 8004150:	9201      	str	r2, [sp, #4]
 8004152:	9300      	str	r3, [sp, #0]
 8004154:	462b      	mov	r3, r5
 8004156:	4622      	mov	r2, r4
 8004158:	6839      	ldr	r1, [r7, #0]
 800415a:	f000 f911 	bl	8004380 <DMA2D_CopyBuffer>
}
 800415e:	bf00      	nop
 8004160:	3720      	adds	r7, #32
 8004162:	46bd      	mov	sp, r7
 8004164:	bdb0      	pop	{r4, r5, r7, pc}
 8004166:	bf00      	nop
 8004168:	20028830 	.word	0x20028830

0800416c <BSP_LCD_DrawBitmap8bpp>:
  * @param  ySize
  * @param  BytesPerLine
  * @retval None
  */
static void BSP_LCD_DrawBitmap8bpp(int32_t LayerIndex, int32_t x, int32_t y, U8 const * p, int32_t xSize, int32_t ySize, int32_t BytesPerLine)
{
 800416c:	b590      	push	{r4, r7, lr}
 800416e:	b08f      	sub	sp, #60	; 0x3c
 8004170:	af04      	add	r7, sp, #16
 8004172:	60f8      	str	r0, [r7, #12]
 8004174:	60b9      	str	r1, [r7, #8]
 8004176:	607a      	str	r2, [r7, #4]
 8004178:	603b      	str	r3, [r7, #0]
  uint32_t BufferSize, AddrDst;
  int32_t OffLineSrc, OffLineDst;
  uint32_t PixelFormat;

  BufferSize = GetBufferSize(LayerIndex);
 800417a:	68fb      	ldr	r3, [r7, #12]
 800417c:	4618      	mov	r0, r3
 800417e:	f000 f85d 	bl	800423c <GetBufferSize>
 8004182:	6278      	str	r0, [r7, #36]	; 0x24
  AddrDst = layer_prop[LayerIndex].address + BufferSize * layer_prop[LayerIndex].buffer_index + (y * layer_prop[LayerIndex].xSize + x) * layer_prop[LayerIndex].BytesPerPixel;
 8004184:	492c      	ldr	r1, [pc, #176]	; (8004238 <BSP_LCD_DrawBitmap8bpp+0xcc>)
 8004186:	68fa      	ldr	r2, [r7, #12]
 8004188:	4613      	mov	r3, r2
 800418a:	00db      	lsls	r3, r3, #3
 800418c:	1a9b      	subs	r3, r3, r2
 800418e:	009b      	lsls	r3, r3, #2
 8004190:	440b      	add	r3, r1
 8004192:	681b      	ldr	r3, [r3, #0]
 8004194:	461c      	mov	r4, r3
 8004196:	4928      	ldr	r1, [pc, #160]	; (8004238 <BSP_LCD_DrawBitmap8bpp+0xcc>)
 8004198:	68fa      	ldr	r2, [r7, #12]
 800419a:	4613      	mov	r3, r2
 800419c:	00db      	lsls	r3, r3, #3
 800419e:	1a9b      	subs	r3, r3, r2
 80041a0:	009b      	lsls	r3, r3, #2
 80041a2:	440b      	add	r3, r1
 80041a4:	330c      	adds	r3, #12
 80041a6:	681b      	ldr	r3, [r3, #0]
 80041a8:	687a      	ldr	r2, [r7, #4]
 80041aa:	fb03 f202 	mul.w	r2, r3, r2
 80041ae:	68bb      	ldr	r3, [r7, #8]
 80041b0:	18d1      	adds	r1, r2, r3
 80041b2:	4821      	ldr	r0, [pc, #132]	; (8004238 <BSP_LCD_DrawBitmap8bpp+0xcc>)
 80041b4:	68fa      	ldr	r2, [r7, #12]
 80041b6:	4613      	mov	r3, r2
 80041b8:	00db      	lsls	r3, r3, #3
 80041ba:	1a9b      	subs	r3, r3, r2
 80041bc:	009b      	lsls	r3, r3, #2
 80041be:	4403      	add	r3, r0
 80041c0:	3314      	adds	r3, #20
 80041c2:	681b      	ldr	r3, [r3, #0]
 80041c4:	fb01 f303 	mul.w	r3, r1, r3
 80041c8:	4618      	mov	r0, r3
 80041ca:	491b      	ldr	r1, [pc, #108]	; (8004238 <BSP_LCD_DrawBitmap8bpp+0xcc>)
 80041cc:	68fa      	ldr	r2, [r7, #12]
 80041ce:	4613      	mov	r3, r2
 80041d0:	00db      	lsls	r3, r3, #3
 80041d2:	1a9b      	subs	r3, r3, r2
 80041d4:	009b      	lsls	r3, r3, #2
 80041d6:	440b      	add	r3, r1
 80041d8:	3308      	adds	r3, #8
 80041da:	681b      	ldr	r3, [r3, #0]
 80041dc:	461a      	mov	r2, r3
 80041de:	6a7b      	ldr	r3, [r7, #36]	; 0x24
 80041e0:	fb02 f303 	mul.w	r3, r2, r3
 80041e4:	4403      	add	r3, r0
 80041e6:	4423      	add	r3, r4
 80041e8:	623b      	str	r3, [r7, #32]
  OffLineSrc = BytesPerLine - xSize;
 80041ea:	6c3a      	ldr	r2, [r7, #64]	; 0x40
 80041ec:	6bbb      	ldr	r3, [r7, #56]	; 0x38
 80041ee:	1ad3      	subs	r3, r2, r3
 80041f0:	61fb      	str	r3, [r7, #28]
  OffLineDst = layer_prop[LayerIndex].xSize - xSize;
 80041f2:	4911      	ldr	r1, [pc, #68]	; (8004238 <BSP_LCD_DrawBitmap8bpp+0xcc>)
 80041f4:	68fa      	ldr	r2, [r7, #12]
 80041f6:	4613      	mov	r3, r2
 80041f8:	00db      	lsls	r3, r3, #3
 80041fa:	1a9b      	subs	r3, r3, r2
 80041fc:	009b      	lsls	r3, r3, #2
 80041fe:	440b      	add	r3, r1
 8004200:	330c      	adds	r3, #12
 8004202:	681a      	ldr	r2, [r3, #0]
 8004204:	6bbb      	ldr	r3, [r7, #56]	; 0x38
 8004206:	1ad3      	subs	r3, r2, r3
 8004208:	61bb      	str	r3, [r7, #24]
  PixelFormat = LCD_LL_GetPixelformat(LayerIndex);
 800420a:	68fb      	ldr	r3, [r7, #12]
 800420c:	4618      	mov	r0, r3
 800420e:	f000 f8b1 	bl	8004374 <LCD_LL_GetPixelformat>
 8004212:	6178      	str	r0, [r7, #20]
  DMA2D_DrawBitmapL8((void *)p, (void *)AddrDst, OffLineSrc, OffLineDst, PixelFormat, xSize, ySize);
 8004214:	6a39      	ldr	r1, [r7, #32]
 8004216:	69f8      	ldr	r0, [r7, #28]
 8004218:	69bc      	ldr	r4, [r7, #24]
 800421a:	6bbb      	ldr	r3, [r7, #56]	; 0x38
 800421c:	6bfa      	ldr	r2, [r7, #60]	; 0x3c
 800421e:	9202      	str	r2, [sp, #8]
 8004220:	9301      	str	r3, [sp, #4]
 8004222:	697b      	ldr	r3, [r7, #20]
 8004224:	9300      	str	r3, [sp, #0]
 8004226:	4623      	mov	r3, r4
 8004228:	4602      	mov	r2, r0
 800422a:	6838      	ldr	r0, [r7, #0]
 800422c:	f7ff fefc 	bl	8004028 <DMA2D_DrawBitmapL8>
}
 8004230:	bf00      	nop
 8004232:	372c      	adds	r7, #44	; 0x2c
 8004234:	46bd      	mov	sp, r7
 8004236:	bd90      	pop	{r4, r7, pc}
 8004238:	20028830 	.word	0x20028830

0800423c <GetBufferSize>:
  BufferSize = layer_prop[LayerIndex].xSize * layer_prop[LayerIndex].ySize * layer_prop[LayerIndex].BytesPerPixel;
 800423c:	4b04      	ldr	r3, [pc, #16]	; (8004250 <GetBufferSize+0x14>)
 800423e:	221c      	movs	r2, #28
 8004240:	fb02 3000 	mla	r0, r2, r0, r3
 8004244:	e9d0 3203 	ldrd	r3, r2, [r0, #12]
 8004248:	6940      	ldr	r0, [r0, #20]
 800424a:	4353      	muls	r3, r2
}
 800424c:	4358      	muls	r0, r3
 800424e:	4770      	bx	lr
 8004250:	20028830 	.word	0x20028830

08004254 <DMA2D_LoadLUT>:
                  | ((NumItems - 1) & 0xFF) << 8;   /* Number of items to load */
 8004254:	1e4b      	subs	r3, r1, #1
 8004256:	021b      	lsls	r3, r3, #8
  DMA2D->FGCMAR  = (uint32_t)pColor; 
 8004258:	4a05      	ldr	r2, [pc, #20]	; (8004270 <DMA2D_LoadLUT+0x1c>)
                  | ((NumItems - 1) & 0xFF) << 8;   /* Number of items to load */
 800425a:	b29b      	uxth	r3, r3
 800425c:	f043 0301 	orr.w	r3, r3, #1
  DMA2D->FGCMAR  = (uint32_t)pColor; 
 8004260:	62d0      	str	r0, [r2, #44]	; 0x2c
  DMA2D->FGPFCCR  = LTDC_PIXEL_FORMAT_RGB888         /* Pixel format */
 8004262:	61d3      	str	r3, [r2, #28]
  DMA2D->FGPFCCR |= (1 << 5);                       /* Start loading */
 8004264:	69d3      	ldr	r3, [r2, #28]
 8004266:	f043 0320 	orr.w	r3, r3, #32
 800426a:	61d3      	str	r3, [r2, #28]
}
 800426c:	4770      	bx	lr
 800426e:	bf00      	nop
 8004270:	4002b000 	.word	0x4002b000

08004274 <InvertAlpha_SwapRB>:
{
 8004274:	b570      	push	{r4, r5, r6, lr}
 8004276:	2500      	movs	r5, #0
    Color = *pColorSrc++;
 8004278:	f850 4025 	ldr.w	r4, [r0, r5, lsl #2]
    *pColorDst++ = ((Color & 0x000000FF) << 16)         /* Swap red <-> blue */
 800427c:	0423      	lsls	r3, r4, #16
                 | ((Color & 0x00FF0000) >> 16)         /* Swap red <-> blue */
 800427e:	f3c4 4607 	ubfx	r6, r4, #16, #8
    *pColorDst++ = ((Color & 0x000000FF) << 16)         /* Swap red <-> blue */
 8004282:	f403 037f 	and.w	r3, r3, #16711680	; 0xff0000
                 | ((Color & 0x00FF0000) >> 16)         /* Swap red <-> blue */
 8004286:	4333      	orrs	r3, r6
                 |  (Color & 0x0000FF00)                /* Green */
 8004288:	f404 467f 	and.w	r6, r4, #65280	; 0xff00
                 | ((Color & 0xFF000000) ^ 0xFF000000); /* Invert alpha */
 800428c:	43e4      	mvns	r4, r4
                 | ((Color & 0x00FF0000) >> 16)         /* Swap red <-> blue */
 800428e:	4333      	orrs	r3, r6
                 | ((Color & 0xFF000000) ^ 0xFF000000); /* Invert alpha */
 8004290:	f004 447f 	and.w	r4, r4, #4278190080	; 0xff000000
 8004294:	4323      	orrs	r3, r4
    *pColorDst++ = ((Color & 0x000000FF) << 16)         /* Swap red <-> blue */
 8004296:	f841 3025 	str.w	r3, [r1, r5, lsl #2]
  } while (--NumItems);
 800429a:	3501      	adds	r5, #1
 800429c:	42aa      	cmp	r2, r5
 800429e:	d1eb      	bne.n	8004278 <InvertAlpha_SwapRB+0x4>
}
 80042a0:	bd70      	pop	{r4, r5, r6, pc}

080042a2 <InvertAlpha>:
{
 80042a2:	b510      	push	{r4, lr}
 80042a4:	2300      	movs	r3, #0
    *pColorDst++ = Color ^ 0xFF000000; /* Invert alpha */
 80042a6:	f850 4023 	ldr.w	r4, [r0, r3, lsl #2]
 80042aa:	f084 447f 	eor.w	r4, r4, #4278190080	; 0xff000000
 80042ae:	f841 4023 	str.w	r4, [r1, r3, lsl #2]
  } while (--NumItems);
 80042b2:	3301      	adds	r3, #1
 80042b4:	429a      	cmp	r2, r3
 80042b6:	d1f6      	bne.n	80042a6 <InvertAlpha+0x4>
}
 80042b8:	bd10      	pop	{r4, pc}
	...

080042bc <DMA2D_AlphaBlendingBulk>:
{
 80042bc:	b530      	push	{r4, r5, lr}
  DMA2D->CR      = 0x00020000UL | (1 << 9);         /* Control Register (Memory to memory with blending of FG and BG and TCIE) */
 80042be:	4c0c      	ldr	r4, [pc, #48]	; (80042f0 <DMA2D_AlphaBlendingBulk+0x34>)
 80042c0:	4d0c      	ldr	r5, [pc, #48]	; (80042f4 <DMA2D_AlphaBlendingBulk+0x38>)
 80042c2:	6025      	str	r5, [r4, #0]
  DMA2D->NLR     = (uint32_t)(NumItems << 16) | 1;       /* Number of Line Register (Size configuration of area to be transferred) */
 80042c4:	041b      	lsls	r3, r3, #16
  DMA2D->FGMAR   = (uint32_t)pColorFG;                   /* Foreground Memory Address Register */
 80042c6:	60e0      	str	r0, [r4, #12]
  DMA2D->NLR     = (uint32_t)(NumItems << 16) | 1;       /* Number of Line Register (Size configuration of area to be transferred) */
 80042c8:	f043 0301 	orr.w	r3, r3, #1
  DMA2D->BGMAR   = (uint32_t)pColorBG;                   /* Background Memory Address Register */
 80042cc:	6161      	str	r1, [r4, #20]
  DMA2D->OMAR    = (uint32_t)pColorDst;                  /* Output Memory Address Register (Destination address) */
 80042ce:	63e2      	str	r2, [r4, #60]	; 0x3c
  DMA2D->FGOR    = 0;                               /* Foreground Offset Register */
 80042d0:	2200      	movs	r2, #0
 80042d2:	6122      	str	r2, [r4, #16]
  DMA2D->BGOR    = 0;                               /* Background Offset Register */
 80042d4:	61a2      	str	r2, [r4, #24]
  DMA2D->OOR     = 0;                               /* Output Offset Register */
 80042d6:	6422      	str	r2, [r4, #64]	; 0x40
  DMA2D->FGPFCCR = LTDC_PIXEL_FORMAT_ARGB8888;       /* Foreground PFC Control Register (Defines the FG pixel format) */
 80042d8:	61e2      	str	r2, [r4, #28]
  DMA2D->BGPFCCR = LTDC_PIXEL_FORMAT_ARGB8888;       /* Background PFC Control Register (Defines the BG pixel format) */
 80042da:	6262      	str	r2, [r4, #36]	; 0x24
  DMA2D->OPFCCR  = LTDC_PIXEL_FORMAT_ARGB8888;       /* Output     PFC Control Register (Defines the output pixel format) */
 80042dc:	6362      	str	r2, [r4, #52]	; 0x34
  DMA2D->NLR     = (uint32_t)(NumItems << 16) | 1;       /* Number of Line Register (Size configuration of area to be transferred) */
 80042de:	6463      	str	r3, [r4, #68]	; 0x44
  DMA2D->CR     |= DMA2D_CR_START;  
 80042e0:	6823      	ldr	r3, [r4, #0]
 80042e2:	f043 0301 	orr.w	r3, r3, #1
 80042e6:	6023      	str	r3, [r4, #0]
  while (DMA2D->CR & DMA2D_CR_START) 
 80042e8:	6823      	ldr	r3, [r4, #0]
 80042ea:	07db      	lsls	r3, r3, #31
 80042ec:	d4fc      	bmi.n	80042e8 <DMA2D_AlphaBlendingBulk+0x2c>
}
 80042ee:	bd30      	pop	{r4, r5, pc}
 80042f0:	4002b000 	.word	0x4002b000
 80042f4:	00020200 	.word	0x00020200

080042f8 <LCD_LL_GetPixelformat.part.0>:
  pColorConvAPI = layer_prop[LayerIndex].pColorConvAPI;
 80042f8:	4b15      	ldr	r3, [pc, #84]	; (8004350 <LCD_LL_GetPixelformat.part.0+0x58>)
  if (pColorConvAPI == GUICC_M8888I) 
 80042fa:	4a16      	ldr	r2, [pc, #88]	; (8004354 <LCD_LL_GetPixelformat.part.0+0x5c>)
  pColorConvAPI = layer_prop[LayerIndex].pColorConvAPI;
 80042fc:	699b      	ldr	r3, [r3, #24]
  if (pColorConvAPI == GUICC_M8888I) 
 80042fe:	4293      	cmp	r3, r2
 8004300:	d015      	beq.n	800432e <LCD_LL_GetPixelformat.part.0+0x36>
  else if (pColorConvAPI == GUICC_M888) 
 8004302:	4a15      	ldr	r2, [pc, #84]	; (8004358 <LCD_LL_GetPixelformat.part.0+0x60>)
 8004304:	4293      	cmp	r3, r2
 8004306:	d014      	beq.n	8004332 <LCD_LL_GetPixelformat.part.0+0x3a>
  else if (pColorConvAPI == GUICC_M565) 
 8004308:	4a14      	ldr	r2, [pc, #80]	; (800435c <LCD_LL_GetPixelformat.part.0+0x64>)
 800430a:	4293      	cmp	r3, r2
 800430c:	d013      	beq.n	8004336 <LCD_LL_GetPixelformat.part.0+0x3e>
  else if (pColorConvAPI == GUICC_M1555I) 
 800430e:	4a14      	ldr	r2, [pc, #80]	; (8004360 <LCD_LL_GetPixelformat.part.0+0x68>)
 8004310:	4293      	cmp	r3, r2
 8004312:	d012      	beq.n	800433a <LCD_LL_GetPixelformat.part.0+0x42>
  else if (pColorConvAPI == GUICC_M4444I) 
 8004314:	4a13      	ldr	r2, [pc, #76]	; (8004364 <LCD_LL_GetPixelformat.part.0+0x6c>)
 8004316:	4293      	cmp	r3, r2
 8004318:	d011      	beq.n	800433e <LCD_LL_GetPixelformat.part.0+0x46>
  else if (pColorConvAPI == GUICC_8666) 
 800431a:	4a13      	ldr	r2, [pc, #76]	; (8004368 <LCD_LL_GetPixelformat.part.0+0x70>)
 800431c:	4293      	cmp	r3, r2
 800431e:	d010      	beq.n	8004342 <LCD_LL_GetPixelformat.part.0+0x4a>
  else if (pColorConvAPI == GUICC_1616I) 
 8004320:	4a12      	ldr	r2, [pc, #72]	; (800436c <LCD_LL_GetPixelformat.part.0+0x74>)
 8004322:	4293      	cmp	r3, r2
 8004324:	d00f      	beq.n	8004346 <LCD_LL_GetPixelformat.part.0+0x4e>
  else if (pColorConvAPI == GUICC_88666I) 
 8004326:	4a12      	ldr	r2, [pc, #72]	; (8004370 <LCD_LL_GetPixelformat.part.0+0x78>)
 8004328:	4293      	cmp	r3, r2
 800432a:	d00e      	beq.n	800434a <LCD_LL_GetPixelformat.part.0+0x52>
  while (1);
 800432c:	e7fe      	b.n	800432c <LCD_LL_GetPixelformat.part.0+0x34>
    return LTDC_PIXEL_FORMAT_ARGB8888;
 800432e:	2000      	movs	r0, #0
 8004330:	4770      	bx	lr
    return LTDC_PIXEL_FORMAT_RGB888;
 8004332:	2001      	movs	r0, #1
 8004334:	4770      	bx	lr
    return LTDC_PIXEL_FORMAT_RGB565;
 8004336:	2002      	movs	r0, #2
 8004338:	4770      	bx	lr
    return LTDC_PIXEL_FORMAT_ARGB1555;
 800433a:	2003      	movs	r0, #3
 800433c:	4770      	bx	lr
    return LTDC_PIXEL_FORMAT_ARGB4444;
 800433e:	2004      	movs	r0, #4
 8004340:	4770      	bx	lr
    return LTDC_PIXEL_FORMAT_L8;
 8004342:	2005      	movs	r0, #5
 8004344:	4770      	bx	lr
    return LTDC_PIXEL_FORMAT_AL44;
 8004346:	2006      	movs	r0, #6
 8004348:	4770      	bx	lr
    return LTDC_PIXEL_FORMAT_AL88;
 800434a:	2007      	movs	r0, #7
}
 800434c:	4770      	bx	lr
 800434e:	bf00      	nop
 8004350:	20028830 	.word	0x20028830
 8004354:	0800b52c 	.word	0x0800b52c
 8004358:	0800b55c 	.word	0x0800b55c
 800435c:	0800b544 	.word	0x0800b544
 8004360:	0800b4fc 	.word	0x0800b4fc
 8004364:	0800b514 	.word	0x0800b514
 8004368:	0800b4cc 	.word	0x0800b4cc
 800436c:	0800b4b4 	.word	0x0800b4b4
 8004370:	0800b4e4 	.word	0x0800b4e4

08004374 <LCD_LL_GetPixelformat>:
  if (LayerIndex >= GUI_NUM_LAYERS) 
 8004374:	b908      	cbnz	r0, 800437a <LCD_LL_GetPixelformat+0x6>
 8004376:	f7ff bfbf 	b.w	80042f8 <LCD_LL_GetPixelformat.part.0>
}
 800437a:	2000      	movs	r0, #0
 800437c:	4770      	bx	lr
	...

08004380 <DMA2D_CopyBuffer>:
{
 8004380:	b570      	push	{r4, r5, r6, lr}
  DMA2D->CR      = 0x00000000UL | (1 << 9);  
 8004382:	4c0e      	ldr	r4, [pc, #56]	; (80043bc <DMA2D_CopyBuffer+0x3c>)
{
 8004384:	4616      	mov	r6, r2
 8004386:	461d      	mov	r5, r3
  PixelFormat = LCD_LL_GetPixelformat(LayerIndex);
 8004388:	f7ff fff4 	bl	8004374 <LCD_LL_GetPixelformat>
  DMA2D->CR      = 0x00000000UL | (1 << 9);  
 800438c:	f44f 7300 	mov.w	r3, #512	; 0x200
 8004390:	6023      	str	r3, [r4, #0]
  DMA2D->FGMAR   = (uint32_t)pSrc;                       
 8004392:	60e1      	str	r1, [r4, #12]
  DMA2D->OMAR    = (uint32_t)pDst;                       
 8004394:	63e6      	str	r6, [r4, #60]	; 0x3c
  DMA2D->FGOR    = OffLineSrc;                      
 8004396:	9b05      	ldr	r3, [sp, #20]
 8004398:	6123      	str	r3, [r4, #16]
  DMA2D->OOR     = OffLineDst; 
 800439a:	9b06      	ldr	r3, [sp, #24]
 800439c:	6423      	str	r3, [r4, #64]	; 0x40
  DMA2D->FGPFCCR = PixelFormat;  
 800439e:	61e0      	str	r0, [r4, #28]
  DMA2D->NLR     = (uint32_t)(xSize << 16) | (U16)ySize; 
 80043a0:	f8bd 2010 	ldrh.w	r2, [sp, #16]
 80043a4:	ea42 4205 	orr.w	r2, r2, r5, lsl #16
 80043a8:	6462      	str	r2, [r4, #68]	; 0x44
  DMA2D->CR     |= DMA2D_CR_START;   
 80043aa:	6823      	ldr	r3, [r4, #0]
 80043ac:	f043 0301 	orr.w	r3, r3, #1
 80043b0:	6023      	str	r3, [r4, #0]
  while (DMA2D->CR & DMA2D_CR_START)
 80043b2:	6823      	ldr	r3, [r4, #0]
 80043b4:	07db      	lsls	r3, r3, #31
 80043b6:	d4fc      	bmi.n	80043b2 <DMA2D_CopyBuffer+0x32>
}
 80043b8:	bd70      	pop	{r4, r5, r6, pc}
 80043ba:	bf00      	nop
 80043bc:	4002b000 	.word	0x4002b000

080043c0 <CUSTOM_CopyBuffer>:
static void CUSTOM_CopyBuffer(int32_t LayerIndex, int32_t IndexSrc, int32_t IndexDst) {
 80043c0:	b57f      	push	{r0, r1, r2, r3, r4, r5, r6, lr}
 80043c2:	4614      	mov	r4, r2
 80043c4:	4605      	mov	r5, r0
  BufferSize = GetBufferSize(LayerIndex);
 80043c6:	f7ff ff39 	bl	800423c <GetBufferSize>
  AddrSrc    = layer_prop[LayerIndex].address + BufferSize * IndexSrc;
 80043ca:	231c      	movs	r3, #28
 80043cc:	436b      	muls	r3, r5
 80043ce:	4a0a      	ldr	r2, [pc, #40]	; (80043f8 <CUSTOM_CopyBuffer+0x38>)
 80043d0:	f852 c003 	ldr.w	ip, [r2, r3]
 80043d4:	18d6      	adds	r6, r2, r3
  DMA2D_CopyBuffer(LayerIndex, (void *)AddrSrc, (void *)AddrDst, layer_prop[LayerIndex].xSize, layer_prop[LayerIndex].ySize, 0, 0);
 80043d6:	2300      	movs	r3, #0
 80043d8:	e9cd 3301 	strd	r3, r3, [sp, #4]
 80043dc:	6933      	ldr	r3, [r6, #16]
 80043de:	9300      	str	r3, [sp, #0]
 80043e0:	fb00 c204 	mla	r2, r0, r4, ip
 80043e4:	fb00 c101 	mla	r1, r0, r1, ip
 80043e8:	68f3      	ldr	r3, [r6, #12]
 80043ea:	4628      	mov	r0, r5
 80043ec:	f7ff ffc8 	bl	8004380 <DMA2D_CopyBuffer>
  layer_prop[LayerIndex].buffer_index = IndexDst;
 80043f0:	60b4      	str	r4, [r6, #8]
}
 80043f2:	b004      	add	sp, #16
 80043f4:	bd70      	pop	{r4, r5, r6, pc}
 80043f6:	bf00      	nop
 80043f8:	20028830 	.word	0x20028830

080043fc <CUSTOM_CopyRect>:
{
 80043fc:	e92d 4370 	stmdb	sp!, {r4, r5, r6, r8, r9, lr}
  AddrSrc = layer_prop[LayerIndex].address + (y0 * layer_prop[LayerIndex].xSize + x0) * layer_prop[LayerIndex].BytesPerPixel;
 8004400:	4d0e      	ldr	r5, [pc, #56]	; (800443c <CUSTOM_CopyRect+0x40>)
 8004402:	241c      	movs	r4, #28
 8004404:	4344      	muls	r4, r0
 8004406:	192e      	adds	r6, r5, r4
{
 8004408:	e9dd ce07 	ldrd	ip, lr, [sp, #28]
  AddrSrc = layer_prop[LayerIndex].address + (y0 * layer_prop[LayerIndex].xSize + x0) * layer_prop[LayerIndex].BytesPerPixel;
 800440c:	f8d6 800c 	ldr.w	r8, [r6, #12]
 8004410:	592d      	ldr	r5, [r5, r4]
  AddrDst = layer_prop[LayerIndex].address + (y1 * layer_prop[LayerIndex].xSize + x1) * layer_prop[LayerIndex].BytesPerPixel;
 8004412:	9c06      	ldr	r4, [sp, #24]
  AddrSrc = layer_prop[LayerIndex].address + (y0 * layer_prop[LayerIndex].xSize + x0) * layer_prop[LayerIndex].BytesPerPixel;
 8004414:	6976      	ldr	r6, [r6, #20]
  DMA2D_CopyBuffer(LayerIndex, (void *)AddrSrc, (void *)AddrDst, xSize, ySize, layer_prop[LayerIndex].xSize - xSize, layer_prop[LayerIndex].xSize - xSize);
 8004416:	f8cd e018 	str.w	lr, [sp, #24]
  AddrDst = layer_prop[LayerIndex].address + (y1 * layer_prop[LayerIndex].xSize + x1) * layer_prop[LayerIndex].BytesPerPixel;
 800441a:	fb04 3408 	mla	r4, r4, r8, r3
  AddrSrc = layer_prop[LayerIndex].address + (y0 * layer_prop[LayerIndex].xSize + x0) * layer_prop[LayerIndex].BytesPerPixel;
 800441e:	fb02 1108 	mla	r1, r2, r8, r1
  DMA2D_CopyBuffer(LayerIndex, (void *)AddrSrc, (void *)AddrDst, xSize, ySize, layer_prop[LayerIndex].xSize - xSize, layer_prop[LayerIndex].xSize - xSize);
 8004422:	eba8 090c 	sub.w	r9, r8, ip
 8004426:	e9cd 9907 	strd	r9, r9, [sp, #28]
 800442a:	fb06 5204 	mla	r2, r6, r4, r5
 800442e:	fb06 5101 	mla	r1, r6, r1, r5
 8004432:	4663      	mov	r3, ip
}
 8004434:	e8bd 4370 	ldmia.w	sp!, {r4, r5, r6, r8, r9, lr}
  DMA2D_CopyBuffer(LayerIndex, (void *)AddrSrc, (void *)AddrDst, xSize, ySize, layer_prop[LayerIndex].xSize - xSize, layer_prop[LayerIndex].xSize - xSize);
 8004438:	f7ff bfa2 	b.w	8004380 <DMA2D_CopyBuffer>
 800443c:	20028830 	.word	0x20028830

08004440 <CUSTOM_FillRect>:
{
 8004440:	e92d 4778 	stmdb	sp!, {r3, r4, r5, r6, r8, r9, sl, lr}
 8004444:	4606      	mov	r6, r0
 8004446:	e9dd 4a08 	ldrd	r4, sl, [sp, #32]
 800444a:	4688      	mov	r8, r1
 800444c:	4691      	mov	r9, r2
 800444e:	461d      	mov	r5, r3
  if (GUI_GetDrawMode() == GUI_DM_XOR) 
 8004450:	f001 fa00 	bl	8005854 <GUI_GetDrawMode>
 8004454:	2801      	cmp	r0, #1
 8004456:	d111      	bne.n	800447c <CUSTOM_FillRect+0x3c>
    LCD_SetDevFunc(LayerIndex, LCD_DEVFUNC_FILLRECT, NULL);
 8004458:	2200      	movs	r2, #0
 800445a:	2119      	movs	r1, #25
 800445c:	4630      	mov	r0, r6
 800445e:	f002 fe94 	bl	800718a <LCD_SetDevFunc>
    LCD_FillRect(x0, y0, x1, y1);
 8004462:	462a      	mov	r2, r5
 8004464:	4649      	mov	r1, r9
 8004466:	4640      	mov	r0, r8
 8004468:	4623      	mov	r3, r4
 800446a:	f002 f9f1 	bl	8006850 <LCD_FillRect>
    LCD_SetDevFunc(LayerIndex, LCD_DEVFUNC_FILLRECT, (void(*)(void))CUSTOM_FillRect);
 800446e:	4630      	mov	r0, r6
 8004470:	4a1f      	ldr	r2, [pc, #124]	; (80044f0 <CUSTOM_FillRect+0xb0>)
}
 8004472:	e8bd 4778 	ldmia.w	sp!, {r3, r4, r5, r6, r8, r9, sl, lr}
    LCD_SetDevFunc(LayerIndex, LCD_DEVFUNC_FILLRECT, (void(*)(void))CUSTOM_FillRect);
 8004476:	2119      	movs	r1, #25
 8004478:	f002 be87 	b.w	800718a <LCD_SetDevFunc>
    BufferSize = GetBufferSize(LayerIndex);
 800447c:	4630      	mov	r0, r6
 800447e:	f7ff fedd 	bl	800423c <GetBufferSize>
    AddrDst = layer_prop[LayerIndex].address + BufferSize * layer_prop[LayerIndex].buffer_index + (y0 * layer_prop[LayerIndex].xSize + x0) * layer_prop[LayerIndex].BytesPerPixel;
 8004482:	491c      	ldr	r1, [pc, #112]	; (80044f4 <CUSTOM_FillRect+0xb4>)
 8004484:	f04f 0c1c 	mov.w	ip, #28
 8004488:	fb0c fc06 	mul.w	ip, ip, r6
 800448c:	eb01 0e0c 	add.w	lr, r1, ip
 8004490:	f851 100c 	ldr.w	r1, [r1, ip]
 8004494:	f8de 300c 	ldr.w	r3, [lr, #12]
 8004498:	f8de 2014 	ldr.w	r2, [lr, #20]
    xSize = x1 - x0 + 1;
 800449c:	eba5 0508 	sub.w	r5, r5, r8
    AddrDst = layer_prop[LayerIndex].address + BufferSize * layer_prop[LayerIndex].buffer_index + (y0 * layer_prop[LayerIndex].xSize + x0) * layer_prop[LayerIndex].BytesPerPixel;
 80044a0:	fb09 8803 	mla	r8, r9, r3, r8
 80044a4:	fb02 1808 	mla	r8, r2, r8, r1
 80044a8:	f8de 1008 	ldr.w	r1, [lr, #8]
    xSize = x1 - x0 + 1;
 80044ac:	3501      	adds	r5, #1
    AddrDst = layer_prop[LayerIndex].address + BufferSize * layer_prop[LayerIndex].buffer_index + (y0 * layer_prop[LayerIndex].xSize + x0) * layer_prop[LayerIndex].BytesPerPixel;
 80044ae:	fb01 8100 	mla	r1, r1, r0, r8
    ySize = y1 - y0 + 1;
 80044b2:	eba4 0409 	sub.w	r4, r4, r9
  PixelFormat = LCD_LL_GetPixelformat(LayerIndex);
 80044b6:	4630      	mov	r0, r6
    DMA2D_FillBuffer(LayerIndex, (void *)AddrDst, xSize, ySize, layer_prop[LayerIndex].xSize - xSize, PixelIndex);
 80044b8:	eba3 0805 	sub.w	r8, r3, r5
    ySize = y1 - y0 + 1;
 80044bc:	3401      	adds	r4, #1
  PixelFormat = LCD_LL_GetPixelformat(LayerIndex);
 80044be:	f7ff ff59 	bl	8004374 <LCD_LL_GetPixelformat>
  DMA2D->NLR     = (uint32_t)(xSize << 16) | (U16)ySize;
 80044c2:	b2a4      	uxth	r4, r4
  DMA2D->CR      = 0x00030000UL | (1 << 9);        
 80044c4:	4b0c      	ldr	r3, [pc, #48]	; (80044f8 <CUSTOM_FillRect+0xb8>)
 80044c6:	4a0d      	ldr	r2, [pc, #52]	; (80044fc <CUSTOM_FillRect+0xbc>)
 80044c8:	601a      	str	r2, [r3, #0]
  DMA2D->NLR     = (uint32_t)(xSize << 16) | (U16)ySize;
 80044ca:	ea44 4405 	orr.w	r4, r4, r5, lsl #16
  DMA2D->OCOLR   = ColorIndex;                     
 80044ce:	f8c3 a038 	str.w	sl, [r3, #56]	; 0x38
  DMA2D->OMAR    = (uint32_t)pDst;                      
 80044d2:	63d9      	str	r1, [r3, #60]	; 0x3c
  DMA2D->OOR     = OffLine;                        
 80044d4:	f8c3 8040 	str.w	r8, [r3, #64]	; 0x40
  DMA2D->OPFCCR  = PixelFormat;                    
 80044d8:	6358      	str	r0, [r3, #52]	; 0x34
  DMA2D->NLR     = (uint32_t)(xSize << 16) | (U16)ySize;
 80044da:	645c      	str	r4, [r3, #68]	; 0x44
  DMA2D->CR     |= DMA2D_CR_START; 
 80044dc:	681a      	ldr	r2, [r3, #0]
 80044de:	f042 0201 	orr.w	r2, r2, #1
 80044e2:	601a      	str	r2, [r3, #0]
  while (DMA2D->CR & DMA2D_CR_START) 
 80044e4:	681a      	ldr	r2, [r3, #0]
 80044e6:	07d2      	lsls	r2, r2, #31
 80044e8:	d4fc      	bmi.n	80044e4 <CUSTOM_FillRect+0xa4>
}
 80044ea:	e8bd 8778 	ldmia.w	sp!, {r3, r4, r5, r6, r8, r9, sl, pc}
 80044ee:	bf00      	nop
 80044f0:	08004441 	.word	0x08004441
 80044f4:	20028830 	.word	0x20028830
 80044f8:	4002b000 	.word	0x4002b000
 80044fc:	00030200 	.word	0x00030200

08004500 <HAL_DMA2D_MspInit>:
{  
 8004500:	b082      	sub	sp, #8
  __HAL_RCC_DMA2D_CLK_ENABLE();   
 8004502:	2300      	movs	r3, #0
 8004504:	9301      	str	r3, [sp, #4]
 8004506:	4b06      	ldr	r3, [pc, #24]	; (8004520 <HAL_DMA2D_MspInit+0x20>)
 8004508:	6b1a      	ldr	r2, [r3, #48]	; 0x30
 800450a:	f442 0200 	orr.w	r2, r2, #8388608	; 0x800000
 800450e:	631a      	str	r2, [r3, #48]	; 0x30
 8004510:	6b1b      	ldr	r3, [r3, #48]	; 0x30
 8004512:	f403 0300 	and.w	r3, r3, #8388608	; 0x800000
 8004516:	9301      	str	r3, [sp, #4]
 8004518:	9b01      	ldr	r3, [sp, #4]
}
 800451a:	b002      	add	sp, #8
 800451c:	4770      	bx	lr
 800451e:	bf00      	nop
 8004520:	40023800 	.word	0x40023800

08004524 <HAL_LTDC_MspInit>:
{  
 8004524:	b570      	push	{r4, r5, r6, lr}
 8004526:	b08c      	sub	sp, #48	; 0x30
  __HAL_RCC_LTDC_CLK_ENABLE();
 8004528:	4b48      	ldr	r3, [pc, #288]	; (800464c <HAL_LTDC_MspInit+0x128>)
  HAL_GPIO_Init(GPIOB, &GPIO_Init_Structure);
 800452a:	4e49      	ldr	r6, [pc, #292]	; (8004650 <HAL_LTDC_MspInit+0x12c>)
  HAL_GPIO_Init(GPIOA, &GPIO_Init_Structure);
 800452c:	4849      	ldr	r0, [pc, #292]	; (8004654 <HAL_LTDC_MspInit+0x130>)
  HAL_GPIO_Init(GPIOG, &GPIO_Init_Structure);
 800452e:	4d4a      	ldr	r5, [pc, #296]	; (8004658 <HAL_LTDC_MspInit+0x134>)
  __HAL_RCC_LTDC_CLK_ENABLE();
 8004530:	2400      	movs	r4, #0
 8004532:	9400      	str	r4, [sp, #0]
 8004534:	6c5a      	ldr	r2, [r3, #68]	; 0x44
 8004536:	f042 6280 	orr.w	r2, r2, #67108864	; 0x4000000
 800453a:	645a      	str	r2, [r3, #68]	; 0x44
 800453c:	6c5a      	ldr	r2, [r3, #68]	; 0x44
 800453e:	f002 6280 	and.w	r2, r2, #67108864	; 0x4000000
 8004542:	9200      	str	r2, [sp, #0]
 8004544:	9a00      	ldr	r2, [sp, #0]
  __HAL_RCC_GPIOA_CLK_ENABLE();
 8004546:	9401      	str	r4, [sp, #4]
 8004548:	6b1a      	ldr	r2, [r3, #48]	; 0x30
 800454a:	f042 0201 	orr.w	r2, r2, #1
 800454e:	631a      	str	r2, [r3, #48]	; 0x30
 8004550:	6b1a      	ldr	r2, [r3, #48]	; 0x30
 8004552:	f002 0201 	and.w	r2, r2, #1
 8004556:	9201      	str	r2, [sp, #4]
 8004558:	9a01      	ldr	r2, [sp, #4]
  __HAL_RCC_GPIOB_CLK_ENABLE();
 800455a:	9402      	str	r4, [sp, #8]
 800455c:	6b1a      	ldr	r2, [r3, #48]	; 0x30
 800455e:	f042 0202 	orr.w	r2, r2, #2
 8004562:	631a      	str	r2, [r3, #48]	; 0x30
 8004564:	6b1a      	ldr	r2, [r3, #48]	; 0x30
 8004566:	f002 0202 	and.w	r2, r2, #2
 800456a:	9202      	str	r2, [sp, #8]
 800456c:	9a02      	ldr	r2, [sp, #8]
  __HAL_RCC_GPIOC_CLK_ENABLE();
 800456e:	9403      	str	r4, [sp, #12]
 8004570:	6b1a      	ldr	r2, [r3, #48]	; 0x30
 8004572:	f042 0204 	orr.w	r2, r2, #4
 8004576:	631a      	str	r2, [r3, #48]	; 0x30
 8004578:	6b1a      	ldr	r2, [r3, #48]	; 0x30
 800457a:	f002 0204 	and.w	r2, r2, #4
 800457e:	9203      	str	r2, [sp, #12]
 8004580:	9a03      	ldr	r2, [sp, #12]
  __HAL_RCC_GPIOD_CLK_ENABLE();
 8004582:	9404      	str	r4, [sp, #16]
 8004584:	6b1a      	ldr	r2, [r3, #48]	; 0x30
 8004586:	f042 0208 	orr.w	r2, r2, #8
 800458a:	631a      	str	r2, [r3, #48]	; 0x30
 800458c:	6b1a      	ldr	r2, [r3, #48]	; 0x30
 800458e:	f002 0208 	and.w	r2, r2, #8
 8004592:	9204      	str	r2, [sp, #16]
 8004594:	9a04      	ldr	r2, [sp, #16]
  __HAL_RCC_GPIOF_CLK_ENABLE();
 8004596:	9405      	str	r4, [sp, #20]
 8004598:	6b1a      	ldr	r2, [r3, #48]	; 0x30
 800459a:	f042 0220 	orr.w	r2, r2, #32
 800459e:	631a      	str	r2, [r3, #48]	; 0x30
 80045a0:	6b1a      	ldr	r2, [r3, #48]	; 0x30
 80045a2:	f002 0220 	and.w	r2, r2, #32
 80045a6:	9205      	str	r2, [sp, #20]
 80045a8:	9a05      	ldr	r2, [sp, #20]
  __HAL_RCC_GPIOG_CLK_ENABLE();
 80045aa:	9406      	str	r4, [sp, #24]
 80045ac:	6b1a      	ldr	r2, [r3, #48]	; 0x30
 80045ae:	f042 0240 	orr.w	r2, r2, #64	; 0x40
 80045b2:	631a      	str	r2, [r3, #48]	; 0x30
 80045b4:	6b1b      	ldr	r3, [r3, #48]	; 0x30
 80045b6:	f003 0340 	and.w	r3, r3, #64	; 0x40
 80045ba:	9306      	str	r3, [sp, #24]
  GPIO_Init_Structure.Mode = GPIO_MODE_AF_PP;
 80045bc:	f641 0258 	movw	r2, #6232	; 0x1858
  __HAL_RCC_GPIOG_CLK_ENABLE();
 80045c0:	9b06      	ldr	r3, [sp, #24]
  GPIO_Init_Structure.Mode = GPIO_MODE_AF_PP;
 80045c2:	2302      	movs	r3, #2
 80045c4:	e9cd 2307 	strd	r2, r3, [sp, #28]
  GPIO_Init_Structure.Speed = GPIO_SPEED_FAST;
 80045c8:	e9cd 4309 	strd	r4, r3, [sp, #36]	; 0x24
  HAL_GPIO_Init(GPIOA, &GPIO_Init_Structure);
 80045cc:	a907      	add	r1, sp, #28
  GPIO_Init_Structure.Alternate= GPIO_AF14_LTDC;
 80045ce:	230e      	movs	r3, #14
 80045d0:	930b      	str	r3, [sp, #44]	; 0x2c
  HAL_GPIO_Init(GPIOA, &GPIO_Init_Structure);
 80045d2:	f7fd fb21 	bl	8001c18 <HAL_GPIO_Init>
  GPIO_Init_Structure.Pin = GPIO_PIN_8 | \
 80045d6:	f44f 6370 	mov.w	r3, #3840	; 0xf00
  HAL_GPIO_Init(GPIOB, &GPIO_Init_Structure);
 80045da:	a907      	add	r1, sp, #28
 80045dc:	4630      	mov	r0, r6
  GPIO_Init_Structure.Pin = GPIO_PIN_8 | \
 80045de:	9307      	str	r3, [sp, #28]
  HAL_GPIO_Init(GPIOB, &GPIO_Init_Structure);
 80045e0:	f7fd fb1a 	bl	8001c18 <HAL_GPIO_Init>
  GPIO_Init_Structure.Pin = GPIO_PIN_6 | GPIO_PIN_7 | GPIO_PIN_10;
 80045e4:	f44f 6398 	mov.w	r3, #1216	; 0x4c0
  HAL_GPIO_Init(GPIOC, &GPIO_Init_Structure);
 80045e8:	a907      	add	r1, sp, #28
 80045ea:	481c      	ldr	r0, [pc, #112]	; (800465c <HAL_LTDC_MspInit+0x138>)
  GPIO_Init_Structure.Pin = GPIO_PIN_6 | GPIO_PIN_7 | GPIO_PIN_10;
 80045ec:	9307      	str	r3, [sp, #28]
  HAL_GPIO_Init(GPIOC, &GPIO_Init_Structure);
 80045ee:	f7fd fb13 	bl	8001c18 <HAL_GPIO_Init>
  GPIO_Init_Structure.Pin = GPIO_PIN_3 | GPIO_PIN_6;
 80045f2:	2348      	movs	r3, #72	; 0x48
  HAL_GPIO_Init(GPIOD, &GPIO_Init_Structure);
 80045f4:	a907      	add	r1, sp, #28
 80045f6:	481a      	ldr	r0, [pc, #104]	; (8004660 <HAL_LTDC_MspInit+0x13c>)
  GPIO_Init_Structure.Pin = GPIO_PIN_3 | GPIO_PIN_6;
 80045f8:	9307      	str	r3, [sp, #28]
  HAL_GPIO_Init(GPIOD, &GPIO_Init_Structure);
 80045fa:	f7fd fb0d 	bl	8001c18 <HAL_GPIO_Init>
  GPIO_Init_Structure.Pin = GPIO_PIN_10;
 80045fe:	f44f 6380 	mov.w	r3, #1024	; 0x400
  HAL_GPIO_Init(GPIOF, &GPIO_Init_Structure);     
 8004602:	a907      	add	r1, sp, #28
 8004604:	4817      	ldr	r0, [pc, #92]	; (8004664 <HAL_LTDC_MspInit+0x140>)
  GPIO_Init_Structure.Pin = GPIO_PIN_10;
 8004606:	9307      	str	r3, [sp, #28]
  HAL_GPIO_Init(GPIOF, &GPIO_Init_Structure);     
 8004608:	f7fd fb06 	bl	8001c18 <HAL_GPIO_Init>
  GPIO_Init_Structure.Pin = GPIO_PIN_6 | GPIO_PIN_7 | \
 800460c:	f44f 630c 	mov.w	r3, #2240	; 0x8c0
  HAL_GPIO_Init(GPIOG, &GPIO_Init_Structure);
 8004610:	a907      	add	r1, sp, #28
 8004612:	4628      	mov	r0, r5
  GPIO_Init_Structure.Pin = GPIO_PIN_6 | GPIO_PIN_7 | \
 8004614:	9307      	str	r3, [sp, #28]
  HAL_GPIO_Init(GPIOG, &GPIO_Init_Structure);
 8004616:	f7fd faff 	bl	8001c18 <HAL_GPIO_Init>
  GPIO_Init_Structure.Pin = GPIO_PIN_0 | GPIO_PIN_1;
 800461a:	2303      	movs	r3, #3
 800461c:	9307      	str	r3, [sp, #28]
  HAL_GPIO_Init(GPIOB, &GPIO_Init_Structure);
 800461e:	a907      	add	r1, sp, #28
  GPIO_Init_Structure.Alternate= GPIO_AF9_LTDC;
 8004620:	2309      	movs	r3, #9
  HAL_GPIO_Init(GPIOB, &GPIO_Init_Structure);
 8004622:	4630      	mov	r0, r6
  GPIO_Init_Structure.Alternate= GPIO_AF9_LTDC;
 8004624:	930b      	str	r3, [sp, #44]	; 0x2c
  HAL_GPIO_Init(GPIOB, &GPIO_Init_Structure);
 8004626:	f7fd faf7 	bl	8001c18 <HAL_GPIO_Init>
  GPIO_Init_Structure.Pin = GPIO_PIN_10 | GPIO_PIN_12;
 800462a:	f44f 53a0 	mov.w	r3, #5120	; 0x1400
  HAL_GPIO_Init(GPIOG, &GPIO_Init_Structure);
 800462e:	a907      	add	r1, sp, #28
 8004630:	4628      	mov	r0, r5
  GPIO_Init_Structure.Pin = GPIO_PIN_10 | GPIO_PIN_12;
 8004632:	9307      	str	r3, [sp, #28]
  HAL_GPIO_Init(GPIOG, &GPIO_Init_Structure);
 8004634:	f7fd faf0 	bl	8001c18 <HAL_GPIO_Init>
  HAL_NVIC_SetPriority(LTDC_IRQn, 0xF, 0);
 8004638:	4622      	mov	r2, r4
 800463a:	210f      	movs	r1, #15
 800463c:	2058      	movs	r0, #88	; 0x58
 800463e:	f7fd f9ab 	bl	8001998 <HAL_NVIC_SetPriority>
  HAL_NVIC_EnableIRQ(LTDC_IRQn);
 8004642:	2058      	movs	r0, #88	; 0x58
 8004644:	f7fd f9da 	bl	80019fc <HAL_NVIC_EnableIRQ>
}
 8004648:	b00c      	add	sp, #48	; 0x30
 800464a:	bd70      	pop	{r4, r5, r6, pc}
 800464c:	40023800 	.word	0x40023800
 8004650:	40020400 	.word	0x40020400
 8004654:	40020000 	.word	0x40020000
 8004658:	40021800 	.word	0x40021800
 800465c:	40020800 	.word	0x40020800
 8004660:	40020c00 	.word	0x40020c00
 8004664:	40021400 	.word	0x40021400

08004668 <HAL_LTDC_MspDeInit>:
  __HAL_RCC_LTDC_FORCE_RESET();
 8004668:	4b04      	ldr	r3, [pc, #16]	; (800467c <HAL_LTDC_MspDeInit+0x14>)
 800466a:	6a5a      	ldr	r2, [r3, #36]	; 0x24
 800466c:	f042 6280 	orr.w	r2, r2, #67108864	; 0x4000000
 8004670:	625a      	str	r2, [r3, #36]	; 0x24
  __HAL_RCC_LTDC_RELEASE_RESET();
 8004672:	6a5a      	ldr	r2, [r3, #36]	; 0x24
 8004674:	f022 6280 	bic.w	r2, r2, #67108864	; 0x4000000
 8004678:	625a      	str	r2, [r3, #36]	; 0x24
}
 800467a:	4770      	bx	lr
 800467c:	40023800 	.word	0x40023800

08004680 <HAL_LTDC_LineEventCallback>:
{
 8004680:	b570      	push	{r4, r5, r6, lr}
    if (layer_prop[layer].pending_buffer >= 0) 
 8004682:	4c11      	ldr	r4, [pc, #68]	; (80046c8 <HAL_LTDC_LineEventCallback+0x48>)
 8004684:	6863      	ldr	r3, [r4, #4]
 8004686:	2b00      	cmp	r3, #0
{
 8004688:	4605      	mov	r5, r0
    if (layer_prop[layer].pending_buffer >= 0) 
 800468a:	db17      	blt.n	80046bc <HAL_LTDC_LineEventCallback+0x3c>
      Addr = layer_prop[layer].address + layer_prop[layer].xSize * layer_prop[layer].ySize * layer_prop[layer].pending_buffer * layer_prop[layer].BytesPerPixel;
 800468c:	e9d4 1203 	ldrd	r1, r2, [r4, #12]
 8004690:	6863      	ldr	r3, [r4, #4]
 8004692:	6966      	ldr	r6, [r4, #20]
 8004694:	4351      	muls	r1, r2
 8004696:	434b      	muls	r3, r1
 8004698:	6821      	ldr	r1, [r4, #0]
      HAL_LTDC_SetAddress(hltdc, Addr, layer);
 800469a:	2200      	movs	r2, #0
 800469c:	fb06 1103 	mla	r1, r6, r3, r1
 80046a0:	f7fe fa91 	bl	8002bc6 <HAL_LTDC_SetAddress>
	  __HAL_LTDC_RELOAD_IMMEDIATE_CONFIG(hltdc);
 80046a4:	682a      	ldr	r2, [r5, #0]
 80046a6:	6a53      	ldr	r3, [r2, #36]	; 0x24
 80046a8:	f043 0301 	orr.w	r3, r3, #1
 80046ac:	6253      	str	r3, [r2, #36]	; 0x24
      GUI_MULTIBUF_ConfirmEx(layer, layer_prop[layer].pending_buffer);
 80046ae:	6861      	ldr	r1, [r4, #4]
 80046b0:	2000      	movs	r0, #0
 80046b2:	f001 fc8d 	bl	8005fd0 <GUI_MULTIBUF_ConfirmEx>
      layer_prop[layer].pending_buffer = -1;
 80046b6:	f04f 33ff 	mov.w	r3, #4294967295	; 0xffffffff
 80046ba:	6063      	str	r3, [r4, #4]
  HAL_LTDC_ProgramLineEvent(hltdc, 0);
 80046bc:	4628      	mov	r0, r5
 80046be:	2100      	movs	r1, #0
}
 80046c0:	e8bd 4070 	ldmia.w	sp!, {r4, r5, r6, lr}
  HAL_LTDC_ProgramLineEvent(hltdc, 0);
 80046c4:	f7fe baa0 	b.w	8002c08 <HAL_LTDC_ProgramLineEvent>
 80046c8:	20028830 	.word	0x20028830

080046cc <LCD_X_Config>:
{
 80046cc:	b570      	push	{r4, r5, r6, lr}
      hltdc.Instance = LTDC;
 80046ce:	4c61      	ldr	r4, [pc, #388]	; (8004854 <LCD_X_Config+0x188>)
 80046d0:	4e61      	ldr	r6, [pc, #388]	; (8004858 <LCD_X_Config+0x18c>)
 80046d2:	6026      	str	r6, [r4, #0]
      HAL_LTDC_DeInit(&hltdc);
 80046d4:	4620      	mov	r0, r4
 80046d6:	f7fe f8d3 	bl	8002880 <HAL_LTDC_DeInit>
      ili9341_Init();
 80046da:	f7fc f88c 	bl	80007f6 <ili9341_Init>
      hltdc.Init.VerticalSync = 1;
 80046de:	2209      	movs	r2, #9
 80046e0:	2301      	movs	r3, #1
 80046e2:	e9c4 2305 	strd	r2, r3, [r4, #20]
      hltdc.Init.AccumulatedVBP = 3;  
 80046e6:	211d      	movs	r1, #29
 80046e8:	2303      	movs	r3, #3
 80046ea:	e9c4 1307 	strd	r1, r3, [r4, #28]
      hltdc.Init.AccumulatedActiveH = 323;
 80046ee:	f240 100d 	movw	r0, #269	; 0x10d
 80046f2:	f240 1343 	movw	r3, #323	; 0x143
 80046f6:	e9c4 0309 	strd	r0, r3, [r4, #36]	; 0x24
      hltdc.Init.TotalHeigh = 327;
 80046fa:	f240 1517 	movw	r5, #279	; 0x117
 80046fe:	f240 1347 	movw	r3, #327	; 0x147
 8004702:	e9c4 530b 	strd	r5, r3, [r4, #44]	; 0x2c
      PeriphClkInitStruct.PeriphClockSelection = RCC_PERIPHCLK_LTDC;
 8004706:	2308      	movs	r3, #8
 8004708:	f8c4 30a8 	str.w	r3, [r4, #168]	; 0xa8
      PeriphClkInitStruct.PLLSAI.PLLSAIN = 192;
 800470c:	23c0      	movs	r3, #192	; 0xc0
      hltdc.Init.Backcolor.Blue = 0;
 800470e:	2500      	movs	r5, #0
      PeriphClkInitStruct.PLLSAI.PLLSAIN = 192;
 8004710:	f8c4 30b8 	str.w	r3, [r4, #184]	; 0xb8
      PeriphClkInitStruct.PLLSAI.PLLSAIR = 4;
 8004714:	2304      	movs	r3, #4
 8004716:	f8c4 30c0 	str.w	r3, [r4, #192]	; 0xc0
      hltdc.Init.Backcolor.Blue = 0;
 800471a:	86a5      	strh	r5, [r4, #52]	; 0x34
      PeriphClkInitStruct.PLLSAIDivR = RCC_PLLSAIDIVR_8;
 800471c:	f44f 3300 	mov.w	r3, #131072	; 0x20000
      HAL_RCCEx_PeriphCLKConfig(&PeriphClkInitStruct);
 8004720:	f104 00a8 	add.w	r0, r4, #168	; 0xa8
      PeriphClkInitStruct.PLLSAIDivR = RCC_PLLSAIDIVR_8;
 8004724:	f8c4 30cc 	str.w	r3, [r4, #204]	; 0xcc
      hltdc.Init.Backcolor.Red = 0;
 8004728:	f884 5036 	strb.w	r5, [r4, #54]	; 0x36
      HAL_RCCEx_PeriphCLKConfig(&PeriphClkInitStruct);
 800472c:	f7fe fd4e 	bl	80031cc <HAL_RCCEx_PeriphCLKConfig>
      HAL_LTDC_Init(&hltdc);
 8004730:	4620      	mov	r0, r4
      hltdc.Init.VSPolarity = LTDC_VSPOLARITY_AL; 
 8004732:	e9c4 5501 	strd	r5, r5, [r4, #4]
      hltdc.Init.PCPolarity = LTDC_PCPOLARITY_IPC;
 8004736:	e9c4 5503 	strd	r5, r5, [r4, #12]
      hltdc.Instance = LTDC;
 800473a:	6026      	str	r6, [r4, #0]
      HAL_LTDC_Init(&hltdc);
 800473c:	f7fe f834 	bl	80027a8 <HAL_LTDC_Init>
      HAL_LTDC_ProgramLineEvent(&hltdc, 0);
 8004740:	4629      	mov	r1, r5
 8004742:	4620      	mov	r0, r4
 8004744:	f7fe fa60 	bl	8002c08 <HAL_LTDC_ProgramLineEvent>
  hdma2d.Instance          = DMA2D; 
 8004748:	4620      	mov	r0, r4
  hdma2d.Init.ColorMode    = DMA2D_RGB565;
 800474a:	f44f 3140 	mov.w	r1, #196608	; 0x30000
 800474e:	2302      	movs	r3, #2
 8004750:	e9c4 1337 	strd	r1, r3, [r4, #220]	; 0xdc
  hdma2d.Instance          = DMA2D; 
 8004754:	4b41      	ldr	r3, [pc, #260]	; (800485c <LCD_X_Config+0x190>)
 8004756:	f840 3fd8 	str.w	r3, [r0, #216]!
  hdma2d.Init.OutputOffset = 0x0;     
 800475a:	f8c4 50e4 	str.w	r5, [r4, #228]	; 0xe4
  if(HAL_DMA2D_Init(&hdma2d) != HAL_OK)
 800475e:	f7fd fa2f 	bl	8001bc0 <HAL_DMA2D_Init>
 8004762:	4604      	mov	r4, r0
 8004764:	b100      	cbz	r0, 8004768 <LCD_X_Config+0x9c>
    while (1);
 8004766:	e7fe      	b.n	8004766 <LCD_X_Config+0x9a>
  GUI_DEVICE_CreateAndLink(DISPLAY_DRIVER_0, COLOR_CONVERSION_0, 0, 0);
 8004768:	4603      	mov	r3, r0
 800476a:	4602      	mov	r2, r0
 800476c:	493c      	ldr	r1, [pc, #240]	; (8004860 <LCD_X_Config+0x194>)
 800476e:	483d      	ldr	r0, [pc, #244]	; (8004864 <LCD_X_Config+0x198>)
 8004770:	f001 fb86 	bl	8005e80 <GUI_DEVICE_CreateAndLink>
  if (LCD_GetSwapXYEx(0)) {
 8004774:	4620      	mov	r0, r4
 8004776:	f002 fb55 	bl	8006e24 <LCD_GetSwapXYEx>
 800477a:	4605      	mov	r5, r0
 800477c:	2800      	cmp	r0, #0
 800477e:	d05e      	beq.n	800483e <LCD_X_Config+0x172>
    LCD_SetSizeEx (0, YSIZE_PHYS, XSIZE_PHYS);
 8004780:	22f0      	movs	r2, #240	; 0xf0
 8004782:	f44f 71a0 	mov.w	r1, #320	; 0x140
 8004786:	4620      	mov	r0, r4
 8004788:	f002 fd47 	bl	800721a <LCD_SetSizeEx>
    LCD_SetVSizeEx(0, YSIZE_PHYS * NUM_VSCREENS, XSIZE_PHYS);
 800478c:	22f0      	movs	r2, #240	; 0xf0
 800478e:	f44f 71a0 	mov.w	r1, #320	; 0x140
 8004792:	4620      	mov	r0, r4
  layer_prop[0].address = LCD_LAYER0_FRAME_BUFFER;
 8004794:	4c34      	ldr	r4, [pc, #208]	; (8004868 <LCD_X_Config+0x19c>)
    LCD_SetVSizeEx(0, XSIZE_PHYS, YSIZE_PHYS * NUM_VSCREENS);
 8004796:	f002 fd6e 	bl	8007276 <LCD_SetVSizeEx>
    layer_prop[i].pColorConvAPI = (LCD_API_COLOR_CONV *)apColorConvAPI[i];
 800479a:	4b31      	ldr	r3, [pc, #196]	; (8004860 <LCD_X_Config+0x194>)
  layer_prop[0].address = LCD_LAYER0_FRAME_BUFFER;
 800479c:	4933      	ldr	r1, [pc, #204]	; (800486c <LCD_X_Config+0x1a0>)
    layer_prop[i].pColorConvAPI = (LCD_API_COLOR_CONV *)apColorConvAPI[i];
 800479e:	61a3      	str	r3, [r4, #24]
    layer_prop[i].pending_buffer = -1;
 80047a0:	f04f 33ff 	mov.w	r3, #4294967295	; 0xffffffff
 80047a4:	6063      	str	r3, [r4, #4]
  layer_prop[0].address = LCD_LAYER0_FRAME_BUFFER;
 80047a6:	6021      	str	r1, [r4, #0]
    LCD_SetVRAMAddrEx(i, (void *)(layer_prop[i].address));
 80047a8:	2000      	movs	r0, #0
 80047aa:	f002 fd4e 	bl	800724a <LCD_SetVRAMAddrEx>
    layer_prop[i].BytesPerPixel = LCD_GetBitsPerPixelEx(i) >> 3;
 80047ae:	2000      	movs	r0, #0
 80047b0:	f002 fb2c 	bl	8006e0c <LCD_GetBitsPerPixelEx>
 80047b4:	10c0      	asrs	r0, r0, #3
    LCD_SetDevFunc(i, LCD_DEVFUNC_COPYBUFFER, (void(*)(void))CUSTOM_CopyBuffer);
 80047b6:	4a2e      	ldr	r2, [pc, #184]	; (8004870 <LCD_X_Config+0x1a4>)
    layer_prop[i].BytesPerPixel = LCD_GetBitsPerPixelEx(i) >> 3;
 80047b8:	6160      	str	r0, [r4, #20]
    LCD_SetDevFunc(i, LCD_DEVFUNC_COPYBUFFER, (void(*)(void))CUSTOM_CopyBuffer);
 80047ba:	2121      	movs	r1, #33	; 0x21
 80047bc:	2000      	movs	r0, #0
 80047be:	f002 fce4 	bl	800718a <LCD_SetDevFunc>
    LCD_SetDevFunc(i, LCD_DEVFUNC_COPYRECT,   (void(*)(void))CUSTOM_CopyRect);
 80047c2:	4a2c      	ldr	r2, [pc, #176]	; (8004874 <LCD_X_Config+0x1a8>)
 80047c4:	2123      	movs	r1, #35	; 0x23
 80047c6:	2000      	movs	r0, #0
 80047c8:	f002 fcdf 	bl	800718a <LCD_SetDevFunc>
  if (LayerIndex >= GUI_NUM_LAYERS) 
 80047cc:	f7ff fd94 	bl	80042f8 <LCD_LL_GetPixelformat.part.0>
    if (LCD_LL_GetPixelformat(i) <= LTDC_PIXEL_FORMAT_ARGB4444) 
 80047d0:	2804      	cmp	r0, #4
 80047d2:	d809      	bhi.n	80047e8 <LCD_X_Config+0x11c>
      LCD_SetDevFunc(i, LCD_DEVFUNC_FILLRECT, (void(*)(void))CUSTOM_FillRect);
 80047d4:	4a28      	ldr	r2, [pc, #160]	; (8004878 <LCD_X_Config+0x1ac>)
 80047d6:	2119      	movs	r1, #25
 80047d8:	2000      	movs	r0, #0
 80047da:	f002 fcd6 	bl	800718a <LCD_SetDevFunc>
      LCD_SetDevFunc(i, LCD_DEVFUNC_DRAWBMP_8BPP, (void(*)(void))BSP_LCD_DrawBitmap8bpp);
 80047de:	4a27      	ldr	r2, [pc, #156]	; (800487c <LCD_X_Config+0x1b0>)
 80047e0:	2125      	movs	r1, #37	; 0x25
 80047e2:	2000      	movs	r0, #0
 80047e4:	f002 fcd1 	bl	800718a <LCD_SetDevFunc>
  if (LayerIndex >= GUI_NUM_LAYERS) 
 80047e8:	f7ff fd86 	bl	80042f8 <LCD_LL_GetPixelformat.part.0>
    if (LCD_LL_GetPixelformat(i) == LTDC_PIXEL_FORMAT_RGB565) {
 80047ec:	2802      	cmp	r0, #2
 80047ee:	d104      	bne.n	80047fa <LCD_X_Config+0x12e>
      LCD_SetDevFunc(i, LCD_DEVFUNC_DRAWBMP_16BPP, (void(*)(void))BSP_LCD_DrawBitmap16bpp);     /* Set up drawing routine for 16bpp bitmap using DMA2D. Makes only sense with RGB565 */
 80047f0:	4a23      	ldr	r2, [pc, #140]	; (8004880 <LCD_X_Config+0x1b4>)
 80047f2:	2124      	movs	r1, #36	; 0x24
 80047f4:	2000      	movs	r0, #0
 80047f6:	f002 fcc8 	bl	800718a <LCD_SetDevFunc>
    GUICC_M1555I_SetCustColorConv(Color2IndexBulk_M1555IDMA2D, Index2ColorBulk_M1555IDMA2D); /* Set up custom bulk color conversion using DMA2D for ARGB1555 */
 80047fa:	4922      	ldr	r1, [pc, #136]	; (8004884 <LCD_X_Config+0x1b8>)
 80047fc:	4822      	ldr	r0, [pc, #136]	; (8004888 <LCD_X_Config+0x1bc>)
 80047fe:	f000 fb31 	bl	8004e64 <GUICC_M1555I_SetCustColorConv>
    GUICC_M565_SetCustColorConv  (Color2IndexBulk_M565DMA2D,   Index2ColorBulk_M565DMA2D);   /* Set up custom bulk color conversion using DMA2D for RGB565 */
 8004802:	4922      	ldr	r1, [pc, #136]	; (800488c <LCD_X_Config+0x1c0>)
 8004804:	4822      	ldr	r0, [pc, #136]	; (8004890 <LCD_X_Config+0x1c4>)
 8004806:	f000 fccd 	bl	80051a4 <GUICC_M565_SetCustColorConv>
    GUICC_M4444I_SetCustColorConv(Color2IndexBulk_M4444IDMA2D, Index2ColorBulk_M4444IDMA2D); /* Set up custom bulk color conversion using DMA2D for ARGB4444 */
 800480a:	4922      	ldr	r1, [pc, #136]	; (8004894 <LCD_X_Config+0x1c8>)
 800480c:	4822      	ldr	r0, [pc, #136]	; (8004898 <LCD_X_Config+0x1cc>)
 800480e:	f000 fbd3 	bl	8004fb8 <GUICC_M4444I_SetCustColorConv>
    GUICC_M888_SetCustColorConv  (Color2IndexBulk_M888DMA2D,   Index2ColorBulk_M888DMA2D);   /* Set up custom bulk color conversion using DMA2D for RGB888 */
 8004812:	4922      	ldr	r1, [pc, #136]	; (800489c <LCD_X_Config+0x1d0>)
 8004814:	4822      	ldr	r0, [pc, #136]	; (80048a0 <LCD_X_Config+0x1d4>)
 8004816:	f000 fd1d 	bl	8005254 <GUICC_M888_SetCustColorConv>
    GUICC_M8888I_SetCustColorConv(Color2IndexBulk_M8888IDMA2D, Index2ColorBulk_M8888IDMA2D); /* Set up custom bulk color conversion using DMA2D for ARGB8888 */
 800481a:	4922      	ldr	r1, [pc, #136]	; (80048a4 <LCD_X_Config+0x1d8>)
 800481c:	4822      	ldr	r0, [pc, #136]	; (80048a8 <LCD_X_Config+0x1dc>)
 800481e:	f000 fc2f 	bl	8005080 <GUICC_M8888I_SetCustColorConv>
    GUI_SetFuncAlphaBlending(DMA2D_AlphaBlending);                                                /* Set up custom alpha blending function using DMA2D */
 8004822:	4822      	ldr	r0, [pc, #136]	; (80048ac <LCD_X_Config+0x1e0>)
 8004824:	f001 fe54 	bl	80064d0 <GUI_SetFuncAlphaBlending>
    GUI_SetFuncGetpPalConvTable(_LCD_GetpPalConvTable);
 8004828:	4821      	ldr	r0, [pc, #132]	; (80048b0 <LCD_X_Config+0x1e4>)
 800482a:	f001 f96f 	bl	8005b0c <GUI_SetFuncGetpPalConvTable>
    GUI_SetFuncMixColors(DMA2D_MixColors);
 800482e:	4821      	ldr	r0, [pc, #132]	; (80048b4 <LCD_X_Config+0x1e8>)
 8004830:	f001 fe56 	bl	80064e0 <GUI_SetFuncMixColors>
}
 8004834:	e8bd 4070 	ldmia.w	sp!, {r4, r5, r6, lr}
    GUI_SetFuncMixColorsBulk(LCD_MixColorsBulk);
 8004838:	481f      	ldr	r0, [pc, #124]	; (80048b8 <LCD_X_Config+0x1ec>)
 800483a:	f001 be59 	b.w	80064f0 <GUI_SetFuncMixColorsBulk>
    LCD_SetSizeEx (0, XSIZE_PHYS, YSIZE_PHYS);
 800483e:	f44f 72a0 	mov.w	r2, #320	; 0x140
 8004842:	21f0      	movs	r1, #240	; 0xf0
 8004844:	f002 fce9 	bl	800721a <LCD_SetSizeEx>
    LCD_SetVSizeEx(0, XSIZE_PHYS, YSIZE_PHYS * NUM_VSCREENS);
 8004848:	f44f 72a0 	mov.w	r2, #320	; 0x140
 800484c:	21f0      	movs	r1, #240	; 0xf0
 800484e:	4628      	mov	r0, r5
 8004850:	e7a0      	b.n	8004794 <LCD_X_Config+0xc8>
 8004852:	bf00      	nop
 8004854:	2002884c 	.word	0x2002884c
 8004858:	40016800 	.word	0x40016800
 800485c:	4002b000 	.word	0x4002b000
 8004860:	0800b52c 	.word	0x0800b52c
 8004864:	0800b918 	.word	0x0800b918
 8004868:	20028830 	.word	0x20028830
 800486c:	d0200000 	.word	0xd0200000
 8004870:	080043c1 	.word	0x080043c1
 8004874:	080043fd 	.word	0x080043fd
 8004878:	08004441 	.word	0x08004441
 800487c:	0800416d 	.word	0x0800416d
 8004880:	0800409d 	.word	0x0800409d
 8004884:	08004a9f 	.word	0x08004a9f
 8004888:	08004adb 	.word	0x08004adb
 800488c:	08004a91 	.word	0x08004a91
 8004890:	08004acd 	.word	0x08004acd
 8004894:	08004a83 	.word	0x08004a83
 8004898:	08004abf 	.word	0x08004abf
 800489c:	08004a7f 	.word	0x08004a7f
 80048a0:	08004abb 	.word	0x08004abb
 80048a4:	08004a71 	.word	0x08004a71
 80048a8:	08004aad 	.word	0x08004aad
 80048ac:	08003ee1 	.word	0x08003ee1
 80048b0:	08003dd5 	.word	0x08003dd5
 80048b4:	08003cb9 	.word	0x08003cb9
 80048b8:	08003f95 	.word	0x08003f95

080048bc <LCD_X_DisplayDriver>:
{
 80048bc:	b570      	push	{r4, r5, r6, lr}
  switch (Cmd) 
 80048be:	3901      	subs	r1, #1
{
 80048c0:	b08e      	sub	sp, #56	; 0x38
 80048c2:	4604      	mov	r4, r0
 80048c4:	4615      	mov	r5, r2
  switch (Cmd) 
 80048c6:	290d      	cmp	r1, #13
 80048c8:	f200 80c4 	bhi.w	8004a54 <LCD_X_DisplayDriver+0x198>
 80048cc:	e8df f001 	tbb	[pc, r1]
 80048d0:	6750c207 	.word	0x6750c207
 80048d4:	8c93736c 	.word	0x8c93736c
 80048d8:	a9c2a379 	.word	0xa9c2a379
 80048dc:	60b3      	.short	0x60b3
  if (LayerIndex < GUI_NUM_LAYERS) 
 80048de:	bb40      	cbnz	r0, 8004932 <LCD_X_DisplayDriver+0x76>
    layer_cfg.FBStartAdress = layer_prop[LayerIndex].address;
 80048e0:	4d5e      	ldr	r5, [pc, #376]	; (8004a5c <LCD_X_DisplayDriver+0x1a0>)
    layer_cfg.WindowX0 = 0;
 80048e2:	9001      	str	r0, [sp, #4]
    layer_cfg.WindowY1 = YSIZE_PHYS; 
 80048e4:	f44f 71a0 	mov.w	r1, #320	; 0x140
    layer_cfg.WindowX1 = XSIZE_PHYS;
 80048e8:	26f0      	movs	r6, #240	; 0xf0
    layer_cfg.WindowY1 = YSIZE_PHYS; 
 80048ea:	9104      	str	r1, [sp, #16]
    layer_cfg.WindowY0 = 0;
 80048ec:	e9cd 6002 	strd	r6, r0, [sp, #8]
  if (LayerIndex >= GUI_NUM_LAYERS) 
 80048f0:	f7ff fd02 	bl	80042f8 <LCD_LL_GetPixelformat.part.0>
    layer_cfg.FBStartAdress = layer_prop[LayerIndex].address;
 80048f4:	682b      	ldr	r3, [r5, #0]
 80048f6:	930a      	str	r3, [sp, #40]	; 0x28
    layer_cfg.Alpha = 255;
 80048f8:	23ff      	movs	r3, #255	; 0xff
    layer_cfg.Alpha0 = 0;
 80048fa:	e9cd 3406 	strd	r3, r4, [sp, #24]
    layer_cfg.BlendingFactor2 = LTDC_BLENDING_FACTOR2_PAxCA;
 80048fe:	f44f 62c0 	mov.w	r2, #1536	; 0x600
 8004902:	2307      	movs	r3, #7
 8004904:	e9cd 2308 	strd	r2, r3, [sp, #32]
    layer_cfg.ImageHeight = YSIZE_PHYS;
 8004908:	e9cd 610b 	strd	r6, r1, [sp, #44]	; 0x2c
    layer_cfg.PixelFormat = LCD_LL_GetPixelformat(LayerIndex);
 800490c:	9005      	str	r0, [sp, #20]
    HAL_LTDC_ConfigLayer(&hltdc, &layer_cfg, LayerIndex);  
 800490e:	4622      	mov	r2, r4
 8004910:	a901      	add	r1, sp, #4
 8004912:	4853      	ldr	r0, [pc, #332]	; (8004a60 <LCD_X_DisplayDriver+0x1a4>)
    layer_cfg.Backcolor.Blue = 0;
 8004914:	f8ad 4034 	strh.w	r4, [sp, #52]	; 0x34
    layer_cfg.Backcolor.Red = 0;
 8004918:	f88d 4036 	strb.w	r4, [sp, #54]	; 0x36
    HAL_LTDC_ConfigLayer(&hltdc, &layer_cfg, LayerIndex);  
 800491c:	f7fe f841 	bl	80029a2 <HAL_LTDC_ConfigLayer>
    if (LCD_GetBitsPerPixelEx(LayerIndex) <= 8) 
 8004920:	4620      	mov	r0, r4
 8004922:	f002 fa73 	bl	8006e0c <LCD_GetBitsPerPixelEx>
 8004926:	2808      	cmp	r0, #8
 8004928:	dc07      	bgt.n	800493a <LCD_X_DisplayDriver+0x7e>
      HAL_LTDC_EnableCLUT(&hltdc, LayerIndex);
 800492a:	484d      	ldr	r0, [pc, #308]	; (8004a60 <LCD_X_DisplayDriver+0x1a4>)
 800492c:	4621      	mov	r1, r4
 800492e:	f7fe f8e9 	bl	8002b04 <HAL_LTDC_EnableCLUT>
  int32_t r = 0;
 8004932:	2500      	movs	r5, #0
}
 8004934:	4628      	mov	r0, r5
 8004936:	b00e      	add	sp, #56	; 0x38
 8004938:	bd70      	pop	{r4, r5, r6, pc}
      if (layer_prop[LayerIndex].pColorConvAPI == GUICC_88666I) 
 800493a:	69aa      	ldr	r2, [r5, #24]
 800493c:	4b49      	ldr	r3, [pc, #292]	; (8004a64 <LCD_X_DisplayDriver+0x1a8>)
 800493e:	429a      	cmp	r2, r3
 8004940:	d1f7      	bne.n	8004932 <LCD_X_DisplayDriver+0x76>
        HAL_LTDC_EnableCLUT(&hltdc, LayerIndex);
 8004942:	4847      	ldr	r0, [pc, #284]	; (8004a60 <LCD_X_DisplayDriver+0x1a4>)
 8004944:	4d48      	ldr	r5, [pc, #288]	; (8004a68 <LCD_X_DisplayDriver+0x1ac>)
 8004946:	4621      	mov	r1, r4
 8004948:	f7fe f8dc 	bl	8002b04 <HAL_LTDC_EnableCLUT>
          LUT[i] = LCD_API_ColorConv_8666.pfIndex2Color(i);
 800494c:	4b47      	ldr	r3, [pc, #284]	; (8004a6c <LCD_X_DisplayDriver+0x1b0>)
 800494e:	685e      	ldr	r6, [r3, #4]
 8004950:	4620      	mov	r0, r4
 8004952:	47b0      	blx	r6
        for (i = 0; i < 256; i++) 
 8004954:	3401      	adds	r4, #1
 8004956:	f5b4 7f80 	cmp.w	r4, #256	; 0x100
          LUT[i] = LCD_API_ColorConv_8666.pfIndex2Color(i);
 800495a:	f845 0b04 	str.w	r0, [r5], #4
        for (i = 0; i < 256; i++) 
 800495e:	d1f7      	bne.n	8004950 <LCD_X_DisplayDriver+0x94>
        HAL_LTDC_ConfigCLUT(&hltdc, LUT, 256, LayerIndex);
 8004960:	4941      	ldr	r1, [pc, #260]	; (8004a68 <LCD_X_DisplayDriver+0x1ac>)
 8004962:	2300      	movs	r3, #0
 8004964:	4622      	mov	r2, r4
 8004966:	f5a1 708c 	sub.w	r0, r1, #280	; 0x118
    HAL_LTDC_ConfigCLUT(&hltdc, (uint32_t *)&(((LCD_X_SETLUTENTRY_INFO *)pData)->Color), 1, LayerIndex);
 800496a:	f7fe f864 	bl	8002a36 <HAL_LTDC_ConfigCLUT>
    break;
 800496e:	e7e0      	b.n	8004932 <LCD_X_DisplayDriver+0x76>
    addr = layer_prop[LayerIndex].address + ((LCD_X_SETORG_INFO *)pData)->yPos * layer_prop[LayerIndex].xSize * layer_prop[LayerIndex].BytesPerPixel;
 8004970:	4a3a      	ldr	r2, [pc, #232]	; (8004a5c <LCD_X_DisplayDriver+0x1a0>)
 8004972:	231c      	movs	r3, #28
 8004974:	4343      	muls	r3, r0
 8004976:	18d1      	adds	r1, r2, r3
 8004978:	6868      	ldr	r0, [r5, #4]
 800497a:	68cd      	ldr	r5, [r1, #12]
 800497c:	58d3      	ldr	r3, [r2, r3]
 800497e:	6949      	ldr	r1, [r1, #20]
 8004980:	4368      	muls	r0, r5
    HAL_LTDC_SetAddress(&hltdc, addr, LayerIndex);
 8004982:	fb01 3100 	mla	r1, r1, r0, r3
 8004986:	4622      	mov	r2, r4
 8004988:	4835      	ldr	r0, [pc, #212]	; (8004a60 <LCD_X_DisplayDriver+0x1a4>)
 800498a:	f7fe f91c 	bl	8002bc6 <HAL_LTDC_SetAddress>
 800498e:	e7d0      	b.n	8004932 <LCD_X_DisplayDriver+0x76>
    layer_prop[LayerIndex].pending_buffer = ((LCD_X_SHOWBUFFER_INFO *)pData)->Index;
 8004990:	4832      	ldr	r0, [pc, #200]	; (8004a5c <LCD_X_DisplayDriver+0x1a0>)
 8004992:	6813      	ldr	r3, [r2, #0]
 8004994:	221c      	movs	r2, #28
 8004996:	fb02 0404 	mla	r4, r2, r4, r0
 800499a:	6063      	str	r3, [r4, #4]
    break;
 800499c:	e7c9      	b.n	8004932 <LCD_X_DisplayDriver+0x76>
    HAL_LTDC_ConfigCLUT(&hltdc, (uint32_t *)&(((LCD_X_SETLUTENTRY_INFO *)pData)->Color), 1, LayerIndex);
 800499e:	4603      	mov	r3, r0
 80049a0:	2201      	movs	r2, #1
 80049a2:	482f      	ldr	r0, [pc, #188]	; (8004a60 <LCD_X_DisplayDriver+0x1a4>)
 80049a4:	4629      	mov	r1, r5
 80049a6:	e7e0      	b.n	800496a <LCD_X_DisplayDriver+0xae>
    __HAL_LTDC_ENABLE(&hltdc);
 80049a8:	4b2d      	ldr	r3, [pc, #180]	; (8004a60 <LCD_X_DisplayDriver+0x1a4>)
 80049aa:	681a      	ldr	r2, [r3, #0]
 80049ac:	6993      	ldr	r3, [r2, #24]
 80049ae:	f043 0301 	orr.w	r3, r3, #1
    __HAL_LTDC_DISABLE(&hltdc);
 80049b2:	6193      	str	r3, [r2, #24]
    break;
 80049b4:	e7bd      	b.n	8004932 <LCD_X_DisplayDriver+0x76>
    __HAL_LTDC_DISABLE(&hltdc);
 80049b6:	4b2a      	ldr	r3, [pc, #168]	; (8004a60 <LCD_X_DisplayDriver+0x1a4>)
 80049b8:	681a      	ldr	r2, [r3, #0]
 80049ba:	6993      	ldr	r3, [r2, #24]
 80049bc:	f023 0301 	bic.w	r3, r3, #1
 80049c0:	e7f7      	b.n	80049b2 <LCD_X_DisplayDriver+0xf6>
    __HAL_LTDC_ENABLE(&hltdc);
 80049c2:	4b27      	ldr	r3, [pc, #156]	; (8004a60 <LCD_X_DisplayDriver+0x1a4>)
    if(((LCD_X_SETVIS_INFO *)pData)->OnOff  == ENABLE )
 80049c4:	6829      	ldr	r1, [r5, #0]
    __HAL_LTDC_ENABLE(&hltdc);
 80049c6:	681a      	ldr	r2, [r3, #0]
      __HAL_LTDC_LAYER_ENABLE(&hltdc, LayerIndex); 
 80049c8:	01c4      	lsls	r4, r0, #7
 80049ca:	f102 0384 	add.w	r3, r2, #132	; 0x84
    if(((LCD_X_SETVIS_INFO *)pData)->OnOff  == ENABLE )
 80049ce:	2901      	cmp	r1, #1
      __HAL_LTDC_LAYER_ENABLE(&hltdc, LayerIndex); 
 80049d0:	5919      	ldr	r1, [r3, r4]
 80049d2:	bf0c      	ite	eq
 80049d4:	f041 0101 	orreq.w	r1, r1, #1
      __HAL_LTDC_LAYER_DISABLE(&hltdc, LayerIndex); 
 80049d8:	f021 0101 	bicne.w	r1, r1, #1
 80049dc:	5119      	str	r1, [r3, r4]
    __HAL_LTDC_RELOAD_IMMEDIATE_CONFIG(&hltdc); 
 80049de:	6a53      	ldr	r3, [r2, #36]	; 0x24
 80049e0:	f043 0301 	orr.w	r3, r3, #1
 80049e4:	6253      	str	r3, [r2, #36]	; 0x24
    break;
 80049e6:	e7a4      	b.n	8004932 <LCD_X_DisplayDriver+0x76>
    HAL_LTDC_SetWindowPosition(&hltdc, 
 80049e8:	e9d2 1200 	ldrd	r1, r2, [r2]
 80049ec:	4603      	mov	r3, r0
    HAL_LTDC_SetWindowPosition(&hltdc, xPos, yPos, LayerIndex);
 80049ee:	481c      	ldr	r0, [pc, #112]	; (8004a60 <LCD_X_DisplayDriver+0x1a4>)
 80049f0:	f7fe f8a0 	bl	8002b34 <HAL_LTDC_SetWindowPosition>
    break;
 80049f4:	e79d      	b.n	8004932 <LCD_X_DisplayDriver+0x76>
    GUI_GetLayerPosEx(LayerIndex, (int*)&xPos, (int*)&yPos);
 80049f6:	aa01      	add	r2, sp, #4
 80049f8:	4669      	mov	r1, sp
 80049fa:	f001 fb0f 	bl	800601c <GUI_GetLayerPosEx>
    layer_prop[LayerIndex].xSize = ((LCD_X_SETSIZE_INFO *)pData)->xSize;
 80049fe:	4b17      	ldr	r3, [pc, #92]	; (8004a5c <LCD_X_DisplayDriver+0x1a0>)
 8004a00:	221c      	movs	r2, #28
 8004a02:	fb02 3304 	mla	r3, r2, r4, r3
 8004a06:	682a      	ldr	r2, [r5, #0]
 8004a08:	60da      	str	r2, [r3, #12]
    layer_prop[LayerIndex].ySize = ((LCD_X_SETSIZE_INFO *)pData)->ySize;
 8004a0a:	686a      	ldr	r2, [r5, #4]
 8004a0c:	611a      	str	r2, [r3, #16]
    HAL_LTDC_SetWindowPosition(&hltdc, xPos, yPos, LayerIndex);
 8004a0e:	e9dd 1200 	ldrd	r1, r2, [sp]
 8004a12:	4623      	mov	r3, r4
 8004a14:	e7eb      	b.n	80049ee <LCD_X_DisplayDriver+0x132>
    HAL_LTDC_SetAlpha(&hltdc, ((LCD_X_SETALPHA_INFO *)pData)->Alpha, LayerIndex);
 8004a16:	4602      	mov	r2, r0
 8004a18:	6829      	ldr	r1, [r5, #0]
 8004a1a:	4811      	ldr	r0, [pc, #68]	; (8004a60 <LCD_X_DisplayDriver+0x1a4>)
 8004a1c:	f7fe f8b3 	bl	8002b86 <HAL_LTDC_SetAlpha>
    break;
 8004a20:	e787      	b.n	8004932 <LCD_X_DisplayDriver+0x76>
    if(((LCD_X_SETCHROMAMODE_INFO *)pData)->ChromaMode != 0)
 8004a22:	6815      	ldr	r5, [r2, #0]
      HAL_LTDC_EnableColorKeying(&hltdc, LayerIndex);
 8004a24:	4601      	mov	r1, r0
 8004a26:	480e      	ldr	r0, [pc, #56]	; (8004a60 <LCD_X_DisplayDriver+0x1a4>)
    if(((LCD_X_SETCHROMAMODE_INFO *)pData)->ChromaMode != 0)
 8004a28:	b115      	cbz	r5, 8004a30 <LCD_X_DisplayDriver+0x174>
      HAL_LTDC_EnableColorKeying(&hltdc, LayerIndex);
 8004a2a:	f7fe f83b 	bl	8002aa4 <HAL_LTDC_EnableColorKeying>
 8004a2e:	e780      	b.n	8004932 <LCD_X_DisplayDriver+0x76>
      HAL_LTDC_DisableColorKeying(&hltdc, LayerIndex);      
 8004a30:	f7fe f850 	bl	8002ad4 <HAL_LTDC_DisableColorKeying>
 8004a34:	e77e      	b.n	8004934 <LCD_X_DisplayDriver+0x78>
    Color = ((((LCD_X_SETCHROMA_INFO *)pData)->ChromaMin & 0xFF0000) >> 16) |\
 8004a36:	6813      	ldr	r3, [r2, #0]
            ((((LCD_X_SETCHROMA_INFO *)pData)->ChromaMin & 0x0000FF) << 16);
 8004a38:	041a      	lsls	r2, r3, #16
    Color = ((((LCD_X_SETCHROMA_INFO *)pData)->ChromaMin & 0xFF0000) >> 16) |\
 8004a3a:	f3c3 4107 	ubfx	r1, r3, #16, #8
            ((((LCD_X_SETCHROMA_INFO *)pData)->ChromaMin & 0x0000FF) << 16);
 8004a3e:	f402 027f 	and.w	r2, r2, #16711680	; 0xff0000
    Color = ((((LCD_X_SETCHROMA_INFO *)pData)->ChromaMin & 0xFF0000) >> 16) |\
 8004a42:	4311      	orrs	r1, r2
             (((LCD_X_SETCHROMA_INFO *)pData)->ChromaMin & 0x00FF00) |\
 8004a44:	f403 437f 	and.w	r3, r3, #65280	; 0xff00
    HAL_LTDC_ConfigColorKeying(&hltdc, Color, LayerIndex);
 8004a48:	4602      	mov	r2, r0
 8004a4a:	4319      	orrs	r1, r3
 8004a4c:	4804      	ldr	r0, [pc, #16]	; (8004a60 <LCD_X_DisplayDriver+0x1a4>)
 8004a4e:	f7fd ffd5 	bl	80029fc <HAL_LTDC_ConfigColorKeying>
    break;
 8004a52:	e76e      	b.n	8004932 <LCD_X_DisplayDriver+0x76>
  switch (Cmd) 
 8004a54:	f04f 35ff 	mov.w	r5, #4294967295	; 0xffffffff
  return r;
 8004a58:	e76c      	b.n	8004934 <LCD_X_DisplayDriver+0x78>
 8004a5a:	bf00      	nop
 8004a5c:	20028830 	.word	0x20028830
 8004a60:	2002884c 	.word	0x2002884c
 8004a64:	0800b4e4 	.word	0x0800b4e4
 8004a68:	20028964 	.word	0x20028964
 8004a6c:	0800b4cc 	.word	0x0800b4cc

08004a70 <Index2ColorBulk_M8888IDMA2D>:
DEFINEDMA2D_COLORCONVERSION(M8888I, LTDC_PIXEL_FORMAT_ARGB8888)
 8004a70:	b513      	push	{r0, r1, r4, lr}
 8004a72:	2400      	movs	r4, #0
 8004a74:	9400      	str	r4, [sp, #0]
 8004a76:	f7ff fa59 	bl	8003f2c <DMA2D_Index2ColorBulk>
 8004a7a:	b002      	add	sp, #8
 8004a7c:	bd10      	pop	{r4, pc}

08004a7e <Index2ColorBulk_M888DMA2D>:
 8004a7e:	f7ff bff7 	b.w	8004a70 <Index2ColorBulk_M8888IDMA2D>

08004a82 <Index2ColorBulk_M4444IDMA2D>:
DEFINEDMA2D_COLORCONVERSION(M4444I, LTDC_PIXEL_FORMAT_ARGB4444)
 8004a82:	b513      	push	{r0, r1, r4, lr}
 8004a84:	2404      	movs	r4, #4
 8004a86:	9400      	str	r4, [sp, #0]
 8004a88:	f7ff fa50 	bl	8003f2c <DMA2D_Index2ColorBulk>
 8004a8c:	b002      	add	sp, #8
 8004a8e:	bd10      	pop	{r4, pc}

08004a90 <Index2ColorBulk_M565DMA2D>:
DEFINEDMA2D_COLORCONVERSION(M565,   LTDC_PIXEL_FORMAT_RGB565)
 8004a90:	b513      	push	{r0, r1, r4, lr}
 8004a92:	2402      	movs	r4, #2
 8004a94:	9400      	str	r4, [sp, #0]
 8004a96:	f7ff fa49 	bl	8003f2c <DMA2D_Index2ColorBulk>
 8004a9a:	b002      	add	sp, #8
 8004a9c:	bd10      	pop	{r4, pc}

08004a9e <Index2ColorBulk_M1555IDMA2D>:
DEFINEDMA2D_COLORCONVERSION(M1555I, LTDC_PIXEL_FORMAT_ARGB1555)
 8004a9e:	b513      	push	{r0, r1, r4, lr}
 8004aa0:	2403      	movs	r4, #3
 8004aa2:	9400      	str	r4, [sp, #0]
 8004aa4:	f7ff fa42 	bl	8003f2c <DMA2D_Index2ColorBulk>
 8004aa8:	b002      	add	sp, #8
 8004aaa:	bd10      	pop	{r4, pc}

08004aac <Color2IndexBulk_M8888IDMA2D>:
DEFINEDMA2D_COLORCONVERSION(M8888I, LTDC_PIXEL_FORMAT_ARGB8888)
 8004aac:	b513      	push	{r0, r1, r4, lr}
 8004aae:	2400      	movs	r4, #0
 8004ab0:	9400      	str	r4, [sp, #0]
 8004ab2:	f7ff fa55 	bl	8003f60 <DMA2D_Color2IndexBulk>
 8004ab6:	b002      	add	sp, #8
 8004ab8:	bd10      	pop	{r4, pc}

08004aba <Color2IndexBulk_M888DMA2D>:
 8004aba:	f7ff bff7 	b.w	8004aac <Color2IndexBulk_M8888IDMA2D>

08004abe <Color2IndexBulk_M4444IDMA2D>:
DEFINEDMA2D_COLORCONVERSION(M4444I, LTDC_PIXEL_FORMAT_ARGB4444)
 8004abe:	b513      	push	{r0, r1, r4, lr}
 8004ac0:	2404      	movs	r4, #4
 8004ac2:	9400      	str	r4, [sp, #0]
 8004ac4:	f7ff fa4c 	bl	8003f60 <DMA2D_Color2IndexBulk>
 8004ac8:	b002      	add	sp, #8
 8004aca:	bd10      	pop	{r4, pc}

08004acc <Color2IndexBulk_M565DMA2D>:
DEFINEDMA2D_COLORCONVERSION(M565,   LTDC_PIXEL_FORMAT_RGB565)
 8004acc:	b513      	push	{r0, r1, r4, lr}
 8004ace:	2402      	movs	r4, #2
 8004ad0:	9400      	str	r4, [sp, #0]
 8004ad2:	f7ff fa45 	bl	8003f60 <DMA2D_Color2IndexBulk>
 8004ad6:	b002      	add	sp, #8
 8004ad8:	bd10      	pop	{r4, pc}

08004ada <Color2IndexBulk_M1555IDMA2D>:
DEFINEDMA2D_COLORCONVERSION(M1555I, LTDC_PIXEL_FORMAT_ARGB1555)
 8004ada:	b513      	push	{r0, r1, r4, lr}
 8004adc:	2403      	movs	r4, #3
 8004ade:	9400      	str	r4, [sp, #0]
 8004ae0:	f7ff fa3e 	bl	8003f60 <DMA2D_Color2IndexBulk>
 8004ae4:	b002      	add	sp, #8
 8004ae6:	bd10      	pop	{r4, pc}

08004ae8 <_Color2Index_1616I>:
 8004ae8:	4b07      	ldr	r3, [pc, #28]	; (8004b08 <_Color2Index_1616I+0x20>)
 8004aea:	b510      	push	{r4, lr}
 8004aec:	681b      	ldr	r3, [r3, #0]
 8004aee:	4604      	mov	r4, r0
 8004af0:	f020 407f 	bic.w	r0, r0, #4278190080	; 0xff000000
 8004af4:	4798      	blx	r3
 8004af6:	0e24      	lsrs	r4, r4, #24
 8004af8:	4b04      	ldr	r3, [pc, #16]	; (8004b0c <_Color2Index_1616I+0x24>)
 8004afa:	5d1b      	ldrb	r3, [r3, r4]
 8004afc:	f1c3 030f 	rsb	r3, r3, #15
 8004b00:	ea40 1003 	orr.w	r0, r0, r3, lsl #4
 8004b04:	bd10      	pop	{r4, pc}
 8004b06:	bf00      	nop
 8004b08:	0800e158 	.word	0x0800e158
 8004b0c:	0800b79c 	.word	0x0800b79c

08004b10 <_Index2Color_1616I>:
 8004b10:	4b06      	ldr	r3, [pc, #24]	; (8004b2c <_Index2Color_1616I+0x1c>)
 8004b12:	b510      	push	{r4, lr}
 8004b14:	685b      	ldr	r3, [r3, #4]
 8004b16:	4604      	mov	r4, r0
 8004b18:	b2c0      	uxtb	r0, r0
 8004b1a:	4798      	blx	r3
 8004b1c:	0924      	lsrs	r4, r4, #4
 8004b1e:	4b04      	ldr	r3, [pc, #16]	; (8004b30 <_Index2Color_1616I+0x20>)
 8004b20:	5d1b      	ldrb	r3, [r3, r4]
 8004b22:	f1c3 03ff 	rsb	r3, r3, #255	; 0xff
 8004b26:	ea40 6003 	orr.w	r0, r0, r3, lsl #24
 8004b2a:	bd10      	pop	{r4, pc}
 8004b2c:	0800e158 	.word	0x0800e158
 8004b30:	0800b8fc 	.word	0x0800b8fc

08004b34 <_GetIndexMask_1616I>:
 8004b34:	20ff      	movs	r0, #255	; 0xff
 8004b36:	4770      	bx	lr

08004b38 <_Color2IndexBulk_1616I>:
 8004b38:	e92d 43f7 	stmdb	sp!, {r0, r1, r2, r4, r5, r6, r7, r8, r9, lr}
 8004b3c:	4699      	mov	r9, r3
 8004b3e:	4b0d      	ldr	r3, [pc, #52]	; (8004b74 <_Color2IndexBulk_1616I+0x3c>)
 8004b40:	4d0d      	ldr	r5, [pc, #52]	; (8004b78 <_Color2IndexBulk_1616I+0x40>)
 8004b42:	681b      	ldr	r3, [r3, #0]
 8004b44:	9301      	str	r3, [sp, #4]
 8004b46:	4607      	mov	r7, r0
 8004b48:	4688      	mov	r8, r1
 8004b4a:	4616      	mov	r6, r2
 8004b4c:	f857 4b04 	ldr.w	r4, [r7], #4
 8004b50:	9b01      	ldr	r3, [sp, #4]
 8004b52:	f024 407f 	bic.w	r0, r4, #4278190080	; 0xff000000
 8004b56:	0e24      	lsrs	r4, r4, #24
 8004b58:	4798      	blx	r3
 8004b5a:	5d2c      	ldrb	r4, [r5, r4]
 8004b5c:	f1c4 040f 	rsb	r4, r4, #15
 8004b60:	ea40 1004 	orr.w	r0, r0, r4, lsl #4
 8004b64:	3e01      	subs	r6, #1
 8004b66:	f888 0000 	strb.w	r0, [r8]
 8004b6a:	44c8      	add	r8, r9
 8004b6c:	d1ee      	bne.n	8004b4c <_Color2IndexBulk_1616I+0x14>
 8004b6e:	b003      	add	sp, #12
 8004b70:	e8bd 83f0 	ldmia.w	sp!, {r4, r5, r6, r7, r8, r9, pc}
 8004b74:	0800e158 	.word	0x0800e158
 8004b78:	0800b79c 	.word	0x0800b79c

08004b7c <_Index2ColorBulk_1616I>:
 8004b7c:	e92d 43f7 	stmdb	sp!, {r0, r1, r2, r4, r5, r6, r7, r8, r9, lr}
 8004b80:	1e57      	subs	r7, r2, #1
 8004b82:	fb03 0707 	mla	r7, r3, r7, r0
 8004b86:	4698      	mov	r8, r3
 8004b88:	4b0e      	ldr	r3, [pc, #56]	; (8004bc4 <_Index2ColorBulk_1616I+0x48>)
 8004b8a:	4d0f      	ldr	r5, [pc, #60]	; (8004bc8 <_Index2ColorBulk_1616I+0x4c>)
 8004b8c:	685b      	ldr	r3, [r3, #4]
 8004b8e:	9301      	str	r3, [sp, #4]
 8004b90:	f102 4080 	add.w	r0, r2, #1073741824	; 0x40000000
 8004b94:	3801      	subs	r0, #1
 8004b96:	4616      	mov	r6, r2
 8004b98:	eb01 0980 	add.w	r9, r1, r0, lsl #2
 8004b9c:	783c      	ldrb	r4, [r7, #0]
 8004b9e:	9b01      	ldr	r3, [sp, #4]
 8004ba0:	4620      	mov	r0, r4
 8004ba2:	0924      	lsrs	r4, r4, #4
 8004ba4:	4798      	blx	r3
 8004ba6:	5d2c      	ldrb	r4, [r5, r4]
 8004ba8:	f1c4 04ff 	rsb	r4, r4, #255	; 0xff
 8004bac:	ea40 6004 	orr.w	r0, r0, r4, lsl #24
 8004bb0:	3e01      	subs	r6, #1
 8004bb2:	f849 0904 	str.w	r0, [r9], #-4
 8004bb6:	ebc8 0707 	rsb	r7, r8, r7
 8004bba:	d1ef      	bne.n	8004b9c <_Index2ColorBulk_1616I+0x20>
 8004bbc:	b003      	add	sp, #12
 8004bbe:	e8bd 83f0 	ldmia.w	sp!, {r4, r5, r6, r7, r8, r9, pc}
 8004bc2:	bf00      	nop
 8004bc4:	0800e158 	.word	0x0800e158
 8004bc8:	0800b8fc 	.word	0x0800b8fc

08004bcc <LCD_Color2Index_8666>:
 8004bcc:	b2c3      	uxtb	r3, r0
 8004bce:	f3c0 2207 	ubfx	r2, r0, #8, #8
 8004bd2:	4293      	cmp	r3, r2
 8004bd4:	b510      	push	{r4, lr}
 8004bd6:	f3c0 4007 	ubfx	r0, r0, #16, #8
 8004bda:	d107      	bne.n	8004bec <LCD_Color2Index_8666+0x20>
 8004bdc:	4283      	cmp	r3, r0
 8004bde:	d105      	bne.n	8004bec <LCD_Color2Index_8666+0x20>
 8004be0:	3308      	adds	r3, #8
 8004be2:	2011      	movs	r0, #17
 8004be4:	fbb3 f0f0 	udiv	r0, r3, r0
 8004be8:	3078      	adds	r0, #120	; 0x78
 8004bea:	bd10      	pop	{r4, pc}
 8004bec:	eb02 0282 	add.w	r2, r2, r2, lsl #2
 8004bf0:	eb00 0080 	add.w	r0, r0, r0, lsl #2
 8004bf4:	f102 017f 	add.w	r1, r2, #127	; 0x7f
 8004bf8:	f100 027f 	add.w	r2, r0, #127	; 0x7f
 8004bfc:	2024      	movs	r0, #36	; 0x24
 8004bfe:	24ff      	movs	r4, #255	; 0xff
 8004c00:	fbb2 f2f4 	udiv	r2, r2, r4
 8004c04:	4342      	muls	r2, r0
 8004c06:	2006      	movs	r0, #6
 8004c08:	fbb1 f1f4 	udiv	r1, r1, r4
 8004c0c:	eb03 0383 	add.w	r3, r3, r3, lsl #2
 8004c10:	fb00 2001 	mla	r0, r0, r1, r2
 8004c14:	337f      	adds	r3, #127	; 0x7f
 8004c16:	fbb3 f3f4 	udiv	r3, r3, r4
 8004c1a:	4418      	add	r0, r3
 8004c1c:	286b      	cmp	r0, #107	; 0x6b
 8004c1e:	bf88      	it	hi
 8004c20:	3028      	addhi	r0, #40	; 0x28
 8004c22:	bd10      	pop	{r4, pc}

08004c24 <_GetIndexMask_8666>:
 8004c24:	20ff      	movs	r0, #255	; 0xff
 8004c26:	4770      	bx	lr

08004c28 <LCD_Index2Color_8666>:
 8004c28:	f1a0 0378 	sub.w	r3, r0, #120	; 0x78
 8004c2c:	2b0f      	cmp	r3, #15
 8004c2e:	b530      	push	{r4, r5, lr}
 8004c30:	d805      	bhi.n	8004c3e <LCD_Index2Color_8666+0x16>
 8004c32:	4b11      	ldr	r3, [pc, #68]	; (8004c78 <LCD_Index2Color_8666+0x50>)
 8004c34:	4358      	muls	r0, r3
 8004c36:	f100 4078 	add.w	r0, r0, #4160749568	; 0xf8000000
 8004c3a:	3008      	adds	r0, #8
 8004c3c:	bd30      	pop	{r4, r5, pc}
 8004c3e:	286b      	cmp	r0, #107	; 0x6b
 8004c40:	d902      	bls.n	8004c48 <LCD_Index2Color_8666+0x20>
 8004c42:	2893      	cmp	r0, #147	; 0x93
 8004c44:	d916      	bls.n	8004c74 <LCD_Index2Color_8666+0x4c>
 8004c46:	3828      	subs	r0, #40	; 0x28
 8004c48:	2406      	movs	r4, #6
 8004c4a:	2233      	movs	r2, #51	; 0x33
 8004c4c:	fbb0 f5f4 	udiv	r5, r0, r4
 8004c50:	2324      	movs	r3, #36	; 0x24
 8004c52:	fbb0 f3f3 	udiv	r3, r0, r3
 8004c56:	fb02 f103 	mul.w	r1, r2, r3
 8004c5a:	fb04 0315 	mls	r3, r4, r5, r0
 8004c5e:	4353      	muls	r3, r2
 8004c60:	eb03 4301 	add.w	r3, r3, r1, lsl #16
 8004c64:	fbb5 f1f4 	udiv	r1, r5, r4
 8004c68:	fb04 5011 	mls	r0, r4, r1, r5
 8004c6c:	4350      	muls	r0, r2
 8004c6e:	eb03 2000 	add.w	r0, r3, r0, lsl #8
 8004c72:	bd30      	pop	{r4, r5, pc}
 8004c74:	2000      	movs	r0, #0
 8004c76:	bd30      	pop	{r4, r5, pc}
 8004c78:	00111111 	.word	0x00111111

08004c7c <_Color2Index_88666I>:
 8004c7c:	4b06      	ldr	r3, [pc, #24]	; (8004c98 <_Color2Index_88666I+0x1c>)
 8004c7e:	b510      	push	{r4, lr}
 8004c80:	681b      	ldr	r3, [r3, #0]
 8004c82:	4604      	mov	r4, r0
 8004c84:	f020 407f 	bic.w	r0, r0, #4278190080	; 0xff000000
 8004c88:	4798      	blx	r3
 8004c8a:	ea6f 4414 	mvn.w	r4, r4, lsr #16
 8004c8e:	f404 447f 	and.w	r4, r4, #65280	; 0xff00
 8004c92:	4320      	orrs	r0, r4
 8004c94:	bd10      	pop	{r4, pc}
 8004c96:	bf00      	nop
 8004c98:	0800b4cc 	.word	0x0800b4cc

08004c9c <_Index2Color_88666I>:
 8004c9c:	4b05      	ldr	r3, [pc, #20]	; (8004cb4 <_Index2Color_88666I+0x18>)
 8004c9e:	b510      	push	{r4, lr}
 8004ca0:	685b      	ldr	r3, [r3, #4]
 8004ca2:	4604      	mov	r4, r0
 8004ca4:	b2c0      	uxtb	r0, r0
 8004ca6:	4798      	blx	r3
 8004ca8:	ea6f 4404 	mvn.w	r4, r4, lsl #16
 8004cac:	f004 447f 	and.w	r4, r4, #4278190080	; 0xff000000
 8004cb0:	4320      	orrs	r0, r4
 8004cb2:	bd10      	pop	{r4, pc}
 8004cb4:	0800b4cc 	.word	0x0800b4cc

08004cb8 <_GetIndexMask_88666I>:
 8004cb8:	f64f 70ff 	movw	r0, #65535	; 0xffff
 8004cbc:	4770      	bx	lr
	...

08004cc0 <_Color2IndexBulk_88666I>:
 8004cc0:	e92d 43f8 	stmdb	sp!, {r3, r4, r5, r6, r7, r8, r9, lr}
 8004cc4:	4699      	mov	r9, r3
 8004cc6:	4b0a      	ldr	r3, [pc, #40]	; (8004cf0 <_Color2IndexBulk_88666I+0x30>)
 8004cc8:	681d      	ldr	r5, [r3, #0]
 8004cca:	4680      	mov	r8, r0
 8004ccc:	460f      	mov	r7, r1
 8004cce:	4616      	mov	r6, r2
 8004cd0:	f858 4b04 	ldr.w	r4, [r8], #4
 8004cd4:	f024 407f 	bic.w	r0, r4, #4278190080	; 0xff000000
 8004cd8:	47a8      	blx	r5
 8004cda:	ea6f 4414 	mvn.w	r4, r4, lsr #16
 8004cde:	f404 447f 	and.w	r4, r4, #65280	; 0xff00
 8004ce2:	4320      	orrs	r0, r4
 8004ce4:	3e01      	subs	r6, #1
 8004ce6:	8038      	strh	r0, [r7, #0]
 8004ce8:	444f      	add	r7, r9
 8004cea:	d1f1      	bne.n	8004cd0 <_Color2IndexBulk_88666I+0x10>
 8004cec:	e8bd 83f8 	ldmia.w	sp!, {r3, r4, r5, r6, r7, r8, r9, pc}
 8004cf0:	0800b4cc 	.word	0x0800b4cc

08004cf4 <_Index2ColorBulk_88666I>:
 8004cf4:	e92d 43f8 	stmdb	sp!, {r3, r4, r5, r6, r7, r8, r9, lr}
 8004cf8:	f102 38ff 	add.w	r8, r2, #4294967295	; 0xffffffff
 8004cfc:	fb03 0808 	mla	r8, r3, r8, r0
 8004d00:	4699      	mov	r9, r3
 8004d02:	4b0c      	ldr	r3, [pc, #48]	; (8004d34 <_Index2ColorBulk_88666I+0x40>)
 8004d04:	f102 4080 	add.w	r0, r2, #1073741824	; 0x40000000
 8004d08:	3801      	subs	r0, #1
 8004d0a:	685d      	ldr	r5, [r3, #4]
 8004d0c:	4617      	mov	r7, r2
 8004d0e:	eb01 0680 	add.w	r6, r1, r0, lsl #2
 8004d12:	f8b8 4000 	ldrh.w	r4, [r8]
 8004d16:	b2e0      	uxtb	r0, r4
 8004d18:	47a8      	blx	r5
 8004d1a:	ea6f 4404 	mvn.w	r4, r4, lsl #16
 8004d1e:	f004 447f 	and.w	r4, r4, #4278190080	; 0xff000000
 8004d22:	4320      	orrs	r0, r4
 8004d24:	3f01      	subs	r7, #1
 8004d26:	f846 0904 	str.w	r0, [r6], #-4
 8004d2a:	ebc9 0808 	rsb	r8, r9, r8
 8004d2e:	d1f0      	bne.n	8004d12 <_Index2ColorBulk_88666I+0x1e>
 8004d30:	e8bd 83f8 	ldmia.w	sp!, {r3, r4, r5, r6, r7, r8, r9, pc}
 8004d34:	0800b4cc 	.word	0x0800b4cc

08004d38 <_Color2Index_M1555I>:
 8004d38:	4a09      	ldr	r2, [pc, #36]	; (8004d60 <_Color2Index_M1555I+0x28>)
 8004d3a:	f3c0 4307 	ubfx	r3, r0, #16, #8
 8004d3e:	b2c1      	uxtb	r1, r0
 8004d40:	5cd3      	ldrb	r3, [r2, r3]
 8004d42:	5c51      	ldrb	r1, [r2, r1]
 8004d44:	eb03 2181 	add.w	r1, r3, r1, lsl #10
 8004d48:	0fc3      	lsrs	r3, r0, #31
 8004d4a:	f3c0 2007 	ubfx	r0, r0, #8, #8
 8004d4e:	03db      	lsls	r3, r3, #15
 8004d50:	5c10      	ldrb	r0, [r2, r0]
 8004d52:	f483 4300 	eor.w	r3, r3, #32768	; 0x8000
 8004d56:	440b      	add	r3, r1
 8004d58:	eb03 1040 	add.w	r0, r3, r0, lsl #5
 8004d5c:	4770      	bx	lr
 8004d5e:	bf00      	nop
 8004d60:	0800b69c 	.word	0x0800b69c

08004d64 <_Index2Color_M1555I>:
 8004d64:	f000 031f 	and.w	r3, r0, #31
 8004d68:	f3c0 1144 	ubfx	r1, r0, #5, #5
 8004d6c:	4a09      	ldr	r2, [pc, #36]	; (8004d94 <_Index2Color_M1555I+0x30>)
 8004d6e:	b510      	push	{r4, lr}
 8004d70:	f3c0 2484 	ubfx	r4, r0, #10, #5
 8004d74:	5cd3      	ldrb	r3, [r2, r3]
 8004d76:	5c51      	ldrb	r1, [r2, r1]
 8004d78:	5d12      	ldrb	r2, [r2, r4]
 8004d7a:	f410 4f00 	tst.w	r0, #32768	; 0x8000
 8004d7e:	eb02 4303 	add.w	r3, r2, r3, lsl #16
 8004d82:	eb03 2301 	add.w	r3, r3, r1, lsl #8
 8004d86:	bf0c      	ite	eq
 8004d88:	f04f 407f 	moveq.w	r0, #4278190080	; 0xff000000
 8004d8c:	2000      	movne	r0, #0
 8004d8e:	4418      	add	r0, r3
 8004d90:	bd10      	pop	{r4, pc}
 8004d92:	bf00      	nop
 8004d94:	0800b8dc 	.word	0x0800b8dc

08004d98 <_GetIndexMask_M1555I>:
 8004d98:	f64f 70ff 	movw	r0, #65535	; 0xffff
 8004d9c:	4770      	bx	lr
	...

08004da0 <_Color2IndexBulk_M1555I>:
 8004da0:	b5f0      	push	{r4, r5, r6, r7, lr}
 8004da2:	f8df e050 	ldr.w	lr, [pc, #80]	; 8004df4 <_Color2IndexBulk_M1555I+0x54>
 8004da6:	f8de e000 	ldr.w	lr, [lr]
 8004daa:	4606      	mov	r6, r0
 8004dac:	460d      	mov	r5, r1
 8004dae:	4614      	mov	r4, r2
 8004db0:	461f      	mov	r7, r3
 8004db2:	f1be 0f00 	cmp.w	lr, #0
 8004db6:	d003      	beq.n	8004dc0 <_Color2IndexBulk_M1555I+0x20>
 8004db8:	46f4      	mov	ip, lr
 8004dba:	e8bd 40f0 	ldmia.w	sp!, {r4, r5, r6, r7, lr}
 8004dbe:	4760      	bx	ip
 8004dc0:	490b      	ldr	r1, [pc, #44]	; (8004df0 <_Color2IndexBulk_M1555I+0x50>)
 8004dc2:	f856 2b04 	ldr.w	r2, [r6], #4
 8004dc6:	f3c2 4307 	ubfx	r3, r2, #16, #8
 8004dca:	b2d0      	uxtb	r0, r2
 8004dcc:	5ccb      	ldrb	r3, [r1, r3]
 8004dce:	5c08      	ldrb	r0, [r1, r0]
 8004dd0:	eb03 2380 	add.w	r3, r3, r0, lsl #10
 8004dd4:	43d0      	mvns	r0, r2
 8004dd6:	f3c2 2207 	ubfx	r2, r2, #8, #8
 8004dda:	0fc0      	lsrs	r0, r0, #31
 8004ddc:	5c8a      	ldrb	r2, [r1, r2]
 8004dde:	eb03 33c0 	add.w	r3, r3, r0, lsl #15
 8004de2:	eb03 1342 	add.w	r3, r3, r2, lsl #5
 8004de6:	3c01      	subs	r4, #1
 8004de8:	802b      	strh	r3, [r5, #0]
 8004dea:	443d      	add	r5, r7
 8004dec:	d1e9      	bne.n	8004dc2 <_Color2IndexBulk_M1555I+0x22>
 8004dee:	bdf0      	pop	{r4, r5, r6, r7, pc}
 8004df0:	0800b69c 	.word	0x0800b69c
 8004df4:	20028d64 	.word	0x20028d64

08004df8 <_Index2ColorBulk_M1555I>:
 8004df8:	b5f0      	push	{r4, r5, r6, r7, lr}
 8004dfa:	4d18      	ldr	r5, [pc, #96]	; (8004e5c <_Index2ColorBulk_M1555I+0x64>)
 8004dfc:	686d      	ldr	r5, [r5, #4]
 8004dfe:	4686      	mov	lr, r0
 8004e00:	460f      	mov	r7, r1
 8004e02:	4614      	mov	r4, r2
 8004e04:	461e      	mov	r6, r3
 8004e06:	b11d      	cbz	r5, 8004e10 <_Index2ColorBulk_M1555I+0x18>
 8004e08:	46ac      	mov	ip, r5
 8004e0a:	e8bd 40f0 	ldmia.w	sp!, {r4, r5, r6, r7, lr}
 8004e0e:	4760      	bx	ip
 8004e10:	f102 4180 	add.w	r1, r2, #1073741824	; 0x40000000
 8004e14:	3901      	subs	r1, #1
 8004e16:	1e50      	subs	r0, r2, #1
 8004e18:	eb07 0181 	add.w	r1, r7, r1, lsl #2
 8004e1c:	4f10      	ldr	r7, [pc, #64]	; (8004e60 <_Index2ColorBulk_M1555I+0x68>)
 8004e1e:	fb03 e000 	mla	r0, r3, r0, lr
 8004e22:	8805      	ldrh	r5, [r0, #0]
 8004e24:	f3c5 1244 	ubfx	r2, r5, #5, #5
 8004e28:	f005 031f 	and.w	r3, r5, #31
 8004e2c:	f817 e002 	ldrb.w	lr, [r7, r2]
 8004e30:	5cfb      	ldrb	r3, [r7, r3]
 8004e32:	f3c5 2284 	ubfx	r2, r5, #10, #5
 8004e36:	f415 4f00 	tst.w	r5, #32768	; 0x8000
 8004e3a:	5cba      	ldrb	r2, [r7, r2]
 8004e3c:	eb02 4303 	add.w	r3, r2, r3, lsl #16
 8004e40:	eb03 230e 	add.w	r3, r3, lr, lsl #8
 8004e44:	bf0c      	ite	eq
 8004e46:	f04f 427f 	moveq.w	r2, #4278190080	; 0xff000000
 8004e4a:	2200      	movne	r2, #0
 8004e4c:	4413      	add	r3, r2
 8004e4e:	3c01      	subs	r4, #1
 8004e50:	f841 3904 	str.w	r3, [r1], #-4
 8004e54:	eba0 0006 	sub.w	r0, r0, r6
 8004e58:	d1e3      	bne.n	8004e22 <_Index2ColorBulk_M1555I+0x2a>
 8004e5a:	bdf0      	pop	{r4, r5, r6, r7, pc}
 8004e5c:	20028d64 	.word	0x20028d64
 8004e60:	0800b8dc 	.word	0x0800b8dc

08004e64 <GUICC_M1555I_SetCustColorConv>:
 8004e64:	4b01      	ldr	r3, [pc, #4]	; (8004e6c <GUICC_M1555I_SetCustColorConv+0x8>)
 8004e66:	e883 0003 	stmia.w	r3, {r0, r1}
 8004e6a:	4770      	bx	lr
 8004e6c:	20028d64 	.word	0x20028d64

08004e70 <_Color2Index_M4444I>:
 8004e70:	b510      	push	{r4, lr}
 8004e72:	f3c0 4207 	ubfx	r2, r0, #16, #8
 8004e76:	f240 1407 	movw	r4, #263	; 0x107
 8004e7a:	b2c3      	uxtb	r3, r0
 8004e7c:	f3c0 2107 	ubfx	r1, r0, #8, #8
 8004e80:	eba4 6410 	sub.w	r4, r4, r0, lsr #24
 8004e84:	3208      	adds	r2, #8
 8004e86:	2011      	movs	r0, #17
 8004e88:	fbb4 f4f0 	udiv	r4, r4, r0
 8004e8c:	fbb2 f2f0 	udiv	r2, r2, r0
 8004e90:	eb02 3204 	add.w	r2, r2, r4, lsl #12
 8004e94:	3308      	adds	r3, #8
 8004e96:	fbb3 f3f0 	udiv	r3, r3, r0
 8004e9a:	eb02 2303 	add.w	r3, r2, r3, lsl #8
 8004e9e:	3108      	adds	r1, #8
 8004ea0:	fbb1 f0f0 	udiv	r0, r1, r0
 8004ea4:	eb03 1000 	add.w	r0, r3, r0, lsl #4
 8004ea8:	bd10      	pop	{r4, pc}
	...

08004eac <_Index2Color_M4444I>:
 8004eac:	4a0a      	ldr	r2, [pc, #40]	; (8004ed8 <_Index2Color_M4444I+0x2c>)
 8004eae:	f3c0 2303 	ubfx	r3, r0, #8, #4
 8004eb2:	f000 010f 	and.w	r1, r0, #15
 8004eb6:	5cd3      	ldrb	r3, [r2, r3]
 8004eb8:	5c51      	ldrb	r1, [r2, r1]
 8004eba:	eb03 4301 	add.w	r3, r3, r1, lsl #16
 8004ebe:	f3c0 1103 	ubfx	r1, r0, #4, #4
 8004ec2:	f3c0 3003 	ubfx	r0, r0, #12, #4
 8004ec6:	5c51      	ldrb	r1, [r2, r1]
 8004ec8:	5c10      	ldrb	r0, [r2, r0]
 8004eca:	eb03 2301 	add.w	r3, r3, r1, lsl #8
 8004ece:	43c0      	mvns	r0, r0
 8004ed0:	eb03 6000 	add.w	r0, r3, r0, lsl #24
 8004ed4:	4770      	bx	lr
 8004ed6:	bf00      	nop
 8004ed8:	0800b8fc 	.word	0x0800b8fc

08004edc <_GetIndexMask_M4444I>:
 8004edc:	f64f 70ff 	movw	r0, #65535	; 0xffff
 8004ee0:	4770      	bx	lr
	...

08004ee4 <_Color2IndexBulk_M4444I>:
 8004ee4:	b5f0      	push	{r4, r5, r6, r7, lr}
 8004ee6:	f8df e064 	ldr.w	lr, [pc, #100]	; 8004f4c <_Color2IndexBulk_M4444I+0x68>
 8004eea:	f8de e000 	ldr.w	lr, [lr]
 8004eee:	4606      	mov	r6, r0
 8004ef0:	460d      	mov	r5, r1
 8004ef2:	4614      	mov	r4, r2
 8004ef4:	461f      	mov	r7, r3
 8004ef6:	f1be 0f00 	cmp.w	lr, #0
 8004efa:	d003      	beq.n	8004f04 <_Color2IndexBulk_M4444I+0x20>
 8004efc:	46f4      	mov	ip, lr
 8004efe:	e8bd 40f0 	ldmia.w	sp!, {r4, r5, r6, r7, lr}
 8004f02:	4760      	bx	ip
 8004f04:	f04f 0e11 	mov.w	lr, #17
 8004f08:	f856 3b04 	ldr.w	r3, [r6], #4
 8004f0c:	b2d9      	uxtb	r1, r3
 8004f0e:	f3c3 2007 	ubfx	r0, r3, #8, #8
 8004f12:	f3c3 4207 	ubfx	r2, r3, #16, #8
 8004f16:	0e1b      	lsrs	r3, r3, #24
 8004f18:	3108      	adds	r1, #8
 8004f1a:	f5c3 7383 	rsb	r3, r3, #262	; 0x106
 8004f1e:	fbb1 f1fe 	udiv	r1, r1, lr
 8004f22:	0209      	lsls	r1, r1, #8
 8004f24:	3301      	adds	r3, #1
 8004f26:	fbb3 f3fe 	udiv	r3, r3, lr
 8004f2a:	eb01 3303 	add.w	r3, r1, r3, lsl #12
 8004f2e:	3208      	adds	r2, #8
 8004f30:	fbb2 f2fe 	udiv	r2, r2, lr
 8004f34:	4413      	add	r3, r2
 8004f36:	3008      	adds	r0, #8
 8004f38:	3c01      	subs	r4, #1
 8004f3a:	fbb0 f0fe 	udiv	r0, r0, lr
 8004f3e:	eb03 1300 	add.w	r3, r3, r0, lsl #4
 8004f42:	802b      	strh	r3, [r5, #0]
 8004f44:	443d      	add	r5, r7
 8004f46:	d1df      	bne.n	8004f08 <_Color2IndexBulk_M4444I+0x24>
 8004f48:	bdf0      	pop	{r4, r5, r6, r7, pc}
 8004f4a:	bf00      	nop
 8004f4c:	20028d6c 	.word	0x20028d6c

08004f50 <_Index2ColorBulk_M4444I>:
 8004f50:	b5f0      	push	{r4, r5, r6, r7, lr}
 8004f52:	4c17      	ldr	r4, [pc, #92]	; (8004fb0 <_Index2ColorBulk_M4444I+0x60>)
 8004f54:	6864      	ldr	r4, [r4, #4]
 8004f56:	4686      	mov	lr, r0
 8004f58:	460f      	mov	r7, r1
 8004f5a:	4615      	mov	r5, r2
 8004f5c:	461e      	mov	r6, r3
 8004f5e:	b11c      	cbz	r4, 8004f68 <_Index2ColorBulk_M4444I+0x18>
 8004f60:	46a4      	mov	ip, r4
 8004f62:	e8bd 40f0 	ldmia.w	sp!, {r4, r5, r6, r7, lr}
 8004f66:	4760      	bx	ip
 8004f68:	f102 4180 	add.w	r1, r2, #1073741824	; 0x40000000
 8004f6c:	3901      	subs	r1, #1
 8004f6e:	1e50      	subs	r0, r2, #1
 8004f70:	eb07 0181 	add.w	r1, r7, r1, lsl #2
 8004f74:	4f0f      	ldr	r7, [pc, #60]	; (8004fb4 <_Index2ColorBulk_M4444I+0x64>)
 8004f76:	fb03 e000 	mla	r0, r3, r0, lr
 8004f7a:	8804      	ldrh	r4, [r0, #0]
 8004f7c:	f3c4 2303 	ubfx	r3, r4, #8, #4
 8004f80:	f004 020f 	and.w	r2, r4, #15
 8004f84:	5cfb      	ldrb	r3, [r7, r3]
 8004f86:	5cba      	ldrb	r2, [r7, r2]
 8004f88:	eb03 4202 	add.w	r2, r3, r2, lsl #16
 8004f8c:	0b23      	lsrs	r3, r4, #12
 8004f8e:	f3c4 1403 	ubfx	r4, r4, #4, #4
 8004f92:	5cfb      	ldrb	r3, [r7, r3]
 8004f94:	43db      	mvns	r3, r3
 8004f96:	eb02 6303 	add.w	r3, r2, r3, lsl #24
 8004f9a:	5d3a      	ldrb	r2, [r7, r4]
 8004f9c:	3d01      	subs	r5, #1
 8004f9e:	eb03 2302 	add.w	r3, r3, r2, lsl #8
 8004fa2:	f841 3904 	str.w	r3, [r1], #-4
 8004fa6:	eba0 0006 	sub.w	r0, r0, r6
 8004faa:	d1e6      	bne.n	8004f7a <_Index2ColorBulk_M4444I+0x2a>
 8004fac:	bdf0      	pop	{r4, r5, r6, r7, pc}
 8004fae:	bf00      	nop
 8004fb0:	20028d6c 	.word	0x20028d6c
 8004fb4:	0800b8fc 	.word	0x0800b8fc

08004fb8 <GUICC_M4444I_SetCustColorConv>:
 8004fb8:	4b01      	ldr	r3, [pc, #4]	; (8004fc0 <GUICC_M4444I_SetCustColorConv+0x8>)
 8004fba:	e883 0003 	stmia.w	r3, {r0, r1}
 8004fbe:	4770      	bx	lr
 8004fc0:	20028d6c 	.word	0x20028d6c

08004fc4 <_Color2Index_M8888I>:
 8004fc4:	43c3      	mvns	r3, r0
 8004fc6:	f3c0 4207 	ubfx	r2, r0, #16, #8
 8004fca:	f003 437f 	and.w	r3, r3, #4278190080	; 0xff000000
 8004fce:	431a      	orrs	r2, r3
 8004fd0:	0403      	lsls	r3, r0, #16
 8004fd2:	f403 037f 	and.w	r3, r3, #16711680	; 0xff0000
 8004fd6:	4313      	orrs	r3, r2
 8004fd8:	f400 407f 	and.w	r0, r0, #65280	; 0xff00
 8004fdc:	4318      	orrs	r0, r3
 8004fde:	4770      	bx	lr

08004fe0 <_GetIndexMask_M8888I>:
 8004fe0:	f04f 30ff 	mov.w	r0, #4294967295	; 0xffffffff
 8004fe4:	4770      	bx	lr
	...

08004fe8 <_Color2IndexBulk_M8888I>:
 8004fe8:	b5f0      	push	{r4, r5, r6, r7, lr}
 8004fea:	f8df e044 	ldr.w	lr, [pc, #68]	; 8005030 <_Color2IndexBulk_M8888I+0x48>
 8004fee:	f8de e000 	ldr.w	lr, [lr]
 8004ff2:	4606      	mov	r6, r0
 8004ff4:	460d      	mov	r5, r1
 8004ff6:	4614      	mov	r4, r2
 8004ff8:	461f      	mov	r7, r3
 8004ffa:	f1be 0f00 	cmp.w	lr, #0
 8004ffe:	d003      	beq.n	8005008 <_Color2IndexBulk_M8888I+0x20>
 8005000:	46f4      	mov	ip, lr
 8005002:	e8bd 40f0 	ldmia.w	sp!, {r4, r5, r6, r7, lr}
 8005006:	4760      	bx	ip
 8005008:	f856 3b04 	ldr.w	r3, [r6], #4
 800500c:	43da      	mvns	r2, r3
 800500e:	f3c3 4107 	ubfx	r1, r3, #16, #8
 8005012:	f002 427f 	and.w	r2, r2, #4278190080	; 0xff000000
 8005016:	4311      	orrs	r1, r2
 8005018:	041a      	lsls	r2, r3, #16
 800501a:	f402 027f 	and.w	r2, r2, #16711680	; 0xff0000
 800501e:	430a      	orrs	r2, r1
 8005020:	f403 437f 	and.w	r3, r3, #65280	; 0xff00
 8005024:	4313      	orrs	r3, r2
 8005026:	3c01      	subs	r4, #1
 8005028:	602b      	str	r3, [r5, #0]
 800502a:	443d      	add	r5, r7
 800502c:	d1ec      	bne.n	8005008 <_Color2IndexBulk_M8888I+0x20>
 800502e:	bdf0      	pop	{r4, r5, r6, r7, pc}
 8005030:	20028d74 	.word	0x20028d74

08005034 <_Index2ColorBulk_M8888I>:
 8005034:	b5f0      	push	{r4, r5, r6, r7, lr}
 8005036:	f8df e044 	ldr.w	lr, [pc, #68]	; 800507c <_Index2ColorBulk_M8888I+0x48>
 800503a:	f8de e004 	ldr.w	lr, [lr, #4]
 800503e:	4605      	mov	r5, r0
 8005040:	460e      	mov	r6, r1
 8005042:	4614      	mov	r4, r2
 8005044:	461f      	mov	r7, r3
 8005046:	f1be 0f00 	cmp.w	lr, #0
 800504a:	d003      	beq.n	8005054 <_Index2ColorBulk_M8888I+0x20>
 800504c:	46f4      	mov	ip, lr
 800504e:	e8bd 40f0 	ldmia.w	sp!, {r4, r5, r6, r7, lr}
 8005052:	4760      	bx	ip
 8005054:	682b      	ldr	r3, [r5, #0]
 8005056:	43da      	mvns	r2, r3
 8005058:	f3c3 4107 	ubfx	r1, r3, #16, #8
 800505c:	f002 427f 	and.w	r2, r2, #4278190080	; 0xff000000
 8005060:	4311      	orrs	r1, r2
 8005062:	041a      	lsls	r2, r3, #16
 8005064:	f402 027f 	and.w	r2, r2, #16711680	; 0xff0000
 8005068:	430a      	orrs	r2, r1
 800506a:	f403 437f 	and.w	r3, r3, #65280	; 0xff00
 800506e:	4313      	orrs	r3, r2
 8005070:	3c01      	subs	r4, #1
 8005072:	f846 3b04 	str.w	r3, [r6], #4
 8005076:	443d      	add	r5, r7
 8005078:	d1ec      	bne.n	8005054 <_Index2ColorBulk_M8888I+0x20>
 800507a:	bdf0      	pop	{r4, r5, r6, r7, pc}
 800507c:	20028d74 	.word	0x20028d74

08005080 <GUICC_M8888I_SetCustColorConv>:
 8005080:	4b01      	ldr	r3, [pc, #4]	; (8005088 <GUICC_M8888I_SetCustColorConv+0x8>)
 8005082:	e883 0003 	stmia.w	r3, {r0, r1}
 8005086:	4770      	bx	lr
 8005088:	20028d74 	.word	0x20028d74

0800508c <LCD_Index2Color_M565>:
 800508c:	f000 011f 	and.w	r1, r0, #31
 8005090:	4a06      	ldr	r2, [pc, #24]	; (80050ac <LCD_Index2Color_M565+0x20>)
 8005092:	f3c0 23c4 	ubfx	r3, r0, #11, #5
 8005096:	f3c0 1045 	ubfx	r0, r0, #5, #6
 800509a:	5cd3      	ldrb	r3, [r2, r3]
 800509c:	5c52      	ldrb	r2, [r2, r1]
 800509e:	eb03 4302 	add.w	r3, r3, r2, lsl #16
 80050a2:	4a03      	ldr	r2, [pc, #12]	; (80050b0 <LCD_Index2Color_M565+0x24>)
 80050a4:	5c10      	ldrb	r0, [r2, r0]
 80050a6:	eb03 2000 	add.w	r0, r3, r0, lsl #8
 80050aa:	4770      	bx	lr
 80050ac:	0800b8dc 	.word	0x0800b8dc
 80050b0:	0800b89c 	.word	0x0800b89c

080050b4 <_Color2Index_M565>:
 80050b4:	b2c1      	uxtb	r1, r0
 80050b6:	4a07      	ldr	r2, [pc, #28]	; (80050d4 <_Color2Index_M565+0x20>)
 80050b8:	f3c0 4307 	ubfx	r3, r0, #16, #8
 80050bc:	f3c0 2007 	ubfx	r0, r0, #8, #8
 80050c0:	5cd3      	ldrb	r3, [r2, r3]
 80050c2:	5c52      	ldrb	r2, [r2, r1]
 80050c4:	eb03 23c2 	add.w	r3, r3, r2, lsl #11
 80050c8:	4a03      	ldr	r2, [pc, #12]	; (80050d8 <_Color2Index_M565+0x24>)
 80050ca:	5c10      	ldrb	r0, [r2, r0]
 80050cc:	eb03 1040 	add.w	r0, r3, r0, lsl #5
 80050d0:	4770      	bx	lr
 80050d2:	bf00      	nop
 80050d4:	0800b69c 	.word	0x0800b69c
 80050d8:	0800b59c 	.word	0x0800b59c

080050dc <_GetIndexMask_M565>:
 80050dc:	f64f 70ff 	movw	r0, #65535	; 0xffff
 80050e0:	4770      	bx	lr
	...

080050e4 <_Color2IndexBulk>:
 80050e4:	b5f0      	push	{r4, r5, r6, r7, lr}
 80050e6:	f8df e054 	ldr.w	lr, [pc, #84]	; 800513c <_Color2IndexBulk+0x58>
 80050ea:	f8de e000 	ldr.w	lr, [lr]
 80050ee:	4606      	mov	r6, r0
 80050f0:	460d      	mov	r5, r1
 80050f2:	4614      	mov	r4, r2
 80050f4:	461f      	mov	r7, r3
 80050f6:	f1be 0f00 	cmp.w	lr, #0
 80050fa:	d003      	beq.n	8005104 <_Color2IndexBulk+0x20>
 80050fc:	46f4      	mov	ip, lr
 80050fe:	e8bd 40f0 	ldmia.w	sp!, {r4, r5, r6, r7, lr}
 8005102:	4760      	bx	ip
 8005104:	490b      	ldr	r1, [pc, #44]	; (8005134 <_Color2IndexBulk+0x50>)
 8005106:	480c      	ldr	r0, [pc, #48]	; (8005138 <_Color2IndexBulk+0x54>)
 8005108:	f856 2b04 	ldr.w	r2, [r6], #4
 800510c:	f3c2 4307 	ubfx	r3, r2, #16, #8
 8005110:	fa5f fe82 	uxtb.w	lr, r2
 8005114:	f3c2 2207 	ubfx	r2, r2, #8, #8
 8005118:	5ccb      	ldrb	r3, [r1, r3]
 800511a:	f811 e00e 	ldrb.w	lr, [r1, lr]
 800511e:	5c82      	ldrb	r2, [r0, r2]
 8005120:	eb03 23ce 	add.w	r3, r3, lr, lsl #11
 8005124:	eb03 1342 	add.w	r3, r3, r2, lsl #5
 8005128:	3c01      	subs	r4, #1
 800512a:	802b      	strh	r3, [r5, #0]
 800512c:	443d      	add	r5, r7
 800512e:	d1eb      	bne.n	8005108 <_Color2IndexBulk+0x24>
 8005130:	bdf0      	pop	{r4, r5, r6, r7, pc}
 8005132:	bf00      	nop
 8005134:	0800b69c 	.word	0x0800b69c
 8005138:	0800b59c 	.word	0x0800b59c
 800513c:	20028d7c 	.word	0x20028d7c

08005140 <_Index2ColorBulk>:
 8005140:	b5f0      	push	{r4, r5, r6, r7, lr}
 8005142:	4e15      	ldr	r6, [pc, #84]	; (8005198 <_Index2ColorBulk+0x58>)
 8005144:	6876      	ldr	r6, [r6, #4]
 8005146:	4686      	mov	lr, r0
 8005148:	460f      	mov	r7, r1
 800514a:	4614      	mov	r4, r2
 800514c:	461d      	mov	r5, r3
 800514e:	b11e      	cbz	r6, 8005158 <_Index2ColorBulk+0x18>
 8005150:	46b4      	mov	ip, r6
 8005152:	e8bd 40f0 	ldmia.w	sp!, {r4, r5, r6, r7, lr}
 8005156:	4760      	bx	ip
 8005158:	f102 4180 	add.w	r1, r2, #1073741824	; 0x40000000
 800515c:	3901      	subs	r1, #1
 800515e:	1e50      	subs	r0, r2, #1
 8005160:	eb07 0181 	add.w	r1, r7, r1, lsl #2
 8005164:	4e0d      	ldr	r6, [pc, #52]	; (800519c <_Index2ColorBulk+0x5c>)
 8005166:	4f0e      	ldr	r7, [pc, #56]	; (80051a0 <_Index2ColorBulk+0x60>)
 8005168:	fb03 e000 	mla	r0, r3, r0, lr
 800516c:	8802      	ldrh	r2, [r0, #0]
 800516e:	f002 031f 	and.w	r3, r2, #31
 8005172:	3c01      	subs	r4, #1
 8005174:	f816 e003 	ldrb.w	lr, [r6, r3]
 8005178:	ea4f 23d2 	mov.w	r3, r2, lsr #11
 800517c:	f3c2 1245 	ubfx	r2, r2, #5, #6
 8005180:	5cf3      	ldrb	r3, [r6, r3]
 8005182:	5cba      	ldrb	r2, [r7, r2]
 8005184:	eb03 430e 	add.w	r3, r3, lr, lsl #16
 8005188:	eb03 2302 	add.w	r3, r3, r2, lsl #8
 800518c:	f841 3904 	str.w	r3, [r1], #-4
 8005190:	eba0 0005 	sub.w	r0, r0, r5
 8005194:	d1ea      	bne.n	800516c <_Index2ColorBulk+0x2c>
 8005196:	bdf0      	pop	{r4, r5, r6, r7, pc}
 8005198:	20028d7c 	.word	0x20028d7c
 800519c:	0800b8dc 	.word	0x0800b8dc
 80051a0:	0800b89c 	.word	0x0800b89c

080051a4 <GUICC_M565_SetCustColorConv>:
 80051a4:	4b01      	ldr	r3, [pc, #4]	; (80051ac <GUICC_M565_SetCustColorConv+0x8>)
 80051a6:	e883 0003 	stmia.w	r3, {r0, r1}
 80051aa:	4770      	bx	lr
 80051ac:	20028d7c 	.word	0x20028d7c

080051b0 <_Color2Index_M888>:
 80051b0:	0403      	lsls	r3, r0, #16
 80051b2:	f3c0 4207 	ubfx	r2, r0, #16, #8
 80051b6:	f403 037f 	and.w	r3, r3, #16711680	; 0xff0000
 80051ba:	4313      	orrs	r3, r2
 80051bc:	f400 407f 	and.w	r0, r0, #65280	; 0xff00
 80051c0:	4318      	orrs	r0, r3
 80051c2:	4770      	bx	lr

080051c4 <_GetIndexMask_M888>:
 80051c4:	f06f 407f 	mvn.w	r0, #4278190080	; 0xff000000
 80051c8:	4770      	bx	lr
	...

080051cc <_Color2IndexBulk>:
 80051cc:	b5f0      	push	{r4, r5, r6, r7, lr}
 80051ce:	f8df e03c 	ldr.w	lr, [pc, #60]	; 800520c <_Color2IndexBulk+0x40>
 80051d2:	f8de e000 	ldr.w	lr, [lr]
 80051d6:	4606      	mov	r6, r0
 80051d8:	460d      	mov	r5, r1
 80051da:	4614      	mov	r4, r2
 80051dc:	461f      	mov	r7, r3
 80051de:	f1be 0f00 	cmp.w	lr, #0
 80051e2:	d003      	beq.n	80051ec <_Color2IndexBulk+0x20>
 80051e4:	46f4      	mov	ip, lr
 80051e6:	e8bd 40f0 	ldmia.w	sp!, {r4, r5, r6, r7, lr}
 80051ea:	4760      	bx	ip
 80051ec:	f856 3b04 	ldr.w	r3, [r6], #4
 80051f0:	041a      	lsls	r2, r3, #16
 80051f2:	f3c3 4107 	ubfx	r1, r3, #16, #8
 80051f6:	f402 027f 	and.w	r2, r2, #16711680	; 0xff0000
 80051fa:	430a      	orrs	r2, r1
 80051fc:	f403 437f 	and.w	r3, r3, #65280	; 0xff00
 8005200:	4313      	orrs	r3, r2
 8005202:	3c01      	subs	r4, #1
 8005204:	602b      	str	r3, [r5, #0]
 8005206:	443d      	add	r5, r7
 8005208:	d1f0      	bne.n	80051ec <_Color2IndexBulk+0x20>
 800520a:	bdf0      	pop	{r4, r5, r6, r7, pc}
 800520c:	20028d84 	.word	0x20028d84

08005210 <_Index2ColorBulk>:
 8005210:	b5f0      	push	{r4, r5, r6, r7, lr}
 8005212:	f8df e03c 	ldr.w	lr, [pc, #60]	; 8005250 <_Index2ColorBulk+0x40>
 8005216:	f8de e004 	ldr.w	lr, [lr, #4]
 800521a:	4605      	mov	r5, r0
 800521c:	460e      	mov	r6, r1
 800521e:	4614      	mov	r4, r2
 8005220:	461f      	mov	r7, r3
 8005222:	f1be 0f00 	cmp.w	lr, #0
 8005226:	d003      	beq.n	8005230 <_Index2ColorBulk+0x20>
 8005228:	46f4      	mov	ip, lr
 800522a:	e8bd 40f0 	ldmia.w	sp!, {r4, r5, r6, r7, lr}
 800522e:	4760      	bx	ip
 8005230:	682b      	ldr	r3, [r5, #0]
 8005232:	041a      	lsls	r2, r3, #16
 8005234:	f3c3 4107 	ubfx	r1, r3, #16, #8
 8005238:	f402 027f 	and.w	r2, r2, #16711680	; 0xff0000
 800523c:	430a      	orrs	r2, r1
 800523e:	f403 437f 	and.w	r3, r3, #65280	; 0xff00
 8005242:	4313      	orrs	r3, r2
 8005244:	3c01      	subs	r4, #1
 8005246:	f846 3b04 	str.w	r3, [r6], #4
 800524a:	443d      	add	r5, r7
 800524c:	d1f0      	bne.n	8005230 <_Index2ColorBulk+0x20>
 800524e:	bdf0      	pop	{r4, r5, r6, r7, pc}
 8005250:	20028d84 	.word	0x20028d84

08005254 <GUICC_M888_SetCustColorConv>:
 8005254:	4b01      	ldr	r3, [pc, #4]	; (800525c <GUICC_M888_SetCustColorConv+0x8>)
 8005256:	e883 0003 	stmia.w	r3, {r0, r1}
 800525a:	4770      	bx	lr
 800525c:	20028d84 	.word	0x20028d84

08005260 <LCD_Index2Color_M8888I>:
 8005260:	43c3      	mvns	r3, r0
 8005262:	f3c0 4207 	ubfx	r2, r0, #16, #8
 8005266:	f003 437f 	and.w	r3, r3, #4278190080	; 0xff000000
 800526a:	431a      	orrs	r2, r3
 800526c:	0403      	lsls	r3, r0, #16
 800526e:	f403 037f 	and.w	r3, r3, #16711680	; 0xff0000
 8005272:	4313      	orrs	r3, r2
 8005274:	f400 407f 	and.w	r0, r0, #65280	; 0xff00
 8005278:	4318      	orrs	r0, r3
 800527a:	4770      	bx	lr

0800527c <LCD_Index2Color_M888>:
 800527c:	0403      	lsls	r3, r0, #16
 800527e:	f3c0 4207 	ubfx	r2, r0, #16, #8
 8005282:	f403 037f 	and.w	r3, r3, #16711680	; 0xff0000
 8005286:	4313      	orrs	r3, r2
 8005288:	f400 407f 	and.w	r0, r0, #65280	; 0xff00
 800528c:	4318      	orrs	r0, r3
 800528e:	4770      	bx	lr

08005290 <_PushFreeBlock>:
 8005290:	4b07      	ldr	r3, [pc, #28]	; (80052b0 <_PushFreeBlock+0x20>)
 8005292:	685a      	ldr	r2, [r3, #4]
 8005294:	3201      	adds	r2, #1
 8005296:	b510      	push	{r4, lr}
 8005298:	605a      	str	r2, [r3, #4]
 800529a:	6b5a      	ldr	r2, [r3, #52]	; 0x34
 800529c:	6a5c      	ldr	r4, [r3, #36]	; 0x24
 800529e:	eb02 01c0 	add.w	r1, r2, r0, lsl #3
 80052a2:	604c      	str	r4, [r1, #4]
 80052a4:	2100      	movs	r1, #0
 80052a6:	f802 1030 	strb.w	r1, [r2, r0, lsl #3]
 80052aa:	6258      	str	r0, [r3, #36]	; 0x24
 80052ac:	bd10      	pop	{r4, pc}
 80052ae:	bf00      	nop
 80052b0:	20029050 	.word	0x20029050

080052b4 <_RemoveFreeBlock>:
 80052b4:	b510      	push	{r4, lr}
 80052b6:	490e      	ldr	r1, [pc, #56]	; (80052f0 <_RemoveFreeBlock+0x3c>)
 80052b8:	6844      	ldr	r4, [r0, #4]
 80052ba:	230f      	movs	r3, #15
 80052bc:	eb01 02c3 	add.w	r2, r1, r3, lsl #3
 80052c0:	6c12      	ldr	r2, [r2, #64]	; 0x40
 80052c2:	4294      	cmp	r4, r2
 80052c4:	4a0a      	ldr	r2, [pc, #40]	; (80052f0 <_RemoveFreeBlock+0x3c>)
 80052c6:	d203      	bcs.n	80052d0 <_RemoveFreeBlock+0x1c>
 80052c8:	f113 33ff 	adds.w	r3, r3, #4294967295	; 0xffffffff
 80052cc:	d2f6      	bcs.n	80052bc <_RemoveFreeBlock+0x8>
 80052ce:	bd10      	pop	{r4, pc}
 80052d0:	2b0f      	cmp	r3, #15
 80052d2:	d80c      	bhi.n	80052ee <_RemoveFreeBlock+0x3a>
 80052d4:	6811      	ldr	r1, [r2, #0]
 80052d6:	1b09      	subs	r1, r1, r4
 80052d8:	6011      	str	r1, [r2, #0]
 80052da:	6881      	ldr	r1, [r0, #8]
 80052dc:	68c0      	ldr	r0, [r0, #12]
 80052de:	b101      	cbz	r1, 80052e2 <_RemoveFreeBlock+0x2e>
 80052e0:	6048      	str	r0, [r1, #4]
 80052e2:	b108      	cbz	r0, 80052e8 <_RemoveFreeBlock+0x34>
 80052e4:	6001      	str	r1, [r0, #0]
 80052e6:	bd10      	pop	{r4, pc}
 80052e8:	eb02 03c3 	add.w	r3, r2, r3, lsl #3
 80052ec:	6459      	str	r1, [r3, #68]	; 0x44
 80052ee:	bd10      	pop	{r4, pc}
 80052f0:	20029050 	.word	0x20029050

080052f4 <_AddFreeMemory>:
 80052f4:	b5f8      	push	{r3, r4, r5, r6, r7, lr}
 80052f6:	4e27      	ldr	r6, [pc, #156]	; (8005394 <_AddFreeMemory+0xa0>)
 80052f8:	68f3      	ldr	r3, [r6, #12]
 80052fa:	6bb2      	ldr	r2, [r6, #56]	; 0x38
 80052fc:	3b01      	subs	r3, #1
 80052fe:	4605      	mov	r5, r0
 8005300:	4413      	add	r3, r2
 8005302:	1808      	adds	r0, r1, r0
 8005304:	4283      	cmp	r3, r0
 8005306:	460c      	mov	r4, r1
 8005308:	d305      	bcc.n	8005316 <_AddFreeMemory+0x22>
 800530a:	594b      	ldr	r3, [r1, r5]
 800530c:	b91b      	cbnz	r3, 8005316 <_AddFreeMemory+0x22>
 800530e:	6843      	ldr	r3, [r0, #4]
 8005310:	441d      	add	r5, r3
 8005312:	f7ff ffcf 	bl	80052b4 <_RemoveFreeBlock>
 8005316:	6bb3      	ldr	r3, [r6, #56]	; 0x38
 8005318:	429c      	cmp	r4, r3
 800531a:	d90a      	bls.n	8005332 <_AddFreeMemory+0x3e>
 800531c:	f854 7c04 	ldr.w	r7, [r4, #-4]
 8005320:	1be7      	subs	r7, r4, r7
 8005322:	683b      	ldr	r3, [r7, #0]
 8005324:	b92b      	cbnz	r3, 8005332 <_AddFreeMemory+0x3e>
 8005326:	687b      	ldr	r3, [r7, #4]
 8005328:	4638      	mov	r0, r7
 800532a:	441d      	add	r5, r3
 800532c:	f7ff ffc2 	bl	80052b4 <_RemoveFreeBlock>
 8005330:	463c      	mov	r4, r7
 8005332:	230f      	movs	r3, #15
 8005334:	eb06 02c3 	add.w	r2, r6, r3, lsl #3
 8005338:	6c12      	ldr	r2, [r2, #64]	; 0x40
 800533a:	4295      	cmp	r5, r2
 800533c:	d203      	bcs.n	8005346 <_AddFreeMemory+0x52>
 800533e:	f113 33ff 	adds.w	r3, r3, #4294967295	; 0xffffffff
 8005342:	d2f7      	bcs.n	8005334 <_AddFreeMemory+0x40>
 8005344:	e023      	b.n	800538e <_AddFreeMemory+0x9a>
 8005346:	2b0f      	cmp	r3, #15
 8005348:	d821      	bhi.n	800538e <_AddFreeMemory+0x9a>
 800534a:	3308      	adds	r3, #8
 800534c:	eb06 02c3 	add.w	r2, r6, r3, lsl #3
 8005350:	1960      	adds	r0, r4, r5
 8005352:	6851      	ldr	r1, [r2, #4]
 8005354:	60a1      	str	r1, [r4, #8]
 8005356:	2200      	movs	r2, #0
 8005358:	e884 0024 	stmia.w	r4, {r2, r5}
 800535c:	6124      	str	r4, [r4, #16]
 800535e:	f840 5c04 	str.w	r5, [r0, #-4]
 8005362:	f104 0008 	add.w	r0, r4, #8
 8005366:	b101      	cbz	r1, 800536a <_AddFreeMemory+0x76>
 8005368:	6048      	str	r0, [r1, #4]
 800536a:	eb06 03c3 	add.w	r3, r6, r3, lsl #3
 800536e:	60a1      	str	r1, [r4, #8]
 8005370:	60e2      	str	r2, [r4, #12]
 8005372:	6058      	str	r0, [r3, #4]
 8005374:	6833      	ldr	r3, [r6, #0]
 8005376:	4907      	ldr	r1, [pc, #28]	; (8005394 <_AddFreeMemory+0xa0>)
 8005378:	18ea      	adds	r2, r5, r3
 800537a:	f896 3029 	ldrb.w	r3, [r6, #41]	; 0x29
 800537e:	6032      	str	r2, [r6, #0]
 8005380:	b92b      	cbnz	r3, 800538e <_AddFreeMemory+0x9a>
 8005382:	68cb      	ldr	r3, [r1, #12]
 8005384:	1a9b      	subs	r3, r3, r2
 8005386:	688a      	ldr	r2, [r1, #8]
 8005388:	4293      	cmp	r3, r2
 800538a:	bf88      	it	hi
 800538c:	608b      	strhi	r3, [r1, #8]
 800538e:	4628      	mov	r0, r5
 8005390:	bdf8      	pop	{r3, r4, r5, r6, r7, pc}
 8005392:	bf00      	nop
 8005394:	20029050 	.word	0x20029050

08005398 <_RemoveHoles>:
 8005398:	e92d 4ff7 	stmdb	sp!, {r0, r1, r2, r4, r5, r6, r7, r8, r9, sl, fp, lr}
 800539c:	4f24      	ldr	r7, [pc, #144]	; (8005430 <_RemoveHoles+0x98>)
 800539e:	68fe      	ldr	r6, [r7, #12]
 80053a0:	6bbc      	ldr	r4, [r7, #56]	; 0x38
 80053a2:	3e01      	subs	r6, #1
 80053a4:	4683      	mov	fp, r0
 80053a6:	4426      	add	r6, r4
 80053a8:	46b8      	mov	r8, r7
 80053aa:	e894 0028 	ldmia.w	r4, {r3, r5}
 80053ae:	bbab      	cbnz	r3, 800541c <_RemoveHoles+0x84>
 80053b0:	1961      	adds	r1, r4, r5
 80053b2:	428e      	cmp	r6, r1
 80053b4:	d932      	bls.n	800541c <_RemoveHoles+0x84>
 80053b6:	f854 a005 	ldr.w	sl, [r4, r5]
 80053ba:	f1ba 0f00 	cmp.w	sl, #0
 80053be:	d02d      	beq.n	800541c <_RemoveHoles+0x84>
 80053c0:	6b7b      	ldr	r3, [r7, #52]	; 0x34
 80053c2:	f813 303a 	ldrb.w	r3, [r3, sl, lsl #3]
 80053c6:	2b01      	cmp	r3, #1
 80053c8:	d128      	bne.n	800541c <_RemoveHoles+0x84>
 80053ca:	f8d8 302c 	ldr.w	r3, [r8, #44]	; 0x2c
 80053ce:	f8d1 9004 	ldr.w	r9, [r1, #4]
 80053d2:	9300      	str	r3, [sp, #0]
 80053d4:	4620      	mov	r0, r4
 80053d6:	9101      	str	r1, [sp, #4]
 80053d8:	f7ff ff6c 	bl	80052b4 <_RemoveFreeBlock>
 80053dc:	9901      	ldr	r1, [sp, #4]
 80053de:	f8d8 2034 	ldr.w	r2, [r8, #52]	; 0x34
 80053e2:	6808      	ldr	r0, [r1, #0]
 80053e4:	eb02 02c0 	add.w	r2, r2, r0, lsl #3
 80053e8:	4620      	mov	r0, r4
 80053ea:	6054      	str	r4, [r2, #4]
 80053ec:	464a      	mov	r2, r9
 80053ee:	f006 f81f 	bl	800b430 <memmove>
 80053f2:	9b00      	ldr	r3, [sp, #0]
 80053f4:	459a      	cmp	sl, r3
 80053f6:	bf08      	it	eq
 80053f8:	f8d8 3034 	ldreq.w	r3, [r8, #52]	; 0x34
 80053fc:	eb04 0109 	add.w	r1, r4, r9
 8005400:	bf08      	it	eq
 8005402:	1b5b      	subeq	r3, r3, r5
 8005404:	4628      	mov	r0, r5
 8005406:	bf08      	it	eq
 8005408:	f8c8 3034 	streq.w	r3, [r8, #52]	; 0x34
 800540c:	f7ff ff72 	bl	80052f4 <_AddFreeMemory>
 8005410:	f1bb 0f00 	cmp.w	fp, #0
 8005414:	d001      	beq.n	800541a <_RemoveHoles+0x82>
 8005416:	4558      	cmp	r0, fp
 8005418:	d205      	bcs.n	8005426 <_RemoveHoles+0x8e>
 800541a:	464d      	mov	r5, r9
 800541c:	442c      	add	r4, r5
 800541e:	42a6      	cmp	r6, r4
 8005420:	d8c3      	bhi.n	80053aa <_RemoveHoles+0x12>
 8005422:	2001      	movs	r0, #1
 8005424:	e000      	b.n	8005428 <_RemoveHoles+0x90>
 8005426:	2000      	movs	r0, #0
 8005428:	b003      	add	sp, #12
 800542a:	e8bd 8ff0 	ldmia.w	sp!, {r4, r5, r6, r7, r8, r9, sl, fp, pc}
 800542e:	bf00      	nop
 8005430:	20029050 	.word	0x20029050

08005434 <GUI_ALLOC_FreeFixedBlock>:
 8005434:	b128      	cbz	r0, 8005442 <GUI_ALLOC_FreeFixedBlock+0xe>
 8005436:	4b03      	ldr	r3, [pc, #12]	; (8005444 <GUI_ALLOC_FreeFixedBlock+0x10>)
 8005438:	6bda      	ldr	r2, [r3, #60]	; 0x3c
 800543a:	6002      	str	r2, [r0, #0]
 800543c:	b102      	cbz	r2, 8005440 <GUI_ALLOC_FreeFixedBlock+0xc>
 800543e:	6050      	str	r0, [r2, #4]
 8005440:	63d8      	str	r0, [r3, #60]	; 0x3c
 8005442:	4770      	bx	lr
 8005444:	20029050 	.word	0x20029050

08005448 <GUI_ALLOC_h2p>:
 8005448:	4b03      	ldr	r3, [pc, #12]	; (8005458 <GUI_ALLOC_h2p+0x10>)
 800544a:	6b5b      	ldr	r3, [r3, #52]	; 0x34
 800544c:	eb03 00c0 	add.w	r0, r3, r0, lsl #3
 8005450:	6840      	ldr	r0, [r0, #4]
 8005452:	3008      	adds	r0, #8
 8005454:	4770      	bx	lr
 8005456:	bf00      	nop
 8005458:	20029050 	.word	0x20029050

0800545c <GUI_ALLOC_LockH>:
 800545c:	4b05      	ldr	r3, [pc, #20]	; (8005474 <GUI_ALLOC_LockH+0x18>)
 800545e:	69da      	ldr	r2, [r3, #28]
 8005460:	3201      	adds	r2, #1
 8005462:	61da      	str	r2, [r3, #28]
 8005464:	6b5a      	ldr	r2, [r3, #52]	; 0x34
 8005466:	f812 3030 	ldrb.w	r3, [r2, r0, lsl #3]
 800546a:	3301      	adds	r3, #1
 800546c:	f802 3030 	strb.w	r3, [r2, r0, lsl #3]
 8005470:	f7ff bfea 	b.w	8005448 <GUI_ALLOC_h2p>
 8005474:	20029050 	.word	0x20029050

08005478 <GUI_ALLOC_UnlockH>:
 8005478:	b530      	push	{r4, r5, lr}
 800547a:	6803      	ldr	r3, [r0, #0]
 800547c:	4909      	ldr	r1, [pc, #36]	; (80054a4 <GUI_ALLOC_UnlockH+0x2c>)
 800547e:	f853 5c08 	ldr.w	r5, [r3, #-8]
 8005482:	6b4c      	ldr	r4, [r1, #52]	; 0x34
 8005484:	f814 3035 	ldrb.w	r3, [r4, r5, lsl #3]
 8005488:	2b01      	cmp	r3, #1
 800548a:	d903      	bls.n	8005494 <GUI_ALLOC_UnlockH+0x1c>
 800548c:	69ca      	ldr	r2, [r1, #28]
 800548e:	b10a      	cbz	r2, 8005494 <GUI_ALLOC_UnlockH+0x1c>
 8005490:	3a01      	subs	r2, #1
 8005492:	61ca      	str	r2, [r1, #28]
 8005494:	3b01      	subs	r3, #1
 8005496:	f804 3035 	strb.w	r3, [r4, r5, lsl #3]
 800549a:	2300      	movs	r3, #0
 800549c:	6003      	str	r3, [r0, #0]
 800549e:	4618      	mov	r0, r3
 80054a0:	bd30      	pop	{r4, r5, pc}
 80054a2:	bf00      	nop
 80054a4:	20029050 	.word	0x20029050

080054a8 <GUI_ALLOC_AssignMemory>:
 80054a8:	4b02      	ldr	r3, [pc, #8]	; (80054b4 <GUI_ALLOC_AssignMemory+0xc>)
 80054aa:	f021 0103 	bic.w	r1, r1, #3
 80054ae:	6018      	str	r0, [r3, #0]
 80054b0:	6059      	str	r1, [r3, #4]
 80054b2:	4770      	bx	lr
 80054b4:	20028d8c 	.word	0x20028d8c

080054b8 <GUI_ALLOC_Free>:
 80054b8:	b510      	push	{r4, lr}
 80054ba:	4604      	mov	r4, r0
 80054bc:	b160      	cbz	r0, 80054d8 <GUI_ALLOC_Free+0x20>
 80054be:	4b07      	ldr	r3, [pc, #28]	; (80054dc <GUI_ALLOC_Free+0x24>)
 80054c0:	6b5b      	ldr	r3, [r3, #52]	; 0x34
 80054c2:	eb03 03c0 	add.w	r3, r3, r0, lsl #3
 80054c6:	6859      	ldr	r1, [r3, #4]
 80054c8:	6848      	ldr	r0, [r1, #4]
 80054ca:	f7ff ff13 	bl	80052f4 <_AddFreeMemory>
 80054ce:	4620      	mov	r0, r4
 80054d0:	e8bd 4010 	ldmia.w	sp!, {r4, lr}
 80054d4:	f7ff bedc 	b.w	8005290 <_PushFreeBlock>
 80054d8:	bd10      	pop	{r4, pc}
 80054da:	bf00      	nop
 80054dc:	20029050 	.word	0x20029050

080054e0 <_EnlargeBlocks>:
 80054e0:	e92d 41f0 	stmdb	sp!, {r4, r5, r6, r7, r8, lr}
 80054e4:	4c22      	ldr	r4, [pc, #136]	; (8005570 <_EnlargeBlocks+0x90>)
 80054e6:	6ae3      	ldr	r3, [r4, #44]	; 0x2c
 80054e8:	b93b      	cbnz	r3, 80054fa <_EnlargeBlocks+0x1a>
 80054ea:	4b22      	ldr	r3, [pc, #136]	; (8005574 <_EnlargeBlocks+0x94>)
 80054ec:	689d      	ldr	r5, [r3, #8]
 80054ee:	685b      	ldr	r3, [r3, #4]
 80054f0:	3508      	adds	r5, #8
 80054f2:	fbb3 f5f5 	udiv	r5, r3, r5
 80054f6:	3502      	adds	r5, #2
 80054f8:	e003      	b.n	8005502 <_EnlargeBlocks+0x22>
 80054fa:	6923      	ldr	r3, [r4, #16]
 80054fc:	1d1d      	adds	r5, r3, #4
 80054fe:	eb05 05d3 	add.w	r5, r5, r3, lsr #3
 8005502:	00e8      	lsls	r0, r5, #3
 8005504:	f000 f8de 	bl	80056c4 <_Alloc>
 8005508:	4680      	mov	r8, r0
 800550a:	b360      	cbz	r0, 8005566 <_EnlargeBlocks+0x86>
 800550c:	6b61      	ldr	r1, [r4, #52]	; 0x34
 800550e:	6922      	ldr	r2, [r4, #16]
 8005510:	6ae7      	ldr	r7, [r4, #44]	; 0x2c
 8005512:	eb01 03c0 	add.w	r3, r1, r0, lsl #3
 8005516:	00d2      	lsls	r2, r2, #3
 8005518:	685e      	ldr	r6, [r3, #4]
 800551a:	4b17      	ldr	r3, [pc, #92]	; (8005578 <_EnlargeBlocks+0x98>)
 800551c:	3608      	adds	r6, #8
 800551e:	681b      	ldr	r3, [r3, #0]
 8005520:	4630      	mov	r0, r6
 8005522:	4798      	blx	r3
 8005524:	6922      	ldr	r2, [r4, #16]
 8005526:	6366      	str	r6, [r4, #52]	; 0x34
 8005528:	f8c4 802c 	str.w	r8, [r4, #44]	; 0x2c
 800552c:	4613      	mov	r3, r2
 800552e:	1e69      	subs	r1, r5, #1
 8005530:	428b      	cmp	r3, r1
 8005532:	d205      	bcs.n	8005540 <_EnlargeBlocks+0x60>
 8005534:	3301      	adds	r3, #1
 8005536:	eb06 00c3 	add.w	r0, r6, r3, lsl #3
 800553a:	f840 3c04 	str.w	r3, [r0, #-4]
 800553e:	e7f7      	b.n	8005530 <_EnlargeBlocks+0x50>
 8005540:	eb06 06c3 	add.w	r6, r6, r3, lsl #3
 8005544:	f04f 0800 	mov.w	r8, #0
 8005548:	f8c6 8004 	str.w	r8, [r6, #4]
 800554c:	6863      	ldr	r3, [r4, #4]
 800554e:	6262      	str	r2, [r4, #36]	; 0x24
 8005550:	1a9b      	subs	r3, r3, r2
 8005552:	442b      	add	r3, r5
 8005554:	6063      	str	r3, [r4, #4]
 8005556:	6125      	str	r5, [r4, #16]
 8005558:	4638      	mov	r0, r7
 800555a:	b13f      	cbz	r7, 800556c <_EnlargeBlocks+0x8c>
 800555c:	f7ff ffac 	bl	80054b8 <GUI_ALLOC_Free>
 8005560:	4640      	mov	r0, r8
 8005562:	e8bd 81f0 	ldmia.w	sp!, {r4, r5, r6, r7, r8, pc}
 8005566:	2001      	movs	r0, #1
 8005568:	e8bd 81f0 	ldmia.w	sp!, {r4, r5, r6, r7, r8, pc}
 800556c:	e8bd 81f0 	ldmia.w	sp!, {r4, r5, r6, r7, r8, pc}
 8005570:	20029050 	.word	0x20029050
 8005574:	20028d8c 	.word	0x20028d8c
 8005578:	200000a4 	.word	0x200000a4

0800557c <_InitOnce>:
 800557c:	b570      	push	{r4, r5, r6, lr}
 800557e:	4a17      	ldr	r2, [pc, #92]	; (80055dc <_InitOnce+0x60>)
 8005580:	f892 3028 	ldrb.w	r3, [r2, #40]	; 0x28
 8005584:	bb43      	cbnz	r3, 80055d8 <_InitOnce+0x5c>
 8005586:	2301      	movs	r3, #1
 8005588:	f882 3028 	strb.w	r3, [r2, #40]	; 0x28
 800558c:	4b14      	ldr	r3, [pc, #80]	; (80055e0 <_InitOnce+0x64>)
 800558e:	6899      	ldr	r1, [r3, #8]
 8005590:	b911      	cbnz	r1, 8005598 <_InitOnce+0x1c>
 8005592:	6859      	ldr	r1, [r3, #4]
 8005594:	0889      	lsrs	r1, r1, #2
 8005596:	6099      	str	r1, [r3, #8]
 8005598:	215a      	movs	r1, #90	; 0x5a
 800559a:	6211      	str	r1, [r2, #32]
 800559c:	2610      	movs	r6, #16
 800559e:	2100      	movs	r1, #0
 80055a0:	eb02 00c1 	add.w	r0, r2, r1, lsl #3
 80055a4:	fa06 f501 	lsl.w	r5, r6, r1
 80055a8:	3101      	adds	r1, #1
 80055aa:	2910      	cmp	r1, #16
 80055ac:	4c0b      	ldr	r4, [pc, #44]	; (80055dc <_InitOnce+0x60>)
 80055ae:	6405      	str	r5, [r0, #64]	; 0x40
 80055b0:	d1f6      	bne.n	80055a0 <_InitOnce+0x24>
 80055b2:	6858      	ldr	r0, [r3, #4]
 80055b4:	6819      	ldr	r1, [r3, #0]
 80055b6:	63a1      	str	r1, [r4, #56]	; 0x38
 80055b8:	2302      	movs	r3, #2
 80055ba:	6123      	str	r3, [r4, #16]
 80055bc:	f1a0 0314 	sub.w	r3, r0, #20
 80055c0:	440b      	add	r3, r1
 80055c2:	2501      	movs	r5, #1
 80055c4:	6363      	str	r3, [r4, #52]	; 0x34
 80055c6:	60e0      	str	r0, [r4, #12]
 80055c8:	605d      	str	r5, [r3, #4]
 80055ca:	6265      	str	r5, [r4, #36]	; 0x24
 80055cc:	6065      	str	r5, [r4, #4]
 80055ce:	f7ff fe91 	bl	80052f4 <_AddFreeMemory>
 80055d2:	f7ff ff85 	bl	80054e0 <_EnlargeBlocks>
 80055d6:	6325      	str	r5, [r4, #48]	; 0x30
 80055d8:	bd70      	pop	{r4, r5, r6, pc}
 80055da:	bf00      	nop
 80055dc:	20029050 	.word	0x20029050
 80055e0:	20028d8c 	.word	0x20028d8c

080055e4 <GUI_ALLOC_GetFixedBlock>:
 80055e4:	e92d 41f0 	stmdb	sp!, {r4, r5, r6, r7, r8, lr}
 80055e8:	4607      	mov	r7, r0
 80055ea:	4e26      	ldr	r6, [pc, #152]	; (8005684 <GUI_ALLOC_GetFixedBlock+0xa0>)
 80055ec:	3703      	adds	r7, #3
 80055ee:	f7ff ffc5 	bl	800557c <_InitOnce>
 80055f2:	f027 0703 	bic.w	r7, r7, #3
 80055f6:	6c30      	ldr	r0, [r6, #64]	; 0x40
 80055f8:	6bf2      	ldr	r2, [r6, #60]	; 0x3c
 80055fa:	3704      	adds	r7, #4
 80055fc:	4287      	cmp	r7, r0
 80055fe:	bf38      	it	cc
 8005600:	4607      	movcc	r7, r0
 8005602:	4614      	mov	r4, r2
 8005604:	b134      	cbz	r4, 8005614 <GUI_ALLOC_GetFixedBlock+0x30>
 8005606:	f854 3c04 	ldr.w	r3, [r4, #-4]
 800560a:	429f      	cmp	r7, r3
 800560c:	6823      	ldr	r3, [r4, #0]
 800560e:	d02c      	beq.n	800566a <GUI_ALLOC_GetFixedBlock+0x86>
 8005610:	461c      	mov	r4, r3
 8005612:	e7f7      	b.n	8005604 <GUI_ALLOC_GetFixedBlock+0x20>
 8005614:	68f3      	ldr	r3, [r6, #12]
 8005616:	6bb2      	ldr	r2, [r6, #56]	; 0x38
 8005618:	eb02 0803 	add.w	r8, r2, r3
 800561c:	f858 5c04 	ldr.w	r5, [r8, #-4]
 8005620:	ebc5 0508 	rsb	r5, r5, r8
 8005624:	682b      	ldr	r3, [r5, #0]
 8005626:	b133      	cbz	r3, 8005636 <GUI_ALLOC_GetFixedBlock+0x52>
 8005628:	4620      	mov	r0, r4
 800562a:	f7ff feb5 	bl	8005398 <_RemoveHoles>
 800562e:	f858 5c04 	ldr.w	r5, [r8, #-4]
 8005632:	ebc5 0508 	rsb	r5, r5, r8
 8005636:	682b      	ldr	r3, [r5, #0]
 8005638:	bb0b      	cbnz	r3, 800567e <GUI_ALLOC_GetFixedBlock+0x9a>
 800563a:	686b      	ldr	r3, [r5, #4]
 800563c:	429f      	cmp	r7, r3
 800563e:	dc1e      	bgt.n	800567e <GUI_ALLOC_GetFixedBlock+0x9a>
 8005640:	4628      	mov	r0, r5
 8005642:	1d1c      	adds	r4, r3, #4
 8005644:	f7ff fe36 	bl	80052b4 <_RemoveFreeBlock>
 8005648:	68f3      	ldr	r3, [r6, #12]
 800564a:	6868      	ldr	r0, [r5, #4]
 800564c:	1bdb      	subs	r3, r3, r7
 800564e:	60f3      	str	r3, [r6, #12]
 8005650:	6973      	ldr	r3, [r6, #20]
 8005652:	1be4      	subs	r4, r4, r7
 8005654:	443b      	add	r3, r7
 8005656:	1bc0      	subs	r0, r0, r7
 8005658:	442c      	add	r4, r5
 800565a:	6173      	str	r3, [r6, #20]
 800565c:	d002      	beq.n	8005664 <GUI_ALLOC_GetFixedBlock+0x80>
 800565e:	4629      	mov	r1, r5
 8005660:	f7ff fe48 	bl	80052f4 <_AddFreeMemory>
 8005664:	f844 7c04 	str.w	r7, [r4, #-4]
 8005668:	e009      	b.n	800567e <GUI_ALLOC_GetFixedBlock+0x9a>
 800566a:	b10b      	cbz	r3, 8005670 <GUI_ALLOC_GetFixedBlock+0x8c>
 800566c:	6861      	ldr	r1, [r4, #4]
 800566e:	6059      	str	r1, [r3, #4]
 8005670:	6861      	ldr	r1, [r4, #4]
 8005672:	b101      	cbz	r1, 8005676 <GUI_ALLOC_GetFixedBlock+0x92>
 8005674:	600b      	str	r3, [r1, #0]
 8005676:	42a2      	cmp	r2, r4
 8005678:	d101      	bne.n	800567e <GUI_ALLOC_GetFixedBlock+0x9a>
 800567a:	6823      	ldr	r3, [r4, #0]
 800567c:	63f3      	str	r3, [r6, #60]	; 0x3c
 800567e:	4620      	mov	r0, r4
 8005680:	e8bd 81f0 	ldmia.w	sp!, {r4, r5, r6, r7, r8, pc}
 8005684:	20029050 	.word	0x20029050

08005688 <GUI_ALLOC_GetMaxSize>:
 8005688:	b508      	push	{r3, lr}
 800568a:	f7ff ff77 	bl	800557c <_InitOnce>
 800568e:	4a0c      	ldr	r2, [pc, #48]	; (80056c0 <GUI_ALLOC_GetMaxSize+0x38>)
 8005690:	2300      	movs	r3, #0
 8005692:	1899      	adds	r1, r3, r2
 8005694:	f8d1 00bc 	ldr.w	r0, [r1, #188]	; 0xbc
 8005698:	b110      	cbz	r0, 80056a0 <GUI_ALLOC_GetMaxSize+0x18>
 800569a:	6883      	ldr	r3, [r0, #8]
 800569c:	2000      	movs	r0, #0
 800569e:	e00b      	b.n	80056b8 <GUI_ALLOC_GetMaxSize+0x30>
 80056a0:	3b08      	subs	r3, #8
 80056a2:	f113 0f80 	cmn.w	r3, #128	; 0x80
 80056a6:	d1f4      	bne.n	8005692 <GUI_ALLOC_GetMaxSize+0xa>
 80056a8:	e008      	b.n	80056bc <GUI_ALLOC_GetMaxSize+0x34>
 80056aa:	685a      	ldr	r2, [r3, #4]
 80056ac:	689b      	ldr	r3, [r3, #8]
 80056ae:	4290      	cmp	r0, r2
 80056b0:	bf38      	it	cc
 80056b2:	4610      	movcc	r0, r2
 80056b4:	b113      	cbz	r3, 80056bc <GUI_ALLOC_GetMaxSize+0x34>
 80056b6:	689b      	ldr	r3, [r3, #8]
 80056b8:	2b00      	cmp	r3, #0
 80056ba:	d1f6      	bne.n	80056aa <GUI_ALLOC_GetMaxSize+0x22>
 80056bc:	380c      	subs	r0, #12
 80056be:	bd08      	pop	{r3, pc}
 80056c0:	20029050 	.word	0x20029050

080056c4 <_Alloc>:
 80056c4:	e92d 43f8 	stmdb	sp!, {r3, r4, r5, r6, r7, r8, r9, lr}
 80056c8:	4e39      	ldr	r6, [pc, #228]	; (80057b0 <_Alloc+0xec>)
 80056ca:	4604      	mov	r4, r0
 80056cc:	f7ff ff56 	bl	800557c <_InitOnce>
 80056d0:	6c35      	ldr	r5, [r6, #64]	; 0x40
 80056d2:	6833      	ldr	r3, [r6, #0]
 80056d4:	42ac      	cmp	r4, r5
 80056d6:	bf24      	itt	cs
 80056d8:	3403      	addcs	r4, #3
 80056da:	f024 0503 	biccs.w	r5, r4, #3
 80056de:	350c      	adds	r5, #12
 80056e0:	42ab      	cmp	r3, r5
 80056e2:	4c33      	ldr	r4, [pc, #204]	; (80057b0 <_Alloc+0xec>)
 80056e4:	d33e      	bcc.n	8005764 <_Alloc+0xa0>
 80056e6:	6b23      	ldr	r3, [r4, #48]	; 0x30
 80056e8:	6862      	ldr	r2, [r4, #4]
 80056ea:	429a      	cmp	r2, r3
 80056ec:	d90f      	bls.n	800570e <_Alloc+0x4a>
 80056ee:	6873      	ldr	r3, [r6, #4]
 80056f0:	6a77      	ldr	r7, [r6, #36]	; 0x24
 80056f2:	3b01      	subs	r3, #1
 80056f4:	6073      	str	r3, [r6, #4]
 80056f6:	6b73      	ldr	r3, [r6, #52]	; 0x34
 80056f8:	ea4f 08c7 	mov.w	r8, r7, lsl #3
 80056fc:	eb03 0208 	add.w	r2, r3, r8
 8005700:	6852      	ldr	r2, [r2, #4]
 8005702:	6272      	str	r2, [r6, #36]	; 0x24
 8005704:	2201      	movs	r2, #1
 8005706:	f803 2037 	strb.w	r2, [r3, r7, lsl #3]
 800570a:	b957      	cbnz	r7, 8005722 <_Alloc+0x5e>
 800570c:	e02a      	b.n	8005764 <_Alloc+0xa0>
 800570e:	3b01      	subs	r3, #1
 8005710:	6323      	str	r3, [r4, #48]	; 0x30
 8005712:	f7ff fee5 	bl	80054e0 <_EnlargeBlocks>
 8005716:	6b23      	ldr	r3, [r4, #48]	; 0x30
 8005718:	3301      	adds	r3, #1
 800571a:	6323      	str	r3, [r4, #48]	; 0x30
 800571c:	2800      	cmp	r0, #0
 800571e:	d0e6      	beq.n	80056ee <_Alloc+0x2a>
 8005720:	e020      	b.n	8005764 <_Alloc+0xa0>
 8005722:	230f      	movs	r3, #15
 8005724:	eb06 02c3 	add.w	r2, r6, r3, lsl #3
 8005728:	6c12      	ldr	r2, [r2, #64]	; 0x40
 800572a:	4295      	cmp	r5, r2
 800572c:	d20c      	bcs.n	8005748 <_Alloc+0x84>
 800572e:	f113 33ff 	adds.w	r3, r3, #4294967295	; 0xffffffff
 8005732:	d2f7      	bcs.n	8005724 <_Alloc+0x60>
 8005734:	e008      	b.n	8005748 <_Alloc+0x84>
 8005736:	6894      	ldr	r4, [r2, #8]
 8005738:	b12c      	cbz	r4, 8005746 <_Alloc+0x82>
 800573a:	6862      	ldr	r2, [r4, #4]
 800573c:	4295      	cmp	r5, r2
 800573e:	d914      	bls.n	800576a <_Alloc+0xa6>
 8005740:	68a2      	ldr	r2, [r4, #8]
 8005742:	2a00      	cmp	r2, #0
 8005744:	d1f7      	bne.n	8005736 <_Alloc+0x72>
 8005746:	3301      	adds	r3, #1
 8005748:	2b0f      	cmp	r3, #15
 800574a:	d803      	bhi.n	8005754 <_Alloc+0x90>
 800574c:	eb06 02c3 	add.w	r2, r6, r3, lsl #3
 8005750:	6c52      	ldr	r2, [r2, #68]	; 0x44
 8005752:	e7f6      	b.n	8005742 <_Alloc+0x7e>
 8005754:	4628      	mov	r0, r5
 8005756:	f7ff fe1f 	bl	8005398 <_RemoveHoles>
 800575a:	2800      	cmp	r0, #0
 800575c:	d0e1      	beq.n	8005722 <_Alloc+0x5e>
 800575e:	4638      	mov	r0, r7
 8005760:	f7ff fd96 	bl	8005290 <_PushFreeBlock>
 8005764:	2000      	movs	r0, #0
 8005766:	e8bd 83f8 	ldmia.w	sp!, {r3, r4, r5, r6, r7, r8, r9, pc}
 800576a:	f8d4 9004 	ldr.w	r9, [r4, #4]
 800576e:	6c33      	ldr	r3, [r6, #64]	; 0x40
 8005770:	ebc5 0209 	rsb	r2, r5, r9
 8005774:	330c      	adds	r3, #12
 8005776:	4620      	mov	r0, r4
 8005778:	429a      	cmp	r2, r3
 800577a:	bf38      	it	cc
 800577c:	464d      	movcc	r5, r9
 800577e:	f7ff fd99 	bl	80052b4 <_RemoveFreeBlock>
 8005782:	6b73      	ldr	r3, [r6, #52]	; 0x34
 8005784:	1961      	adds	r1, r4, r5
 8005786:	4498      	add	r8, r3
 8005788:	454d      	cmp	r5, r9
 800578a:	f04f 0300 	mov.w	r3, #0
 800578e:	f8c8 4004 	str.w	r4, [r8, #4]
 8005792:	6027      	str	r7, [r4, #0]
 8005794:	6065      	str	r5, [r4, #4]
 8005796:	60a3      	str	r3, [r4, #8]
 8005798:	6124      	str	r4, [r4, #16]
 800579a:	f841 5c04 	str.w	r5, [r1, #-4]
 800579e:	da03      	bge.n	80057a8 <_Alloc+0xe4>
 80057a0:	ebc5 0009 	rsb	r0, r5, r9
 80057a4:	f7ff fda6 	bl	80052f4 <_AddFreeMemory>
 80057a8:	4638      	mov	r0, r7
 80057aa:	e8bd 83f8 	ldmia.w	sp!, {r3, r4, r5, r6, r7, r8, r9, pc}
 80057ae:	bf00      	nop
 80057b0:	20029050 	.word	0x20029050

080057b4 <GUI_ALLOC_AllocNoInit>:
 80057b4:	b108      	cbz	r0, 80057ba <GUI_ALLOC_AllocNoInit+0x6>
 80057b6:	f7ff bf85 	b.w	80056c4 <_Alloc>
 80057ba:	4770      	bx	lr

080057bc <GUI_ALLOC_AllocZero>:
 80057bc:	b573      	push	{r0, r1, r4, r5, r6, lr}
 80057be:	4606      	mov	r6, r0
 80057c0:	f7ff fff8 	bl	80057b4 <GUI_ALLOC_AllocNoInit>
 80057c4:	4605      	mov	r5, r0
 80057c6:	b160      	cbz	r0, 80057e2 <GUI_ALLOC_AllocZero+0x26>
 80057c8:	f7ff fe48 	bl	800545c <GUI_ALLOC_LockH>
 80057cc:	ac02      	add	r4, sp, #8
 80057ce:	4b06      	ldr	r3, [pc, #24]	; (80057e8 <GUI_ALLOC_AllocZero+0x2c>)
 80057d0:	f844 0d04 	str.w	r0, [r4, #-4]!
 80057d4:	681b      	ldr	r3, [r3, #0]
 80057d6:	4632      	mov	r2, r6
 80057d8:	2100      	movs	r1, #0
 80057da:	4798      	blx	r3
 80057dc:	4620      	mov	r0, r4
 80057de:	f7ff fe4b 	bl	8005478 <GUI_ALLOC_UnlockH>
 80057e2:	4628      	mov	r0, r5
 80057e4:	b002      	add	sp, #8
 80057e6:	bd70      	pop	{r4, r5, r6, pc}
 80057e8:	200000a8 	.word	0x200000a8

080057ec <GUI_CalcColorDist>:
 80057ec:	b2c3      	uxtb	r3, r0
 80057ee:	b2ca      	uxtb	r2, r1
 80057f0:	1a9a      	subs	r2, r3, r2
 80057f2:	b292      	uxth	r2, r2
 80057f4:	b510      	push	{r4, lr}
 80057f6:	b214      	sxth	r4, r2
 80057f8:	2c00      	cmp	r4, #0
 80057fa:	bfbc      	itt	lt
 80057fc:	4252      	neglt	r2, r2
 80057fe:	b214      	sxthlt	r4, r2
 8005800:	f3c0 2307 	ubfx	r3, r0, #8, #8
 8005804:	f3c1 2207 	ubfx	r2, r1, #8, #8
 8005808:	1a9b      	subs	r3, r3, r2
 800580a:	b29b      	uxth	r3, r3
 800580c:	0c09      	lsrs	r1, r1, #16
 800580e:	b21a      	sxth	r2, r3
 8005810:	ebc1 4110 	rsb	r1, r1, r0, lsr #16
 8005814:	2a00      	cmp	r2, #0
 8005816:	b289      	uxth	r1, r1
 8005818:	b208      	sxth	r0, r1
 800581a:	bfbc      	itt	lt
 800581c:	425b      	neglt	r3, r3
 800581e:	b21a      	sxthlt	r2, r3
 8005820:	2800      	cmp	r0, #0
 8005822:	bfbc      	itt	lt
 8005824:	4249      	neglt	r1, r1
 8005826:	b208      	sxthlt	r0, r1
 8005828:	4352      	muls	r2, r2
 800582a:	fb04 2204 	mla	r2, r4, r4, r2
 800582e:	b280      	uxth	r0, r0
 8005830:	fb00 2000 	mla	r0, r0, r0, r2
 8005834:	bd10      	pop	{r4, pc}

08005836 <GUI_GetBkColor>:
 8005836:	b508      	push	{r3, lr}
 8005838:	f001 fab2 	bl	8006da0 <LCD_GetBkColorIndex>
 800583c:	e8bd 4008 	ldmia.w	sp!, {r3, lr}
 8005840:	f001 b9b2 	b.w	8006ba8 <LCD_Index2Color>

08005844 <GUI_GetColor>:
 8005844:	b508      	push	{r3, lr}
 8005846:	f001 fab3 	bl	8006db0 <LCD_GetColorIndex>
 800584a:	e8bd 4008 	ldmia.w	sp!, {r3, lr}
 800584e:	f001 b9ab 	b.w	8006ba8 <LCD_Index2Color>
	...

08005854 <GUI_GetDrawMode>:
 8005854:	4b01      	ldr	r3, [pc, #4]	; (800585c <GUI_GetDrawMode+0x8>)
 8005856:	681b      	ldr	r3, [r3, #0]
 8005858:	7c18      	ldrb	r0, [r3, #16]
 800585a:	4770      	bx	lr
 800585c:	20000098 	.word	0x20000098

08005860 <GUI_GetVersionString>:
 8005860:	4804      	ldr	r0, [pc, #16]	; (8005874 <GUI_GetVersionString+0x14>)
 8005862:	2335      	movs	r3, #53	; 0x35
 8005864:	7003      	strb	r3, [r0, #0]
 8005866:	2334      	movs	r3, #52	; 0x34
 8005868:	7083      	strb	r3, [r0, #2]
 800586a:	70c3      	strb	r3, [r0, #3]
 800586c:	2361      	movs	r3, #97	; 0x61
 800586e:	7103      	strb	r3, [r0, #4]
 8005870:	4770      	bx	lr
 8005872:	bf00      	nop
 8005874:	20000084 	.word	0x20000084

08005878 <GUI_MergeRect>:
 8005878:	b510      	push	{r4, lr}
 800587a:	b338      	cbz	r0, 80058cc <GUI_MergeRect+0x54>
 800587c:	b309      	cbz	r1, 80058c2 <GUI_MergeRect+0x4a>
 800587e:	b30a      	cbz	r2, 80058c4 <GUI_MergeRect+0x4c>
 8005880:	f9b2 4000 	ldrsh.w	r4, [r2]
 8005884:	f9b1 3000 	ldrsh.w	r3, [r1]
 8005888:	42a3      	cmp	r3, r4
 800588a:	bfa8      	it	ge
 800588c:	4623      	movge	r3, r4
 800588e:	8003      	strh	r3, [r0, #0]
 8005890:	f9b2 4002 	ldrsh.w	r4, [r2, #2]
 8005894:	f9b1 3002 	ldrsh.w	r3, [r1, #2]
 8005898:	42a3      	cmp	r3, r4
 800589a:	bfa8      	it	ge
 800589c:	4623      	movge	r3, r4
 800589e:	8043      	strh	r3, [r0, #2]
 80058a0:	f9b2 4004 	ldrsh.w	r4, [r2, #4]
 80058a4:	f9b1 3004 	ldrsh.w	r3, [r1, #4]
 80058a8:	f9b2 2006 	ldrsh.w	r2, [r2, #6]
 80058ac:	42a3      	cmp	r3, r4
 80058ae:	bfb8      	it	lt
 80058b0:	4623      	movlt	r3, r4
 80058b2:	8083      	strh	r3, [r0, #4]
 80058b4:	f9b1 3006 	ldrsh.w	r3, [r1, #6]
 80058b8:	4293      	cmp	r3, r2
 80058ba:	bfb8      	it	lt
 80058bc:	4613      	movlt	r3, r2
 80058be:	80c3      	strh	r3, [r0, #6]
 80058c0:	bd10      	pop	{r4, pc}
 80058c2:	4611      	mov	r1, r2
 80058c4:	680b      	ldr	r3, [r1, #0]
 80058c6:	6003      	str	r3, [r0, #0]
 80058c8:	684b      	ldr	r3, [r1, #4]
 80058ca:	6043      	str	r3, [r0, #4]
 80058cc:	bd10      	pop	{r4, pc}

080058ce <GUI_MoveRect>:
 80058ce:	b168      	cbz	r0, 80058ec <GUI_MoveRect+0x1e>
 80058d0:	8803      	ldrh	r3, [r0, #0]
 80058d2:	b289      	uxth	r1, r1
 80058d4:	440b      	add	r3, r1
 80058d6:	8003      	strh	r3, [r0, #0]
 80058d8:	8883      	ldrh	r3, [r0, #4]
 80058da:	4419      	add	r1, r3
 80058dc:	8843      	ldrh	r3, [r0, #2]
 80058de:	8081      	strh	r1, [r0, #4]
 80058e0:	b292      	uxth	r2, r2
 80058e2:	4413      	add	r3, r2
 80058e4:	8043      	strh	r3, [r0, #2]
 80058e6:	88c3      	ldrh	r3, [r0, #6]
 80058e8:	441a      	add	r2, r3
 80058ea:	80c2      	strh	r2, [r0, #6]
 80058ec:	4770      	bx	lr

080058ee <GUI_GetBitmapPixelIndexEx>:
 80058ee:	b530      	push	{r4, r5, lr}
 80058f0:	2804      	cmp	r0, #4
 80058f2:	9d03      	ldr	r5, [sp, #12]
 80058f4:	d027      	beq.n	8005946 <GUI_GetBitmapPixelIndexEx+0x58>
 80058f6:	dc10      	bgt.n	800591a <GUI_GetBitmapPixelIndexEx+0x2c>
 80058f8:	2801      	cmp	r0, #1
 80058fa:	d018      	beq.n	800592e <GUI_GetBitmapPixelIndexEx+0x40>
 80058fc:	2802      	cmp	r0, #2
 80058fe:	d138      	bne.n	8005972 <GUI_GetBitmapPixelIndexEx+0x84>
 8005900:	4369      	muls	r1, r5
 8005902:	eb02 0293 	add.w	r2, r2, r3, lsr #2
 8005906:	ea6f 0043 	mvn.w	r0, r3, lsl #1
 800590a:	5c52      	ldrb	r2, [r2, r1]
 800590c:	f000 0006 	and.w	r0, r0, #6
 8005910:	fa22 f000 	lsr.w	r0, r2, r0
 8005914:	f000 0003 	and.w	r0, r0, #3
 8005918:	bd30      	pop	{r4, r5, pc}
 800591a:	2810      	cmp	r0, #16
 800591c:	d01d      	beq.n	800595a <GUI_GetBitmapPixelIndexEx+0x6c>
 800591e:	2820      	cmp	r0, #32
 8005920:	d021      	beq.n	8005966 <GUI_GetBitmapPixelIndexEx+0x78>
 8005922:	2808      	cmp	r0, #8
 8005924:	d125      	bne.n	8005972 <GUI_GetBitmapPixelIndexEx+0x84>
 8005926:	fb05 2101 	mla	r1, r5, r1, r2
 800592a:	5cc8      	ldrb	r0, [r1, r3]
 800592c:	bd30      	pop	{r4, r5, pc}
 800592e:	4369      	muls	r1, r5
 8005930:	eb02 02d3 	add.w	r2, r2, r3, lsr #3
 8005934:	43d8      	mvns	r0, r3
 8005936:	5c52      	ldrb	r2, [r2, r1]
 8005938:	f000 0007 	and.w	r0, r0, #7
 800593c:	fa22 f000 	lsr.w	r0, r2, r0
 8005940:	f000 0001 	and.w	r0, r0, #1
 8005944:	bd30      	pop	{r4, r5, pc}
 8005946:	eb02 0253 	add.w	r2, r2, r3, lsr #1
 800594a:	4369      	muls	r1, r5
 800594c:	07db      	lsls	r3, r3, #31
 800594e:	5c50      	ldrb	r0, [r2, r1]
 8005950:	bf4c      	ite	mi
 8005952:	f000 000f 	andmi.w	r0, r0, #15
 8005956:	0900      	lsrpl	r0, r0, #4
 8005958:	bd30      	pop	{r4, r5, pc}
 800595a:	104c      	asrs	r4, r1, #1
 800595c:	fb05 3304 	mla	r3, r5, r4, r3
 8005960:	f832 0013 	ldrh.w	r0, [r2, r3, lsl #1]
 8005964:	bd30      	pop	{r4, r5, pc}
 8005966:	108c      	asrs	r4, r1, #2
 8005968:	fb05 3304 	mla	r3, r5, r4, r3
 800596c:	f852 0023 	ldr.w	r0, [r2, r3, lsl #2]
 8005970:	bd30      	pop	{r4, r5, pc}
 8005972:	2000      	movs	r0, #0
 8005974:	bd30      	pop	{r4, r5, pc}

08005976 <GUI_GetBitmapPixelIndex>:
 8005976:	b513      	push	{r0, r1, r4, lr}
 8005978:	460b      	mov	r3, r1
 800597a:	b130      	cbz	r0, 800598a <GUI_GetBitmapPixelIndex+0x14>
 800597c:	88c4      	ldrh	r4, [r0, #6]
 800597e:	8881      	ldrh	r1, [r0, #4]
 8005980:	9200      	str	r2, [sp, #0]
 8005982:	6882      	ldr	r2, [r0, #8]
 8005984:	4620      	mov	r0, r4
 8005986:	f7ff ffb2 	bl	80058ee <GUI_GetBitmapPixelIndexEx>
 800598a:	b002      	add	sp, #8
 800598c:	bd10      	pop	{r4, pc}
	...

08005990 <GUI_GotoXY>:
 8005990:	4b02      	ldr	r3, [pc, #8]	; (800599c <GUI_GotoXY+0xc>)
 8005992:	681b      	ldr	r3, [r3, #0]
 8005994:	8458      	strh	r0, [r3, #34]	; 0x22
 8005996:	8499      	strh	r1, [r3, #36]	; 0x24
 8005998:	2000      	movs	r0, #0
 800599a:	4770      	bx	lr
 800599c:	20000098 	.word	0x20000098

080059a0 <GUI_RectsIntersect>:
 80059a0:	f9b0 2002 	ldrsh.w	r2, [r0, #2]
 80059a4:	f9b1 3006 	ldrsh.w	r3, [r1, #6]
 80059a8:	429a      	cmp	r2, r3
 80059aa:	dc14      	bgt.n	80059d6 <GUI_RectsIntersect+0x36>
 80059ac:	f9b1 2002 	ldrsh.w	r2, [r1, #2]
 80059b0:	f9b0 3006 	ldrsh.w	r3, [r0, #6]
 80059b4:	429a      	cmp	r2, r3
 80059b6:	dc0e      	bgt.n	80059d6 <GUI_RectsIntersect+0x36>
 80059b8:	f9b0 2000 	ldrsh.w	r2, [r0]
 80059bc:	f9b1 3004 	ldrsh.w	r3, [r1, #4]
 80059c0:	429a      	cmp	r2, r3
 80059c2:	dc08      	bgt.n	80059d6 <GUI_RectsIntersect+0x36>
 80059c4:	f9b0 0004 	ldrsh.w	r0, [r0, #4]
 80059c8:	f9b1 3000 	ldrsh.w	r3, [r1]
 80059cc:	4283      	cmp	r3, r0
 80059ce:	bfcc      	ite	gt
 80059d0:	2000      	movgt	r0, #0
 80059d2:	2001      	movle	r0, #1
 80059d4:	4770      	bx	lr
 80059d6:	2000      	movs	r0, #0
 80059d8:	4770      	bx	lr

080059da <GUI_SelectLCD>:
 80059da:	b508      	push	{r3, lr}
 80059dc:	f001 fb9c 	bl	8007118 <LCD_SelectLCD>
 80059e0:	f001 fc62 	bl	80072a8 <LCD_UpdateColorIndices>
 80059e4:	e8bd 4008 	ldmia.w	sp!, {r3, lr}
 80059e8:	f003 be06 	b.w	80095f8 <WM_Activate>

080059ec <GUI_SetBkColor>:
 80059ec:	f001 b922 	b.w	8006c34 <LCD_SetBkColor>

080059f0 <GUI_SetColor>:
 80059f0:	f001 b926 	b.w	8006c40 <LCD_SetColor>

080059f4 <GUI_SetFont>:
 80059f4:	4b03      	ldr	r3, [pc, #12]	; (8005a04 <GUI_SetFont+0x10>)
 80059f6:	681b      	ldr	r3, [r3, #0]
 80059f8:	69da      	ldr	r2, [r3, #28]
 80059fa:	b100      	cbz	r0, 80059fe <GUI_SetFont+0xa>
 80059fc:	61d8      	str	r0, [r3, #28]
 80059fe:	4610      	mov	r0, r2
 8005a00:	4770      	bx	lr
 8005a02:	bf00      	nop
 8005a04:	20000098 	.word	0x20000098

08005a08 <GUI_SetOrg>:
 8005a08:	4b09      	ldr	r3, [pc, #36]	; (8005a30 <GUI_SetOrg+0x28>)
 8005a0a:	b410      	push	{r4}
 8005a0c:	8018      	strh	r0, [r3, #0]
 8005a0e:	4b09      	ldr	r3, [pc, #36]	; (8005a34 <GUI_SetOrg+0x2c>)
 8005a10:	8019      	strh	r1, [r3, #0]
 8005a12:	4b09      	ldr	r3, [pc, #36]	; (8005a38 <GUI_SetOrg+0x30>)
 8005a14:	681b      	ldr	r3, [r3, #0]
 8005a16:	460a      	mov	r2, r1
 8005a18:	7c59      	ldrb	r1, [r3, #17]
 8005a1a:	4b08      	ldr	r3, [pc, #32]	; (8005a3c <GUI_SetOrg+0x34>)
 8005a1c:	f853 3021 	ldr.w	r3, [r3, r1, lsl #2]
 8005a20:	68d9      	ldr	r1, [r3, #12]
 8005a22:	6a0c      	ldr	r4, [r1, #32]
 8005a24:	4601      	mov	r1, r0
 8005a26:	4618      	mov	r0, r3
 8005a28:	4623      	mov	r3, r4
 8005a2a:	f85d 4b04 	ldr.w	r4, [sp], #4
 8005a2e:	4718      	bx	r3
 8005a30:	20029138 	.word	0x20029138
 8005a34:	20029128 	.word	0x20029128
 8005a38:	20000098 	.word	0x20000098
 8005a3c:	20029160 	.word	0x20029160

08005a40 <_InitContext>:
 8005a40:	b570      	push	{r4, r5, r6, lr}
 8005a42:	4e1a      	ldr	r6, [pc, #104]	; (8005aac <_InitContext+0x6c>)
 8005a44:	4d1a      	ldr	r5, [pc, #104]	; (8005ab0 <_InitContext+0x70>)
 8005a46:	f106 0384 	add.w	r3, r6, #132	; 0x84
 8005a4a:	6703      	str	r3, [r0, #112]	; 0x70
 8005a4c:	68eb      	ldr	r3, [r5, #12]
 8005a4e:	1d1a      	adds	r2, r3, #4
 8005a50:	63da      	str	r2, [r3, #60]	; 0x3c
 8005a52:	f103 0208 	add.w	r2, r3, #8
 8005a56:	639b      	str	r3, [r3, #56]	; 0x38
 8005a58:	641b      	str	r3, [r3, #64]	; 0x40
 8005a5a:	6142      	str	r2, [r0, #20]
 8005a5c:	7c5a      	ldrb	r2, [r3, #17]
 8005a5e:	4b15      	ldr	r3, [pc, #84]	; (8005ab4 <_InitContext+0x74>)
 8005a60:	4604      	mov	r4, r0
 8005a62:	f853 0022 	ldr.w	r0, [r3, r2, lsl #2]
 8005a66:	68c3      	ldr	r3, [r0, #12]
 8005a68:	f104 0108 	add.w	r1, r4, #8
 8005a6c:	6b1b      	ldr	r3, [r3, #48]	; 0x30
 8005a6e:	4798      	blx	r3
 8005a70:	4b11      	ldr	r3, [pc, #68]	; (8005ab8 <_InitContext+0x78>)
 8005a72:	6663      	str	r3, [r4, #100]	; 0x64
 8005a74:	686b      	ldr	r3, [r5, #4]
 8005a76:	61e3      	str	r3, [r4, #28]
 8005a78:	68eb      	ldr	r3, [r5, #12]
 8005a7a:	3308      	adds	r3, #8
 8005a7c:	6163      	str	r3, [r4, #20]
 8005a7e:	2301      	movs	r3, #1
 8005a80:	7623      	strb	r3, [r4, #24]
 8005a82:	76e3      	strb	r3, [r4, #27]
 8005a84:	f003 fe9a 	bl	80097bc <WM_GetDesktopWindow>
 8005a88:	2303      	movs	r3, #3
 8005a8a:	f884 3068 	strb.w	r3, [r4, #104]	; 0x68
 8005a8e:	f06f 4370 	mvn.w	r3, #4026531840	; 0xf0000000
 8005a92:	6323      	str	r3, [r4, #48]	; 0x30
 8005a94:	6363      	str	r3, [r4, #52]	; 0x34
 8005a96:	64a0      	str	r0, [r4, #72]	; 0x48
 8005a98:	6830      	ldr	r0, [r6, #0]
 8005a9a:	f001 f8cb 	bl	8006c34 <LCD_SetBkColor>
 8005a9e:	68a8      	ldr	r0, [r5, #8]
 8005aa0:	f001 f8ce 	bl	8006c40 <LCD_SetColor>
 8005aa4:	4b05      	ldr	r3, [pc, #20]	; (8005abc <_InitContext+0x7c>)
 8005aa6:	4a06      	ldr	r2, [pc, #24]	; (8005ac0 <_InitContext+0x80>)
 8005aa8:	601a      	str	r2, [r3, #0]
 8005aaa:	bd70      	pop	{r4, r5, r6, pc}
 8005aac:	20028da0 	.word	0x20028da0
 8005ab0:	2000008c 	.word	0x2000008c
 8005ab4:	20029160 	.word	0x20029160
 8005ab8:	0800b574 	.word	0x0800b574
 8005abc:	20029158 	.word	0x20029158
 8005ac0:	0800b58c 	.word	0x0800b58c

08005ac4 <_OnExit>:
 8005ac4:	b570      	push	{r4, r5, r6, lr}
 8005ac6:	4d0b      	ldr	r5, [pc, #44]	; (8005af4 <_OnExit+0x30>)
 8005ac8:	4e0b      	ldr	r6, [pc, #44]	; (8005af8 <_OnExit+0x34>)
 8005aca:	2400      	movs	r4, #0
 8005acc:	f8c5 4080 	str.w	r4, [r5, #128]	; 0x80
 8005ad0:	3504      	adds	r5, #4
 8005ad2:	6833      	ldr	r3, [r6, #0]
 8005ad4:	2274      	movs	r2, #116	; 0x74
 8005ad6:	4621      	mov	r1, r4
 8005ad8:	4628      	mov	r0, r5
 8005ada:	4798      	blx	r3
 8005adc:	6833      	ldr	r3, [r6, #0]
 8005ade:	4807      	ldr	r0, [pc, #28]	; (8005afc <_OnExit+0x38>)
 8005ae0:	2208      	movs	r2, #8
 8005ae2:	4621      	mov	r1, r4
 8005ae4:	4798      	blx	r3
 8005ae6:	4b06      	ldr	r3, [pc, #24]	; (8005b00 <_OnExit+0x3c>)
 8005ae8:	60dd      	str	r5, [r3, #12]
 8005aea:	4b06      	ldr	r3, [pc, #24]	; (8005b04 <_OnExit+0x40>)
 8005aec:	701c      	strb	r4, [r3, #0]
 8005aee:	4b06      	ldr	r3, [pc, #24]	; (8005b08 <_OnExit+0x44>)
 8005af0:	601c      	str	r4, [r3, #0]
 8005af2:	bd70      	pop	{r4, r5, r6, pc}
 8005af4:	20028da0 	.word	0x20028da0
 8005af8:	200000a8 	.word	0x200000a8
 8005afc:	20029160 	.word	0x20029160
 8005b00:	2000008c 	.word	0x2000008c
 8005b04:	20029148 	.word	0x20029148
 8005b08:	20029124 	.word	0x20029124

08005b0c <GUI_SetFuncGetpPalConvTable>:
 8005b0c:	4b01      	ldr	r3, [pc, #4]	; (8005b14 <GUI_SetFuncGetpPalConvTable+0x8>)
 8005b0e:	6018      	str	r0, [r3, #0]
 8005b10:	4770      	bx	lr
 8005b12:	bf00      	nop
 8005b14:	2000008c 	.word	0x2000008c

08005b18 <GUI_SetDefaultFont>:
 8005b18:	4b01      	ldr	r3, [pc, #4]	; (8005b20 <GUI_SetDefaultFont+0x8>)
 8005b1a:	6058      	str	r0, [r3, #4]
 8005b1c:	4770      	bx	lr
 8005b1e:	bf00      	nop
 8005b20:	2000008c 	.word	0x2000008c

08005b24 <GUI_ClearRect>:
 8005b24:	e92d 41f3 	stmdb	sp!, {r0, r1, r4, r5, r6, r7, r8, lr}
 8005b28:	4604      	mov	r4, r0
 8005b2a:	2004      	movs	r0, #4
 8005b2c:	4616      	mov	r6, r2
 8005b2e:	461f      	mov	r7, r3
 8005b30:	460d      	mov	r5, r1
 8005b32:	f000 fe2f 	bl	8006794 <LCD_SetDrawMode>
 8005b36:	4b13      	ldr	r3, [pc, #76]	; (8005b84 <GUI_ClearRect+0x60>)
 8005b38:	68db      	ldr	r3, [r3, #12]
 8005b3a:	6cda      	ldr	r2, [r3, #76]	; 0x4c
 8005b3c:	6d1b      	ldr	r3, [r3, #80]	; 0x50
 8005b3e:	4680      	mov	r8, r0
 8005b40:	4414      	add	r4, r2
 8005b42:	441d      	add	r5, r3
 8005b44:	4416      	add	r6, r2
 8005b46:	441f      	add	r7, r3
 8005b48:	4668      	mov	r0, sp
 8005b4a:	f8ad 4000 	strh.w	r4, [sp]
 8005b4e:	f8ad 6004 	strh.w	r6, [sp, #4]
 8005b52:	f8ad 5002 	strh.w	r5, [sp, #2]
 8005b56:	f8ad 7006 	strh.w	r7, [sp, #6]
 8005b5a:	f003 fccd 	bl	80094f8 <WM__InitIVRSearch>
 8005b5e:	b928      	cbnz	r0, 8005b6c <GUI_ClearRect+0x48>
 8005b60:	4640      	mov	r0, r8
 8005b62:	f000 fe17 	bl	8006794 <LCD_SetDrawMode>
 8005b66:	b002      	add	sp, #8
 8005b68:	e8bd 81f0 	ldmia.w	sp!, {r4, r5, r6, r7, r8, pc}
 8005b6c:	463b      	mov	r3, r7
 8005b6e:	4632      	mov	r2, r6
 8005b70:	4629      	mov	r1, r5
 8005b72:	4620      	mov	r0, r4
 8005b74:	f000 fe6c 	bl	8006850 <LCD_FillRect>
 8005b78:	f003 fbfc 	bl	8009374 <WM__GetNextIVR>
 8005b7c:	2800      	cmp	r0, #0
 8005b7e:	d1f5      	bne.n	8005b6c <GUI_ClearRect+0x48>
 8005b80:	e7ee      	b.n	8005b60 <GUI_ClearRect+0x3c>
 8005b82:	bf00      	nop
 8005b84:	2000008c 	.word	0x2000008c

08005b88 <GUI_Clear>:
 8005b88:	b510      	push	{r4, lr}
 8005b8a:	2100      	movs	r1, #0
 8005b8c:	4608      	mov	r0, r1
 8005b8e:	f7ff feff 	bl	8005990 <GUI_GotoXY>
 8005b92:	4904      	ldr	r1, [pc, #16]	; (8005ba4 <GUI_Clear+0x1c>)
 8005b94:	f643 73ff 	movw	r3, #16383	; 0x3fff
 8005b98:	461a      	mov	r2, r3
 8005b9a:	4608      	mov	r0, r1
 8005b9c:	e8bd 4010 	ldmia.w	sp!, {r4, lr}
 8005ba0:	f7ff bfc0 	b.w	8005b24 <GUI_ClearRect>
 8005ba4:	ffffc001 	.word	0xffffc001

08005ba8 <GUI__Config>:
 8005ba8:	b5f0      	push	{r4, r5, r6, r7, lr}
 8005baa:	4d1f      	ldr	r5, [pc, #124]	; (8005c28 <GUI__Config+0x80>)
 8005bac:	f8d5 3080 	ldr.w	r3, [r5, #128]	; 0x80
 8005bb0:	b085      	sub	sp, #20
 8005bb2:	2b00      	cmp	r3, #0
 8005bb4:	d136      	bne.n	8005c24 <GUI__Config+0x7c>
 8005bb6:	2301      	movs	r3, #1
 8005bb8:	f8c5 3080 	str.w	r3, [r5, #128]	; 0x80
 8005bbc:	4b1b      	ldr	r3, [pc, #108]	; (8005c2c <GUI__Config+0x84>)
 8005bbe:	466a      	mov	r2, sp
 8005bc0:	f103 0708 	add.w	r7, r3, #8
 8005bc4:	466e      	mov	r6, sp
 8005bc6:	6818      	ldr	r0, [r3, #0]
 8005bc8:	6859      	ldr	r1, [r3, #4]
 8005bca:	4614      	mov	r4, r2
 8005bcc:	c403      	stmia	r4!, {r0, r1}
 8005bce:	3308      	adds	r3, #8
 8005bd0:	42bb      	cmp	r3, r7
 8005bd2:	4622      	mov	r2, r4
 8005bd4:	d1f7      	bne.n	8005bc6 <GUI__Config+0x1e>
 8005bd6:	6818      	ldr	r0, [r3, #0]
 8005bd8:	8899      	ldrh	r1, [r3, #4]
 8005bda:	799b      	ldrb	r3, [r3, #6]
 8005bdc:	71a3      	strb	r3, [r4, #6]
 8005bde:	6020      	str	r0, [r4, #0]
 8005be0:	80a1      	strh	r1, [r4, #4]
 8005be2:	4c13      	ldr	r4, [pc, #76]	; (8005c30 <GUI__Config+0x88>)
 8005be4:	4633      	mov	r3, r6
 8005be6:	f813 2b01 	ldrb.w	r2, [r3], #1
 8005bea:	f804 2b01 	strb.w	r2, [r4], #1
 8005bee:	781a      	ldrb	r2, [r3, #0]
 8005bf0:	2a00      	cmp	r2, #0
 8005bf2:	d1f8      	bne.n	8005be6 <GUI__Config+0x3e>
 8005bf4:	f7ff fe34 	bl	8005860 <GUI_GetVersionString>
 8005bf8:	f810 3b01 	ldrb.w	r3, [r0], #1
 8005bfc:	4622      	mov	r2, r4
 8005bfe:	f804 3b01 	strb.w	r3, [r4], #1
 8005c02:	7803      	ldrb	r3, [r0, #0]
 8005c04:	2b00      	cmp	r3, #0
 8005c06:	d1f7      	bne.n	8005bf8 <GUI__Config+0x50>
 8005c08:	7053      	strb	r3, [r2, #1]
 8005c0a:	f7fe f843 	bl	8003c94 <GUI_X_Config>
 8005c0e:	f7fe fd5d 	bl	80046cc <LCD_X_Config>
 8005c12:	4b08      	ldr	r3, [pc, #32]	; (8005c34 <GUI__Config+0x8c>)
 8005c14:	4808      	ldr	r0, [pc, #32]	; (8005c38 <GUI__Config+0x90>)
 8005c16:	f8c5 3098 	str.w	r3, [r5, #152]	; 0x98
 8005c1a:	b005      	add	sp, #20
 8005c1c:	e8bd 40f0 	ldmia.w	sp!, {r4, r5, r6, r7, lr}
 8005c20:	f000 b888 	b.w	8005d34 <GUI__RegisterExit>
 8005c24:	b005      	add	sp, #20
 8005c26:	bdf0      	pop	{r4, r5, r6, r7, pc}
 8005c28:	20028da0 	.word	0x20028da0
 8005c2c:	0800b57c 	.word	0x0800b57c
 8005c30:	20028e24 	.word	0x20028e24
 8005c34:	08005ac5 	.word	0x08005ac5
 8005c38:	20028e38 	.word	0x20028e38

08005c3c <GUI_Init>:
 8005c3c:	b590      	push	{r4, r7, lr}
 8005c3e:	b083      	sub	sp, #12
 8005c40:	af00      	add	r7, sp, #0
 8005c42:	4a33      	ldr	r2, [pc, #204]	; (8005d10 <GUI_Init+0xd4>)
 8005c44:	4b32      	ldr	r3, [pc, #200]	; (8005d10 <GUI_Init+0xd4>)
 8005c46:	681b      	ldr	r3, [r3, #0]
 8005c48:	f023 0301 	bic.w	r3, r3, #1
 8005c4c:	6013      	str	r3, [r2, #0]
 8005c4e:	4b31      	ldr	r3, [pc, #196]	; (8005d14 <GUI_Init+0xd8>)
 8005c50:	2201      	movs	r2, #1
 8005c52:	601a      	str	r2, [r3, #0]
 8005c54:	bf00      	nop
 8005c56:	4b2f      	ldr	r3, [pc, #188]	; (8005d14 <GUI_Init+0xd8>)
 8005c58:	681b      	ldr	r3, [r3, #0]
 8005c5a:	2b00      	cmp	r3, #0
 8005c5c:	d1fb      	bne.n	8005c56 <GUI_Init+0x1a>
 8005c5e:	4b2e      	ldr	r3, [pc, #184]	; (8005d18 <GUI_Init+0xdc>)
 8005c60:	4a2e      	ldr	r2, [pc, #184]	; (8005d1c <GUI_Init+0xe0>)
 8005c62:	601a      	str	r2, [r3, #0]
 8005c64:	4b2c      	ldr	r3, [pc, #176]	; (8005d18 <GUI_Init+0xdc>)
 8005c66:	681b      	ldr	r3, [r3, #0]
 8005c68:	4a2d      	ldr	r2, [pc, #180]	; (8005d20 <GUI_Init+0xe4>)
 8005c6a:	4293      	cmp	r3, r2
 8005c6c:	d000      	beq.n	8005c70 <GUI_Init+0x34>
 8005c6e:	e7fe      	b.n	8005c6e <GUI_Init+0x32>
 8005c70:	f7ff ff9a 	bl	8005ba8 <GUI__Config>
 8005c74:	4b2b      	ldr	r3, [pc, #172]	; (8005d24 <GUI_Init+0xe8>)
 8005c76:	222e      	movs	r2, #46	; 0x2e
 8005c78:	701a      	strb	r2, [r3, #0]
 8005c7a:	f7fe f81b 	bl	8003cb4 <GUI_X_Init>
 8005c7e:	482a      	ldr	r0, [pc, #168]	; (8005d28 <GUI_Init+0xec>)
 8005c80:	f7ff fede 	bl	8005a40 <_InitContext>
 8005c84:	f000 ff30 	bl	8006ae8 <emWin_LCD_Init>
 8005c88:	6078      	str	r0, [r7, #4]
 8005c8a:	f001 f927 	bl	8006edc <LCD_GetXSizeDisplay>
 8005c8e:	4603      	mov	r3, r0
 8005c90:	2b00      	cmp	r3, #0
 8005c92:	bf0c      	ite	eq
 8005c94:	2301      	moveq	r3, #1
 8005c96:	2300      	movne	r3, #0
 8005c98:	b2dc      	uxtb	r4, r3
 8005c9a:	f001 f925 	bl	8006ee8 <LCD_GetYSizeDisplay>
 8005c9e:	4603      	mov	r3, r0
 8005ca0:	2b00      	cmp	r3, #0
 8005ca2:	bf0c      	ite	eq
 8005ca4:	2301      	moveq	r3, #1
 8005ca6:	2300      	movne	r3, #0
 8005ca8:	b2db      	uxtb	r3, r3
 8005caa:	4323      	orrs	r3, r4
 8005cac:	b2db      	uxtb	r3, r3
 8005cae:	2b00      	cmp	r3, #0
 8005cb0:	d009      	beq.n	8005cc6 <GUI_Init+0x8a>
 8005cb2:	f001 f903 	bl	8006ebc <LCD_GetXSizeMax>
 8005cb6:	4604      	mov	r4, r0
 8005cb8:	f001 f903 	bl	8006ec2 <LCD_GetYSizeMax>
 8005cbc:	4603      	mov	r3, r0
 8005cbe:	4619      	mov	r1, r3
 8005cc0:	4620      	mov	r0, r4
 8005cc2:	f001 f905 	bl	8006ed0 <LCD_SetDisplaySize>
 8005cc6:	2100      	movs	r1, #0
 8005cc8:	2000      	movs	r0, #0
 8005cca:	f7ff fe9d 	bl	8005a08 <GUI_SetOrg>
 8005cce:	f003 fcfd 	bl	80096cc <WM_Init>
 8005cd2:	4b16      	ldr	r3, [pc, #88]	; (8005d2c <GUI_Init+0xf0>)
 8005cd4:	681b      	ldr	r3, [r3, #0]
 8005cd6:	2b00      	cmp	r3, #0
 8005cd8:	d012      	beq.n	8005d00 <GUI_Init+0xc4>
 8005cda:	e00d      	b.n	8005cf8 <GUI_Init+0xbc>
 8005cdc:	4b13      	ldr	r3, [pc, #76]	; (8005d2c <GUI_Init+0xf0>)
 8005cde:	681b      	ldr	r3, [r3, #0]
 8005ce0:	681b      	ldr	r3, [r3, #0]
 8005ce2:	2b00      	cmp	r3, #0
 8005ce4:	d003      	beq.n	8005cee <GUI_Init+0xb2>
 8005ce6:	4b11      	ldr	r3, [pc, #68]	; (8005d2c <GUI_Init+0xf0>)
 8005ce8:	681b      	ldr	r3, [r3, #0]
 8005cea:	681b      	ldr	r3, [r3, #0]
 8005cec:	4798      	blx	r3
 8005cee:	4b0f      	ldr	r3, [pc, #60]	; (8005d2c <GUI_Init+0xf0>)
 8005cf0:	681b      	ldr	r3, [r3, #0]
 8005cf2:	685b      	ldr	r3, [r3, #4]
 8005cf4:	4a0d      	ldr	r2, [pc, #52]	; (8005d2c <GUI_Init+0xf0>)
 8005cf6:	6013      	str	r3, [r2, #0]
 8005cf8:	4b0c      	ldr	r3, [pc, #48]	; (8005d2c <GUI_Init+0xf0>)
 8005cfa:	681b      	ldr	r3, [r3, #0]
 8005cfc:	2b00      	cmp	r3, #0
 8005cfe:	d1ed      	bne.n	8005cdc <GUI_Init+0xa0>
 8005d00:	4b0b      	ldr	r3, [pc, #44]	; (8005d30 <GUI_Init+0xf4>)
 8005d02:	2201      	movs	r2, #1
 8005d04:	701a      	strb	r2, [r3, #0]
 8005d06:	687b      	ldr	r3, [r7, #4]
 8005d08:	4618      	mov	r0, r3
 8005d0a:	370c      	adds	r7, #12
 8005d0c:	46bd      	mov	sp, r7
 8005d0e:	bd90      	pop	{r4, r7, pc}
 8005d10:	e0002000 	.word	0xe0002000
 8005d14:	40023008 	.word	0x40023008
 8005d18:	40023000 	.word	0x40023000
 8005d1c:	f407a5c2 	.word	0xf407a5c2
 8005d20:	b5e8b5cd 	.word	0xb5e8b5cd
 8005d24:	20029118 	.word	0x20029118
 8005d28:	20028da4 	.word	0x20028da4
 8005d2c:	20028e1c 	.word	0x20028e1c
 8005d30:	20029140 	.word	0x20029140

08005d34 <GUI__RegisterExit>:
 8005d34:	b480      	push	{r7}
 8005d36:	b083      	sub	sp, #12
 8005d38:	af00      	add	r7, sp, #0
 8005d3a:	6078      	str	r0, [r7, #4]
 8005d3c:	4b06      	ldr	r3, [pc, #24]	; (8005d58 <GUI__RegisterExit+0x24>)
 8005d3e:	681a      	ldr	r2, [r3, #0]
 8005d40:	687b      	ldr	r3, [r7, #4]
 8005d42:	605a      	str	r2, [r3, #4]
 8005d44:	4a04      	ldr	r2, [pc, #16]	; (8005d58 <GUI__RegisterExit+0x24>)
 8005d46:	687b      	ldr	r3, [r7, #4]
 8005d48:	6013      	str	r3, [r2, #0]
 8005d4a:	bf00      	nop
 8005d4c:	370c      	adds	r7, #12
 8005d4e:	46bd      	mov	sp, r7
 8005d50:	f85d 7b04 	ldr.w	r7, [sp], #4
 8005d54:	4770      	bx	lr
 8005d56:	bf00      	nop
 8005d58:	20028e18 	.word	0x20028e18

08005d5c <GUI_DEVICE__GetpDriver>:
 8005d5c:	2801      	cmp	r0, #1
 8005d5e:	dc09      	bgt.n	8005d74 <GUI_DEVICE__GetpDriver+0x18>
 8005d60:	4b05      	ldr	r3, [pc, #20]	; (8005d78 <GUI_DEVICE__GetpDriver+0x1c>)
 8005d62:	f853 0020 	ldr.w	r0, [r3, r0, lsl #2]
 8005d66:	b120      	cbz	r0, 8005d72 <GUI_DEVICE__GetpDriver+0x16>
 8005d68:	68c3      	ldr	r3, [r0, #12]
 8005d6a:	681b      	ldr	r3, [r3, #0]
 8005d6c:	b11b      	cbz	r3, 8005d76 <GUI_DEVICE__GetpDriver+0x1a>
 8005d6e:	6800      	ldr	r0, [r0, #0]
 8005d70:	e7f9      	b.n	8005d66 <GUI_DEVICE__GetpDriver+0xa>
 8005d72:	4770      	bx	lr
 8005d74:	2000      	movs	r0, #0
 8005d76:	4770      	bx	lr
 8005d78:	20029160 	.word	0x20029160

08005d7c <GUI_DEVICE_Delete>:
 8005d7c:	f7ff bb5a 	b.w	8005434 <GUI_ALLOC_FreeFixedBlock>

08005d80 <GUI_DEVICE_Create>:
 8005d80:	2b01      	cmp	r3, #1
 8005d82:	b5f8      	push	{r3, r4, r5, r6, r7, lr}
 8005d84:	4606      	mov	r6, r0
 8005d86:	460d      	mov	r5, r1
 8005d88:	4617      	mov	r7, r2
 8005d8a:	461c      	mov	r4, r3
 8005d8c:	dd01      	ble.n	8005d92 <GUI_DEVICE_Create+0x12>
 8005d8e:	2000      	movs	r0, #0
 8005d90:	bdf8      	pop	{r3, r4, r5, r6, r7, pc}
 8005d92:	201c      	movs	r0, #28
 8005d94:	f7ff fc26 	bl	80055e4 <GUI_ALLOC_GetFixedBlock>
 8005d98:	2800      	cmp	r0, #0
 8005d9a:	d0f8      	beq.n	8005d8e <GUI_DEVICE_Create+0xe>
 8005d9c:	b10d      	cbz	r5, 8005da2 <GUI_DEVICE_Create+0x22>
 8005d9e:	6105      	str	r5, [r0, #16]
 8005da0:	e009      	b.n	8005db6 <GUI_DEVICE_Create+0x36>
 8005da2:	4b09      	ldr	r3, [pc, #36]	; (8005dc8 <GUI_DEVICE_Create+0x48>)
 8005da4:	f853 1024 	ldr.w	r1, [r3, r4, lsl #2]
 8005da8:	b129      	cbz	r1, 8005db6 <GUI_DEVICE_Create+0x36>
 8005daa:	680b      	ldr	r3, [r1, #0]
 8005dac:	b10b      	cbz	r3, 8005db2 <GUI_DEVICE_Create+0x32>
 8005dae:	4619      	mov	r1, r3
 8005db0:	e7fb      	b.n	8005daa <GUI_DEVICE_Create+0x2a>
 8005db2:	690b      	ldr	r3, [r1, #16]
 8005db4:	6103      	str	r3, [r0, #16]
 8005db6:	2300      	movs	r3, #0
 8005db8:	6083      	str	r3, [r0, #8]
 8005dba:	6184      	str	r4, [r0, #24]
 8005dbc:	8287      	strh	r7, [r0, #20]
 8005dbe:	60c6      	str	r6, [r0, #12]
 8005dc0:	6003      	str	r3, [r0, #0]
 8005dc2:	6043      	str	r3, [r0, #4]
 8005dc4:	bdf8      	pop	{r3, r4, r5, r6, r7, pc}
 8005dc6:	bf00      	nop
 8005dc8:	20029160 	.word	0x20029160

08005dcc <GUI_DEVICE_Unlink>:
 8005dcc:	6981      	ldr	r1, [r0, #24]
 8005dce:	4a0a      	ldr	r2, [pc, #40]	; (8005df8 <GUI_DEVICE_Unlink+0x2c>)
 8005dd0:	f852 3021 	ldr.w	r3, [r2, r1, lsl #2]
 8005dd4:	4298      	cmp	r0, r3
 8005dd6:	6803      	ldr	r3, [r0, #0]
 8005dd8:	d104      	bne.n	8005de4 <GUI_DEVICE_Unlink+0x18>
 8005dda:	f842 3021 	str.w	r3, [r2, r1, lsl #2]
 8005dde:	b10b      	cbz	r3, 8005de4 <GUI_DEVICE_Unlink+0x18>
 8005de0:	2200      	movs	r2, #0
 8005de2:	605a      	str	r2, [r3, #4]
 8005de4:	6842      	ldr	r2, [r0, #4]
 8005de6:	b102      	cbz	r2, 8005dea <GUI_DEVICE_Unlink+0x1e>
 8005de8:	6013      	str	r3, [r2, #0]
 8005dea:	6803      	ldr	r3, [r0, #0]
 8005dec:	b103      	cbz	r3, 8005df0 <GUI_DEVICE_Unlink+0x24>
 8005dee:	605a      	str	r2, [r3, #4]
 8005df0:	2300      	movs	r3, #0
 8005df2:	6003      	str	r3, [r0, #0]
 8005df4:	6043      	str	r3, [r0, #4]
 8005df6:	4770      	bx	lr
 8005df8:	20029160 	.word	0x20029160

08005dfc <GUI_DEVICE_Link>:
 8005dfc:	b530      	push	{r4, r5, lr}
 8005dfe:	b908      	cbnz	r0, 8005e04 <GUI_DEVICE_Link+0x8>
 8005e00:	2001      	movs	r0, #1
 8005e02:	bd30      	pop	{r4, r5, pc}
 8005e04:	6984      	ldr	r4, [r0, #24]
 8005e06:	2c01      	cmp	r4, #1
 8005e08:	dcfa      	bgt.n	8005e00 <GUI_DEVICE_Link+0x4>
 8005e0a:	4b1b      	ldr	r3, [pc, #108]	; (8005e78 <GUI_DEVICE_Link+0x7c>)
 8005e0c:	781a      	ldrb	r2, [r3, #0]
 8005e0e:	4294      	cmp	r4, r2
 8005e10:	bfa4      	itt	ge
 8005e12:	1c62      	addge	r2, r4, #1
 8005e14:	701a      	strbge	r2, [r3, #0]
 8005e16:	4a19      	ldr	r2, [pc, #100]	; (8005e7c <GUI_DEVICE_Link+0x80>)
 8005e18:	f852 3024 	ldr.w	r3, [r2, r4, lsl #2]
 8005e1c:	4615      	mov	r5, r2
 8005e1e:	b91b      	cbnz	r3, 8005e28 <GUI_DEVICE_Link+0x2c>
 8005e20:	f842 0024 	str.w	r0, [r2, r4, lsl #2]
 8005e24:	4618      	mov	r0, r3
 8005e26:	bd30      	pop	{r4, r5, pc}
 8005e28:	685a      	ldr	r2, [r3, #4]
 8005e2a:	b10a      	cbz	r2, 8005e30 <GUI_DEVICE_Link+0x34>
 8005e2c:	4613      	mov	r3, r2
 8005e2e:	e7fb      	b.n	8005e28 <GUI_DEVICE_Link+0x2c>
 8005e30:	68c2      	ldr	r2, [r0, #12]
 8005e32:	6812      	ldr	r2, [r2, #0]
 8005e34:	68d9      	ldr	r1, [r3, #12]
 8005e36:	6809      	ldr	r1, [r1, #0]
 8005e38:	4291      	cmp	r1, r2
 8005e3a:	dd03      	ble.n	8005e44 <GUI_DEVICE_Link+0x48>
 8005e3c:	681b      	ldr	r3, [r3, #0]
 8005e3e:	2b00      	cmp	r3, #0
 8005e40:	d1f8      	bne.n	8005e34 <GUI_DEVICE_Link+0x38>
 8005e42:	e7dd      	b.n	8005e00 <GUI_DEVICE_Link+0x4>
 8005e44:	d109      	bne.n	8005e5a <GUI_DEVICE_Link+0x5e>
 8005e46:	8a81      	ldrh	r1, [r0, #20]
 8005e48:	2901      	cmp	r1, #1
 8005e4a:	d106      	bne.n	8005e5a <GUI_DEVICE_Link+0x5e>
 8005e4c:	6819      	ldr	r1, [r3, #0]
 8005e4e:	b121      	cbz	r1, 8005e5a <GUI_DEVICE_Link+0x5e>
 8005e50:	460b      	mov	r3, r1
 8005e52:	68c9      	ldr	r1, [r1, #12]
 8005e54:	6809      	ldr	r1, [r1, #0]
 8005e56:	428a      	cmp	r2, r1
 8005e58:	ddf8      	ble.n	8005e4c <GUI_DEVICE_Link+0x50>
 8005e5a:	685a      	ldr	r2, [r3, #4]
 8005e5c:	b112      	cbz	r2, 8005e64 <GUI_DEVICE_Link+0x68>
 8005e5e:	6010      	str	r0, [r2, #0]
 8005e60:	6042      	str	r2, [r0, #4]
 8005e62:	e001      	b.n	8005e68 <GUI_DEVICE_Link+0x6c>
 8005e64:	f845 0024 	str.w	r0, [r5, r4, lsl #2]
 8005e68:	6058      	str	r0, [r3, #4]
 8005e6a:	4298      	cmp	r0, r3
 8005e6c:	bf08      	it	eq
 8005e6e:	2300      	moveq	r3, #0
 8005e70:	6003      	str	r3, [r0, #0]
 8005e72:	2000      	movs	r0, #0
 8005e74:	bd30      	pop	{r4, r5, pc}
 8005e76:	bf00      	nop
 8005e78:	20029112 	.word	0x20029112
 8005e7c:	20029160 	.word	0x20029160

08005e80 <GUI_DEVICE_CreateAndLink>:
 8005e80:	b538      	push	{r3, r4, r5, lr}
 8005e82:	461d      	mov	r5, r3
 8005e84:	f7ff ff7c 	bl	8005d80 <GUI_DEVICE_Create>
 8005e88:	4604      	mov	r4, r0
 8005e8a:	b148      	cbz	r0, 8005ea0 <GUI_DEVICE_CreateAndLink+0x20>
 8005e8c:	f7ff ffb6 	bl	8005dfc <GUI_DEVICE_Link>
 8005e90:	68e3      	ldr	r3, [r4, #12]
 8005e92:	681b      	ldr	r3, [r3, #0]
 8005e94:	b923      	cbnz	r3, 8005ea0 <GUI_DEVICE_CreateAndLink+0x20>
 8005e96:	4b03      	ldr	r3, [pc, #12]	; (8005ea4 <GUI_DEVICE_CreateAndLink+0x24>)
 8005e98:	3516      	adds	r5, #22
 8005e9a:	681b      	ldr	r3, [r3, #0]
 8005e9c:	f843 4025 	str.w	r4, [r3, r5, lsl #2]
 8005ea0:	4620      	mov	r0, r4
 8005ea2:	bd38      	pop	{r3, r4, r5, pc}
 8005ea4:	20000098 	.word	0x20000098

08005ea8 <GUI_DispString>:
 8005ea8:	e92d 4ff0 	stmdb	sp!, {r4, r5, r6, r7, r8, r9, sl, fp, lr}
 8005eac:	4605      	mov	r5, r0
 8005eae:	b085      	sub	sp, #20
 8005eb0:	2800      	cmp	r0, #0
 8005eb2:	d07f      	beq.n	8005fb4 <GUI_DispString+0x10c>
 8005eb4:	4c41      	ldr	r4, [pc, #260]	; (8005fbc <GUI_DispString+0x114>)
 8005eb6:	f004 f88d 	bl	8009fd4 <GUI_GetFontDistY>
 8005eba:	6823      	ldr	r3, [r4, #0]
 8005ebc:	4607      	mov	r7, r0
 8005ebe:	f9b3 8022 	ldrsh.w	r8, [r3, #34]	; 0x22
 8005ec2:	f004 f86f 	bl	8009fa4 <GUI_GetYAdjust>
 8005ec6:	6822      	ldr	r2, [r4, #0]
 8005ec8:	8c93      	ldrh	r3, [r2, #36]	; 0x24
 8005eca:	b286      	uxth	r6, r0
 8005ecc:	1b9b      	subs	r3, r3, r6
 8005ece:	8493      	strh	r3, [r2, #36]	; 0x24
 8005ed0:	46a1      	mov	r9, r4
 8005ed2:	782b      	ldrb	r3, [r5, #0]
 8005ed4:	2b00      	cmp	r3, #0
 8005ed6:	d061      	beq.n	8005f9c <GUI_DispString+0xf4>
 8005ed8:	f647 71ff 	movw	r1, #32767	; 0x7fff
 8005edc:	4628      	mov	r0, r5
 8005ede:	f004 f8e1 	bl	800a0a4 <GUI__GetLineNumChars>
 8005ee2:	4601      	mov	r1, r0
 8005ee4:	4682      	mov	sl, r0
 8005ee6:	4628      	mov	r0, r5
 8005ee8:	f004 f906 	bl	800a0f8 <GUI__GetLineDistX>
 8005eec:	6822      	ldr	r2, [r4, #0]
 8005eee:	8d93      	ldrh	r3, [r2, #44]	; 0x2c
 8005ef0:	f003 0303 	and.w	r3, r3, #3
 8005ef4:	2b01      	cmp	r3, #1
 8005ef6:	d004      	beq.n	8005f02 <GUI_DispString+0x5a>
 8005ef8:	2b02      	cmp	r3, #2
 8005efa:	d104      	bne.n	8005f06 <GUI_DispString+0x5e>
 8005efc:	fb90 f3f3 	sdiv	r3, r0, r3
 8005f00:	e002      	b.n	8005f08 <GUI_DispString+0x60>
 8005f02:	4603      	mov	r3, r0
 8005f04:	e000      	b.n	8005f08 <GUI_DispString+0x60>
 8005f06:	2300      	movs	r3, #0
 8005f08:	8c51      	ldrh	r1, [r2, #34]	; 0x22
 8005f0a:	1acb      	subs	r3, r1, r3
 8005f0c:	b29b      	uxth	r3, r3
 8005f0e:	b219      	sxth	r1, r3
 8005f10:	fa1f fb80 	uxth.w	fp, r0
 8005f14:	8451      	strh	r1, [r2, #34]	; 0x22
 8005f16:	f8ad 1008 	strh.w	r1, [sp, #8]
 8005f1a:	f9b2 2024 	ldrsh.w	r2, [r2, #36]	; 0x24
 8005f1e:	f8ad 200a 	strh.w	r2, [sp, #10]
 8005f22:	f10b 31ff 	add.w	r1, fp, #4294967295	; 0xffffffff
 8005f26:	440b      	add	r3, r1
 8005f28:	f8ad 300c 	strh.w	r3, [sp, #12]
 8005f2c:	3a01      	subs	r2, #1
 8005f2e:	b2bb      	uxth	r3, r7
 8005f30:	441a      	add	r2, r3
 8005f32:	f8ad 200e 	strh.w	r2, [sp, #14]
 8005f36:	4651      	mov	r1, sl
 8005f38:	aa02      	add	r2, sp, #8
 8005f3a:	4628      	mov	r0, r5
 8005f3c:	9301      	str	r3, [sp, #4]
 8005f3e:	f004 f90b 	bl	800a158 <GUI__DispLine>
 8005f42:	6822      	ldr	r2, [r4, #0]
 8005f44:	f8bd 100a 	ldrh.w	r1, [sp, #10]
 8005f48:	8491      	strh	r1, [r2, #36]	; 0x24
 8005f4a:	4628      	mov	r0, r5
 8005f4c:	4651      	mov	r1, sl
 8005f4e:	f000 f8c3 	bl	80060d8 <GUI_UC__NumChars2NumBytes>
 8005f52:	5c2a      	ldrb	r2, [r5, r0]
 8005f54:	9b01      	ldr	r3, [sp, #4]
 8005f56:	2a0a      	cmp	r2, #10
 8005f58:	eb05 0e00 	add.w	lr, r5, r0
 8005f5c:	d001      	beq.n	8005f62 <GUI_DispString+0xba>
 8005f5e:	2a0d      	cmp	r2, #13
 8005f60:	d112      	bne.n	8005f88 <GUI_DispString+0xe0>
 8005f62:	6822      	ldr	r2, [r4, #0]
 8005f64:	8d91      	ldrh	r1, [r2, #44]	; 0x2c
 8005f66:	f001 0103 	and.w	r1, r1, #3
 8005f6a:	3901      	subs	r1, #1
 8005f6c:	2901      	cmp	r1, #1
 8005f6e:	bf8a      	itet	hi
 8005f70:	8c11      	ldrhhi	r1, [r2, #32]
 8005f72:	f8a2 8022 	strhls.w	r8, [r2, #34]	; 0x22
 8005f76:	8451      	strhhi	r1, [r2, #34]	; 0x22
 8005f78:	f89e 1000 	ldrb.w	r1, [lr]
 8005f7c:	290a      	cmp	r1, #10
 8005f7e:	d10a      	bne.n	8005f96 <GUI_DispString+0xee>
 8005f80:	8c91      	ldrh	r1, [r2, #36]	; 0x24
 8005f82:	440b      	add	r3, r1
 8005f84:	8493      	strh	r3, [r2, #36]	; 0x24
 8005f86:	e006      	b.n	8005f96 <GUI_DispString+0xee>
 8005f88:	f8bd 0008 	ldrh.w	r0, [sp, #8]
 8005f8c:	f8d9 3000 	ldr.w	r3, [r9]
 8005f90:	4483      	add	fp, r0
 8005f92:	f8a3 b022 	strh.w	fp, [r3, #34]	; 0x22
 8005f96:	f89e 3000 	ldrb.w	r3, [lr]
 8005f9a:	b943      	cbnz	r3, 8005fae <GUI_DispString+0x106>
 8005f9c:	6823      	ldr	r3, [r4, #0]
 8005f9e:	8c9a      	ldrh	r2, [r3, #36]	; 0x24
 8005fa0:	4416      	add	r6, r2
 8005fa2:	8d9a      	ldrh	r2, [r3, #44]	; 0x2c
 8005fa4:	849e      	strh	r6, [r3, #36]	; 0x24
 8005fa6:	f022 0203 	bic.w	r2, r2, #3
 8005faa:	859a      	strh	r2, [r3, #44]	; 0x2c
 8005fac:	e002      	b.n	8005fb4 <GUI_DispString+0x10c>
 8005fae:	f10e 0501 	add.w	r5, lr, #1
 8005fb2:	e78e      	b.n	8005ed2 <GUI_DispString+0x2a>
 8005fb4:	b005      	add	sp, #20
 8005fb6:	e8bd 8ff0 	ldmia.w	sp!, {r4, r5, r6, r7, r8, r9, sl, fp, pc}
 8005fba:	bf00      	nop
 8005fbc:	20000098 	.word	0x20000098

08005fc0 <GUI_DispStringAt>:
 8005fc0:	4b02      	ldr	r3, [pc, #8]	; (8005fcc <GUI_DispStringAt+0xc>)
 8005fc2:	681b      	ldr	r3, [r3, #0]
 8005fc4:	8459      	strh	r1, [r3, #34]	; 0x22
 8005fc6:	849a      	strh	r2, [r3, #36]	; 0x24
 8005fc8:	f7ff bf6e 	b.w	8005ea8 <GUI_DispString>
 8005fcc:	20000098 	.word	0x20000098

08005fd0 <GUI_MULTIBUF_ConfirmEx>:
 8005fd0:	4b08      	ldr	r3, [pc, #32]	; (8005ff4 <GUI_MULTIBUF_ConfirmEx+0x24>)
 8005fd2:	6a1a      	ldr	r2, [r3, #32]
 8005fd4:	2a00      	cmp	r2, #0
 8005fd6:	bf18      	it	ne
 8005fd8:	2000      	movne	r0, #0
 8005fda:	eb03 0280 	add.w	r2, r3, r0, lsl #2
 8005fde:	b510      	push	{r4, lr}
 8005fe0:	6994      	ldr	r4, [r2, #24]
 8005fe2:	2c00      	cmp	r4, #0
 8005fe4:	bfa2      	ittt	ge
 8005fe6:	f843 1020 	strge.w	r1, [r3, r0, lsl #2]
 8005fea:	f04f 33ff 	movge.w	r3, #4294967295	; 0xffffffff
 8005fee:	6193      	strge	r3, [r2, #24]
 8005ff0:	bd10      	pop	{r4, pc}
 8005ff2:	bf00      	nop
 8005ff4:	20028e40 	.word	0x20028e40

08005ff8 <GUI_StoreKey>:
 8005ff8:	4b02      	ldr	r3, [pc, #8]	; (8006004 <GUI_StoreKey+0xc>)
 8005ffa:	681a      	ldr	r2, [r3, #0]
 8005ffc:	b902      	cbnz	r2, 8006000 <GUI_StoreKey+0x8>
 8005ffe:	6018      	str	r0, [r3, #0]
 8006000:	f000 b886 	b.w	8006110 <GUI_SignalEvent>
 8006004:	20028e6c 	.word	0x20028e6c

08006008 <GUI_GetCursorLayer>:
 8006008:	2801      	cmp	r0, #1
 800600a:	bf9a      	itte	ls
 800600c:	4b02      	ldrls	r3, [pc, #8]	; (8006018 <GUI_GetCursorLayer+0x10>)
 800600e:	f853 0020 	ldrls.w	r0, [r3, r0, lsl #2]
 8006012:	2000      	movhi	r0, #0
 8006014:	4770      	bx	lr
 8006016:	bf00      	nop
 8006018:	20028ecc 	.word	0x20028ecc

0800601c <GUI_GetLayerPosEx>:
 800601c:	b538      	push	{r3, r4, r5, lr}
 800601e:	460d      	mov	r5, r1
 8006020:	4614      	mov	r4, r2
 8006022:	f001 f899 	bl	8007158 <LCD_GetPosEx>
 8006026:	b110      	cbz	r0, 800602e <GUI_GetLayerPosEx+0x12>
 8006028:	2300      	movs	r3, #0
 800602a:	602b      	str	r3, [r5, #0]
 800602c:	6023      	str	r3, [r4, #0]
 800602e:	bd38      	pop	{r3, r4, r5, pc}

08006030 <GUI_SelectLayer>:
 8006030:	b570      	push	{r4, r5, r6, lr}
 8006032:	4d08      	ldr	r5, [pc, #32]	; (8006054 <GUI_SelectLayer+0x24>)
 8006034:	682b      	ldr	r3, [r5, #0]
 8006036:	2801      	cmp	r0, #1
 8006038:	4604      	mov	r4, r0
 800603a:	7c5e      	ldrb	r6, [r3, #17]
 800603c:	d808      	bhi.n	8006050 <GUI_SelectLayer+0x20>
 800603e:	f7ff fe8d 	bl	8005d5c <GUI_DEVICE__GetpDriver>
 8006042:	b128      	cbz	r0, 8006050 <GUI_SelectLayer+0x20>
 8006044:	682b      	ldr	r3, [r5, #0]
 8006046:	745c      	strb	r4, [r3, #17]
 8006048:	f7ff fcc7 	bl	80059da <GUI_SelectLCD>
 800604c:	4b02      	ldr	r3, [pc, #8]	; (8006058 <GUI_SelectLayer+0x28>)
 800604e:	601c      	str	r4, [r3, #0]
 8006050:	4630      	mov	r0, r6
 8006052:	bd70      	pop	{r4, r5, r6, pc}
 8006054:	20000098 	.word	0x20000098
 8006058:	2002919c 	.word	0x2002919c

0800605c <GUI_SetLayerPosEx>:
 800605c:	f001 b8c5 	b.w	80071ea <LCD_SetPosEx>

08006060 <GUI_TOUCH_StoreStateEx>:
 8006060:	b57f      	push	{r0, r1, r2, r3, r4, r5, r6, lr}
 8006062:	4c12      	ldr	r4, [pc, #72]	; (80060ac <GUI_TOUCH_StoreStateEx+0x4c>)
 8006064:	220c      	movs	r2, #12
 8006066:	4621      	mov	r1, r4
 8006068:	4606      	mov	r6, r0
 800606a:	f005 f9c3 	bl	800b3f4 <memcmp>
 800606e:	b1d0      	cbz	r0, 80060a6 <GUI_TOUCH_StoreStateEx+0x46>
 8006070:	68e3      	ldr	r3, [r4, #12]
 8006072:	b18b      	cbz	r3, 8006098 <GUI_TOUCH_StoreStateEx+0x38>
 8006074:	e896 0007 	ldmia.w	r6, {r0, r1, r2}
 8006078:	ad01      	add	r5, sp, #4
 800607a:	e885 0007 	stmia.w	r5, {r0, r1, r2}
 800607e:	a902      	add	r1, sp, #8
 8006080:	4628      	mov	r0, r5
 8006082:	4798      	blx	r3
 8006084:	4603      	mov	r3, r0
 8006086:	e895 0007 	ldmia.w	r5, {r0, r1, r2}
 800608a:	e884 0007 	stmia.w	r4, {r0, r1, r2}
 800608e:	b953      	cbnz	r3, 80060a6 <GUI_TOUCH_StoreStateEx+0x46>
 8006090:	4628      	mov	r0, r5
 8006092:	f004 fa8d 	bl	800a5b0 <GUI_PID_StoreState>
 8006096:	e006      	b.n	80060a6 <GUI_TOUCH_StoreStateEx+0x46>
 8006098:	4630      	mov	r0, r6
 800609a:	f004 fa89 	bl	800a5b0 <GUI_PID_StoreState>
 800609e:	e896 0007 	ldmia.w	r6, {r0, r1, r2}
 80060a2:	e884 0007 	stmia.w	r4, {r0, r1, r2}
 80060a6:	b004      	add	sp, #16
 80060a8:	bd70      	pop	{r4, r5, r6, pc}
 80060aa:	bf00      	nop
 80060ac:	20028ed4 	.word	0x20028ed4

080060b0 <GUI_UC__GetCharCodeInc>:
 80060b0:	b5f8      	push	{r3, r4, r5, r6, r7, lr}
 80060b2:	4e08      	ldr	r6, [pc, #32]	; (80060d4 <GUI_UC__GetCharCodeInc+0x24>)
 80060b4:	6804      	ldr	r4, [r0, #0]
 80060b6:	6833      	ldr	r3, [r6, #0]
 80060b8:	4605      	mov	r5, r0
 80060ba:	681b      	ldr	r3, [r3, #0]
 80060bc:	4620      	mov	r0, r4
 80060be:	4798      	blx	r3
 80060c0:	6833      	ldr	r3, [r6, #0]
 80060c2:	4607      	mov	r7, r0
 80060c4:	685b      	ldr	r3, [r3, #4]
 80060c6:	4620      	mov	r0, r4
 80060c8:	4798      	blx	r3
 80060ca:	4420      	add	r0, r4
 80060cc:	6028      	str	r0, [r5, #0]
 80060ce:	4638      	mov	r0, r7
 80060d0:	bdf8      	pop	{r3, r4, r5, r6, r7, pc}
 80060d2:	bf00      	nop
 80060d4:	20029158 	.word	0x20029158

080060d8 <GUI_UC__NumChars2NumBytes>:
 80060d8:	b5f8      	push	{r3, r4, r5, r6, r7, lr}
 80060da:	4f07      	ldr	r7, [pc, #28]	; (80060f8 <GUI_UC__NumChars2NumBytes+0x20>)
 80060dc:	4606      	mov	r6, r0
 80060de:	460d      	mov	r5, r1
 80060e0:	2400      	movs	r4, #0
 80060e2:	b13d      	cbz	r5, 80060f4 <GUI_UC__NumChars2NumBytes+0x1c>
 80060e4:	683b      	ldr	r3, [r7, #0]
 80060e6:	4630      	mov	r0, r6
 80060e8:	685b      	ldr	r3, [r3, #4]
 80060ea:	4798      	blx	r3
 80060ec:	3d01      	subs	r5, #1
 80060ee:	4406      	add	r6, r0
 80060f0:	4404      	add	r4, r0
 80060f2:	e7f6      	b.n	80060e2 <GUI_UC__NumChars2NumBytes+0xa>
 80060f4:	4620      	mov	r0, r4
 80060f6:	bdf8      	pop	{r3, r4, r5, r6, r7, pc}
 80060f8:	20029158 	.word	0x20029158

080060fc <_GetCharCode>:
 80060fc:	7800      	ldrb	r0, [r0, #0]
 80060fe:	4770      	bx	lr

08006100 <_GetCharSize>:
 8006100:	2001      	movs	r0, #1
 8006102:	4770      	bx	lr

08006104 <_CalcSizeOfChar>:
 8006104:	2001      	movs	r0, #1
 8006106:	4770      	bx	lr

08006108 <_Encode>:
 8006108:	7001      	strb	r1, [r0, #0]
 800610a:	2001      	movs	r0, #1
 800610c:	4770      	bx	lr
	...

08006110 <GUI_SignalEvent>:
 8006110:	4b02      	ldr	r3, [pc, #8]	; (800611c <GUI_SignalEvent+0xc>)
 8006112:	681b      	ldr	r3, [r3, #0]
 8006114:	b103      	cbz	r3, 8006118 <GUI_SignalEvent+0x8>
 8006116:	4718      	bx	r3
 8006118:	4770      	bx	lr
 800611a:	bf00      	nop
 800611c:	20028ee4 	.word	0x20028ee4

08006120 <GUI__MixColorsBulk>:
 8006120:	e92d 4ff0 	stmdb	sp!, {r4, r5, r6, r7, r8, r9, sl, fp, lr}
 8006124:	b087      	sub	sp, #28
 8006126:	4606      	mov	r6, r0
 8006128:	f89d 3050 	ldrb.w	r3, [sp, #80]	; 0x50
 800612c:	9304      	str	r3, [sp, #16]
 800612e:	9b12      	ldr	r3, [sp, #72]	; 0x48
 8006130:	009d      	lsls	r5, r3, #2
 8006132:	9b10      	ldr	r3, [sp, #64]	; 0x40
 8006134:	eb05 0383 	add.w	r3, r5, r3, lsl #2
 8006138:	9303      	str	r3, [sp, #12]
 800613a:	2300      	movs	r3, #0
 800613c:	9301      	str	r3, [sp, #4]
 800613e:	4b19      	ldr	r3, [pc, #100]	; (80061a4 <GUI__MixColorsBulk+0x84>)
 8006140:	460f      	mov	r7, r1
 8006142:	4690      	mov	r8, r2
 8006144:	9a13      	ldr	r2, [sp, #76]	; 0x4c
 8006146:	9901      	ldr	r1, [sp, #4]
 8006148:	4291      	cmp	r1, r2
 800614a:	d028      	beq.n	800619e <GUI__MixColorsBulk+0x7e>
 800614c:	f8dd 9048 	ldr.w	r9, [sp, #72]	; 0x48
 8006150:	9702      	str	r7, [sp, #8]
 8006152:	46c2      	mov	sl, r8
 8006154:	46b3      	mov	fp, r6
 8006156:	f85b 0b04 	ldr.w	r0, [fp], #4
 800615a:	9c02      	ldr	r4, [sp, #8]
 800615c:	9904      	ldr	r1, [sp, #16]
 800615e:	9305      	str	r3, [sp, #20]
 8006160:	0e02      	lsrs	r2, r0, #24
 8006162:	f1c2 02ff 	rsb	r2, r2, #255	; 0xff
 8006166:	434a      	muls	r2, r1
 8006168:	21ff      	movs	r1, #255	; 0xff
 800616a:	fbb2 f2f1 	udiv	r2, r2, r1
 800616e:	f854 1b04 	ldr.w	r1, [r4], #4
 8006172:	9402      	str	r4, [sp, #8]
 8006174:	b2d2      	uxtb	r2, r2
 8006176:	681c      	ldr	r4, [r3, #0]
 8006178:	f020 407f 	bic.w	r0, r0, #4278190080	; 0xff000000
 800617c:	47a0      	blx	r4
 800617e:	f1b9 0901 	subs.w	r9, r9, #1
 8006182:	f020 407f 	bic.w	r0, r0, #4278190080	; 0xff000000
 8006186:	f84a 0b04 	str.w	r0, [sl], #4
 800618a:	9b05      	ldr	r3, [sp, #20]
 800618c:	d1e3      	bne.n	8006156 <GUI__MixColorsBulk+0x36>
 800618e:	9a03      	ldr	r2, [sp, #12]
 8006190:	4417      	add	r7, r2
 8006192:	9a01      	ldr	r2, [sp, #4]
 8006194:	3201      	adds	r2, #1
 8006196:	442e      	add	r6, r5
 8006198:	44a8      	add	r8, r5
 800619a:	9201      	str	r2, [sp, #4]
 800619c:	e7d2      	b.n	8006144 <GUI__MixColorsBulk+0x24>
 800619e:	b007      	add	sp, #28
 80061a0:	e8bd 8ff0 	ldmia.w	sp!, {r4, r5, r6, r7, r8, r9, sl, fp, pc}
 80061a4:	2000009c 	.word	0x2000009c

080061a8 <GUI__MixColors>:
 80061a8:	f081 417f 	eor.w	r1, r1, #4278190080	; 0xff000000
 80061ac:	f080 407f 	eor.w	r0, r0, #4278190080	; 0xff000000
 80061b0:	0e0b      	lsrs	r3, r1, #24
 80061b2:	ea4f 6310 	mov.w	r3, r0, lsr #24
 80061b6:	bf08      	it	eq
 80061b8:	f020 417f 	biceq.w	r1, r0, #4278190080	; 0xff000000
 80061bc:	b530      	push	{r4, r5, lr}
 80061be:	435a      	muls	r2, r3
 80061c0:	f3c0 2407 	ubfx	r4, r0, #8, #8
 80061c4:	23ff      	movs	r3, #255	; 0xff
 80061c6:	fbb2 f2f3 	udiv	r2, r2, r3
 80061ca:	1a9d      	subs	r5, r3, r2
 80061cc:	f044 7380 	orr.w	r3, r4, #16777216	; 0x1000000
 80061d0:	0a0c      	lsrs	r4, r1, #8
 80061d2:	f004 14ff 	and.w	r4, r4, #16711935	; 0xff00ff
 80061d6:	436c      	muls	r4, r5
 80061d8:	f000 10ff 	and.w	r0, r0, #16711935	; 0xff00ff
 80061dc:	fb02 4403 	mla	r4, r2, r3, r4
 80061e0:	4342      	muls	r2, r0
 80061e2:	f001 13ff 	and.w	r3, r1, #16711935	; 0xff00ff
 80061e6:	fb05 2103 	mla	r1, r5, r3, r2
 80061ea:	0a09      	lsrs	r1, r1, #8
 80061ec:	f004 24ff 	and.w	r4, r4, #4278255360	; 0xff00ff00
 80061f0:	f001 11ff 	and.w	r1, r1, #16711935	; 0xff00ff
 80061f4:	ea44 0001 	orr.w	r0, r4, r1
 80061f8:	f080 407f 	eor.w	r0, r0, #4278190080	; 0xff000000
 80061fc:	bd30      	pop	{r4, r5, pc}
	...

08006200 <_OnExit>:
 8006200:	b510      	push	{r4, lr}
 8006202:	4c08      	ldr	r4, [pc, #32]	; (8006224 <_OnExit+0x24>)
 8006204:	6820      	ldr	r0, [r4, #0]
 8006206:	f7ff f915 	bl	8005434 <GUI_ALLOC_FreeFixedBlock>
 800620a:	6860      	ldr	r0, [r4, #4]
 800620c:	f7ff f912 	bl	8005434 <GUI_ALLOC_FreeFixedBlock>
 8006210:	68a0      	ldr	r0, [r4, #8]
 8006212:	f7ff f90f 	bl	8005434 <GUI_ALLOC_FreeFixedBlock>
 8006216:	2300      	movs	r3, #0
 8006218:	60a3      	str	r3, [r4, #8]
 800621a:	6063      	str	r3, [r4, #4]
 800621c:	6023      	str	r3, [r4, #0]
 800621e:	60e3      	str	r3, [r4, #12]
 8006220:	6123      	str	r3, [r4, #16]
 8006222:	bd10      	pop	{r4, pc}
 8006224:	20028eec 	.word	0x20028eec

08006228 <GUI__GetAlphaBuffer>:
 8006228:	e92d 43f8 	stmdb	sp!, {r3, r4, r5, r6, r7, r8, r9, lr}
 800622c:	4c29      	ldr	r4, [pc, #164]	; (80062d4 <GUI__GetAlphaBuffer+0xac>)
 800622e:	461d      	mov	r5, r3
 8006230:	6923      	ldr	r3, [r4, #16]
 8006232:	4606      	mov	r6, r0
 8006234:	4688      	mov	r8, r1
 8006236:	4617      	mov	r7, r2
 8006238:	b93b      	cbnz	r3, 800624a <GUI__GetAlphaBuffer+0x22>
 800623a:	2301      	movs	r3, #1
 800623c:	4620      	mov	r0, r4
 800623e:	6123      	str	r3, [r4, #16]
 8006240:	4b25      	ldr	r3, [pc, #148]	; (80062d8 <GUI__GetAlphaBuffer+0xb0>)
 8006242:	f840 3f14 	str.w	r3, [r0, #20]!
 8006246:	f7ff fd75 	bl	8005d34 <GUI__RegisterExit>
 800624a:	68e3      	ldr	r3, [r4, #12]
 800624c:	f8df 9084 	ldr.w	r9, [pc, #132]	; 80062d4 <GUI__GetAlphaBuffer+0xac>
 8006250:	b943      	cbnz	r3, 8006264 <GUI__GetAlphaBuffer+0x3c>
 8006252:	4b22      	ldr	r3, [pc, #136]	; (80062dc <GUI__GetAlphaBuffer+0xb4>)
 8006254:	681b      	ldr	r3, [r3, #0]
 8006256:	f8c9 300c 	str.w	r3, [r9, #12]
 800625a:	b91b      	cbnz	r3, 8006264 <GUI__GetAlphaBuffer+0x3c>
 800625c:	f000 fe34 	bl	8006ec8 <LCD_GetVXSizeMax>
 8006260:	f8c9 000c 	str.w	r0, [r9, #12]
 8006264:	b10d      	cbz	r5, 800626a <GUI__GetAlphaBuffer+0x42>
 8006266:	68e3      	ldr	r3, [r4, #12]
 8006268:	602b      	str	r3, [r5, #0]
 800626a:	b17e      	cbz	r6, 800628c <GUI__GetAlphaBuffer+0x64>
 800626c:	6823      	ldr	r3, [r4, #0]
 800626e:	4d19      	ldr	r5, [pc, #100]	; (80062d4 <GUI__GetAlphaBuffer+0xac>)
 8006270:	b943      	cbnz	r3, 8006284 <GUI__GetAlphaBuffer+0x5c>
 8006272:	68e8      	ldr	r0, [r5, #12]
 8006274:	0080      	lsls	r0, r0, #2
 8006276:	f7ff f9b5 	bl	80055e4 <GUI_ALLOC_GetFixedBlock>
 800627a:	6028      	str	r0, [r5, #0]
 800627c:	fab0 f580 	clz	r5, r0
 8006280:	096d      	lsrs	r5, r5, #5
 8006282:	e000      	b.n	8006286 <GUI__GetAlphaBuffer+0x5e>
 8006284:	2500      	movs	r5, #0
 8006286:	6823      	ldr	r3, [r4, #0]
 8006288:	6033      	str	r3, [r6, #0]
 800628a:	e000      	b.n	800628e <GUI__GetAlphaBuffer+0x66>
 800628c:	4635      	mov	r5, r6
 800628e:	f1b8 0f00 	cmp.w	r8, #0
 8006292:	d00d      	beq.n	80062b0 <GUI__GetAlphaBuffer+0x88>
 8006294:	6863      	ldr	r3, [r4, #4]
 8006296:	4e0f      	ldr	r6, [pc, #60]	; (80062d4 <GUI__GetAlphaBuffer+0xac>)
 8006298:	b93b      	cbnz	r3, 80062aa <GUI__GetAlphaBuffer+0x82>
 800629a:	68f0      	ldr	r0, [r6, #12]
 800629c:	0080      	lsls	r0, r0, #2
 800629e:	f7ff f9a1 	bl	80055e4 <GUI_ALLOC_GetFixedBlock>
 80062a2:	2800      	cmp	r0, #0
 80062a4:	6070      	str	r0, [r6, #4]
 80062a6:	bf08      	it	eq
 80062a8:	2501      	moveq	r5, #1
 80062aa:	6863      	ldr	r3, [r4, #4]
 80062ac:	f8c8 3000 	str.w	r3, [r8]
 80062b0:	b167      	cbz	r7, 80062cc <GUI__GetAlphaBuffer+0xa4>
 80062b2:	68a3      	ldr	r3, [r4, #8]
 80062b4:	4e07      	ldr	r6, [pc, #28]	; (80062d4 <GUI__GetAlphaBuffer+0xac>)
 80062b6:	b93b      	cbnz	r3, 80062c8 <GUI__GetAlphaBuffer+0xa0>
 80062b8:	68f0      	ldr	r0, [r6, #12]
 80062ba:	0080      	lsls	r0, r0, #2
 80062bc:	f7ff f992 	bl	80055e4 <GUI_ALLOC_GetFixedBlock>
 80062c0:	2800      	cmp	r0, #0
 80062c2:	60b0      	str	r0, [r6, #8]
 80062c4:	bf08      	it	eq
 80062c6:	2501      	moveq	r5, #1
 80062c8:	68a3      	ldr	r3, [r4, #8]
 80062ca:	603b      	str	r3, [r7, #0]
 80062cc:	4628      	mov	r0, r5
 80062ce:	e8bd 83f8 	ldmia.w	sp!, {r3, r4, r5, r6, r7, r8, r9, pc}
 80062d2:	bf00      	nop
 80062d4:	20028eec 	.word	0x20028eec
 80062d8:	08006201 	.word	0x08006201
 80062dc:	20029168 	.word	0x20029168

080062e0 <GUI__DoAlphaBlending>:
 80062e0:	e92d 4ff0 	stmdb	sp!, {r4, r5, r6, r7, r8, r9, sl, fp, lr}
 80062e4:	b093      	sub	sp, #76	; 0x4c
 80062e6:	2400      	movs	r4, #0
 80062e8:	9f1d      	ldr	r7, [sp, #116]	; 0x74
 80062ea:	900a      	str	r0, [sp, #40]	; 0x28
 80062ec:	910b      	str	r1, [sp, #44]	; 0x2c
 80062ee:	4692      	mov	sl, r2
 80062f0:	461e      	mov	r6, r3
 80062f2:	603c      	str	r4, [r7, #0]
 80062f4:	ab11      	add	r3, sp, #68	; 0x44
 80062f6:	4622      	mov	r2, r4
 80062f8:	a910      	add	r1, sp, #64	; 0x40
 80062fa:	a80f      	add	r0, sp, #60	; 0x3c
 80062fc:	f7ff ff94 	bl	8006228 <GUI__GetAlphaBuffer>
 8006300:	4605      	mov	r5, r0
 8006302:	2800      	cmp	r0, #0
 8006304:	f040 80c5 	bne.w	8006492 <GUI__DoAlphaBlending+0x1b2>
 8006308:	9b11      	ldr	r3, [sp, #68]	; 0x44
 800630a:	4c64      	ldr	r4, [pc, #400]	; (800649c <GUI__DoAlphaBlending+0x1bc>)
 800630c:	42b3      	cmp	r3, r6
 800630e:	bfa8      	it	ge
 8006310:	4633      	movge	r3, r6
 8006312:	9309      	str	r3, [sp, #36]	; 0x24
 8006314:	6823      	ldr	r3, [r4, #0]
 8006316:	7c58      	ldrb	r0, [r3, #17]
 8006318:	4b61      	ldr	r3, [pc, #388]	; (80064a0 <GUI__DoAlphaBlending+0x1c0>)
 800631a:	f853 3020 	ldr.w	r3, [r3, r0, lsl #2]
 800631e:	9306      	str	r3, [sp, #24]
 8006320:	691b      	ldr	r3, [r3, #16]
 8006322:	930c      	str	r3, [sp, #48]	; 0x30
 8006324:	f000 fd9a 	bl	8006e5c <GUI_GetBitsPerPixelEx>
 8006328:	6823      	ldr	r3, [r4, #0]
 800632a:	9007      	str	r0, [sp, #28]
 800632c:	7c58      	ldrb	r0, [r3, #17]
 800632e:	f000 fdbd 	bl	8006eac <GUI_GetpfIndex2ColorEx>
 8006332:	4b5c      	ldr	r3, [pc, #368]	; (80064a4 <GUI__DoAlphaBlending+0x1c4>)
 8006334:	9003      	str	r0, [sp, #12]
 8006336:	4298      	cmp	r0, r3
 8006338:	d005      	beq.n	8006346 <GUI__DoAlphaBlending+0x66>
 800633a:	4b5b      	ldr	r3, [pc, #364]	; (80064a8 <GUI__DoAlphaBlending+0x1c8>)
 800633c:	1ac3      	subs	r3, r0, r3
 800633e:	bf18      	it	ne
 8006340:	2301      	movne	r3, #1
 8006342:	9305      	str	r3, [sp, #20]
 8006344:	e000      	b.n	8006348 <GUI__DoAlphaBlending+0x68>
 8006346:	9505      	str	r5, [sp, #20]
 8006348:	2600      	movs	r6, #0
 800634a:	f8dd b024 	ldr.w	fp, [sp, #36]	; 0x24
 800634e:	4635      	mov	r5, r6
 8006350:	4653      	mov	r3, sl
 8006352:	f853 0b04 	ldr.w	r0, [r3], #4
 8006356:	930d      	str	r3, [sp, #52]	; 0x34
 8006358:	9b1c      	ldr	r3, [sp, #112]	; 0x70
 800635a:	4798      	blx	r3
 800635c:	0e03      	lsrs	r3, r0, #24
 800635e:	9004      	str	r0, [sp, #16]
 8006360:	9308      	str	r3, [sp, #32]
 8006362:	f000 8084 	beq.w	800646e <GUI__DoAlphaBlending+0x18e>
 8006366:	2d00      	cmp	r5, #0
 8006368:	d139      	bne.n	80063de <GUI__DoAlphaBlending+0xfe>
 800636a:	9b0a      	ldr	r3, [sp, #40]	; 0x28
 800636c:	9a09      	ldr	r2, [sp, #36]	; 0x24
 800636e:	eb03 0906 	add.w	r9, r3, r6
 8006372:	4b4a      	ldr	r3, [pc, #296]	; (800649c <GUI__DoAlphaBlending+0x1bc>)
 8006374:	681b      	ldr	r3, [r3, #0]
 8006376:	f9b3 3008 	ldrsh.w	r3, [r3, #8]
 800637a:	454b      	cmp	r3, r9
 800637c:	bfc4      	itt	gt
 800637e:	ebc9 0503 	rsbgt	r5, r9, r3
 8006382:	4699      	movgt	r9, r3
 8006384:	9b0a      	ldr	r3, [sp, #40]	; 0x28
 8006386:	eb03 0802 	add.w	r8, r3, r2
 800638a:	9b06      	ldr	r3, [sp, #24]
 800638c:	9301      	str	r3, [sp, #4]
 800638e:	19ac      	adds	r4, r5, r6
 8006390:	9b0f      	ldr	r3, [sp, #60]	; 0x3c
 8006392:	00a4      	lsls	r4, r4, #2
 8006394:	4423      	add	r3, r4
 8006396:	9300      	str	r3, [sp, #0]
 8006398:	9b0b      	ldr	r3, [sp, #44]	; 0x2c
 800639a:	4648      	mov	r0, r9
 800639c:	4619      	mov	r1, r3
 800639e:	f108 32ff 	add.w	r2, r8, #4294967295	; 0xffffffff
 80063a2:	f000 fe89 	bl	80070b8 <GUI_ReadRectEx>
 80063a6:	9b07      	ldr	r3, [sp, #28]
 80063a8:	980f      	ldr	r0, [sp, #60]	; 0x3c
 80063aa:	2b17      	cmp	r3, #23
 80063ac:	dc07      	bgt.n	80063be <GUI__DoAlphaBlending+0xde>
 80063ae:	9b0c      	ldr	r3, [sp, #48]	; 0x30
 80063b0:	9a07      	ldr	r2, [sp, #28]
 80063b2:	ebc5 010b 	rsb	r1, r5, fp
 80063b6:	4420      	add	r0, r4
 80063b8:	f000 f8a2 	bl	8006500 <GUI__ExpandPixelIndicesEx>
 80063bc:	e001      	b.n	80063c2 <GUI__DoAlphaBlending+0xe2>
 80063be:	9b05      	ldr	r3, [sp, #20]
 80063c0:	b90b      	cbnz	r3, 80063c6 <GUI__DoAlphaBlending+0xe6>
 80063c2:	2501      	movs	r5, #1
 80063c4:	e00b      	b.n	80063de <GUI__DoAlphaBlending+0xfe>
 80063c6:	4404      	add	r4, r0
 80063c8:	ebc9 0808 	rsb	r8, r9, r8
 80063cc:	6820      	ldr	r0, [r4, #0]
 80063ce:	9b03      	ldr	r3, [sp, #12]
 80063d0:	4798      	blx	r3
 80063d2:	f1b8 0801 	subs.w	r8, r8, #1
 80063d6:	f844 0b04 	str.w	r0, [r4], #4
 80063da:	d1f7      	bne.n	80063cc <GUI__DoAlphaBlending+0xec>
 80063dc:	e7f1      	b.n	80063c2 <GUI__DoAlphaBlending+0xe2>
 80063de:	4b33      	ldr	r3, [pc, #204]	; (80064ac <GUI__DoAlphaBlending+0x1cc>)
 80063e0:	f8d3 801c 	ldr.w	r8, [r3, #28]
 80063e4:	00b4      	lsls	r4, r6, #2
 80063e6:	f1b8 0f00 	cmp.w	r8, #0
 80063ea:	d027      	beq.n	800643c <GUI__DoAlphaBlending+0x15c>
 80063ec:	9d10      	ldr	r5, [sp, #64]	; 0x40
 80063ee:	990f      	ldr	r1, [sp, #60]	; 0x3c
 80063f0:	192a      	adds	r2, r5, r4
 80063f2:	4421      	add	r1, r4
 80063f4:	910f      	str	r1, [sp, #60]	; 0x3c
 80063f6:	465b      	mov	r3, fp
 80063f8:	9210      	str	r2, [sp, #64]	; 0x40
 80063fa:	4650      	mov	r0, sl
 80063fc:	47c0      	blx	r8
 80063fe:	9910      	ldr	r1, [sp, #64]	; 0x40
 8006400:	9c0f      	ldr	r4, [sp, #60]	; 0x3c
 8006402:	2300      	movs	r3, #0
 8006404:	f85a 0023 	ldr.w	r0, [sl, r3, lsl #2]
 8006408:	f000 427f 	and.w	r2, r0, #4278190080	; 0xff000000
 800640c:	f1b2 4f7f 	cmp.w	r2, #4278190080	; 0xff000000
 8006410:	f854 2023 	ldr.w	r2, [r4, r3, lsl #2]
 8006414:	d102      	bne.n	800641c <GUI__DoAlphaBlending+0x13c>
 8006416:	f841 2023 	str.w	r2, [r1, r3, lsl #2]
 800641a:	e006      	b.n	800642a <GUI__DoAlphaBlending+0x14a>
 800641c:	f002 427f 	and.w	r2, r2, #4278190080	; 0xff000000
 8006420:	f1b2 4f7f 	cmp.w	r2, #4278190080	; 0xff000000
 8006424:	bf08      	it	eq
 8006426:	f841 0023 	streq.w	r0, [r1, r3, lsl #2]
 800642a:	3301      	adds	r3, #1
 800642c:	459b      	cmp	fp, r3
 800642e:	d1e9      	bne.n	8006404 <GUI__DoAlphaBlending+0x124>
 8006430:	683b      	ldr	r3, [r7, #0]
 8006432:	9510      	str	r5, [sp, #64]	; 0x40
 8006434:	f043 0301 	orr.w	r3, r3, #1
 8006438:	603b      	str	r3, [r7, #0]
 800643a:	e028      	b.n	800648e <GUI__DoAlphaBlending+0x1ae>
 800643c:	9b08      	ldr	r3, [sp, #32]
 800643e:	f89d 2020 	ldrb.w	r2, [sp, #32]
 8006442:	f8dd 8040 	ldr.w	r8, [sp, #64]	; 0x40
 8006446:	2bff      	cmp	r3, #255	; 0xff
 8006448:	d104      	bne.n	8006454 <GUI__DoAlphaBlending+0x174>
 800644a:	9b0f      	ldr	r3, [sp, #60]	; 0x3c
 800644c:	591b      	ldr	r3, [r3, r4]
 800644e:	f848 3004 	str.w	r3, [r8, r4]
 8006452:	e014      	b.n	800647e <GUI__DoAlphaBlending+0x19e>
 8006454:	9b0f      	ldr	r3, [sp, #60]	; 0x3c
 8006456:	5919      	ldr	r1, [r3, r4]
 8006458:	9b04      	ldr	r3, [sp, #16]
 800645a:	f023 407f 	bic.w	r0, r3, #4278190080	; 0xff000000
 800645e:	4b14      	ldr	r3, [pc, #80]	; (80064b0 <GUI__DoAlphaBlending+0x1d0>)
 8006460:	43d2      	mvns	r2, r2
 8006462:	b2d2      	uxtb	r2, r2
 8006464:	681b      	ldr	r3, [r3, #0]
 8006466:	4798      	blx	r3
 8006468:	f848 0004 	str.w	r0, [r8, r4]
 800646c:	e003      	b.n	8006476 <GUI__DoAlphaBlending+0x196>
 800646e:	9b10      	ldr	r3, [sp, #64]	; 0x40
 8006470:	9a04      	ldr	r2, [sp, #16]
 8006472:	f843 2026 	str.w	r2, [r3, r6, lsl #2]
 8006476:	683b      	ldr	r3, [r7, #0]
 8006478:	f043 0301 	orr.w	r3, r3, #1
 800647c:	603b      	str	r3, [r7, #0]
 800647e:	f1bb 0b01 	subs.w	fp, fp, #1
 8006482:	f106 0601 	add.w	r6, r6, #1
 8006486:	f8dd a034 	ldr.w	sl, [sp, #52]	; 0x34
 800648a:	f47f af61 	bne.w	8006350 <GUI__DoAlphaBlending+0x70>
 800648e:	9810      	ldr	r0, [sp, #64]	; 0x40
 8006490:	e000      	b.n	8006494 <GUI__DoAlphaBlending+0x1b4>
 8006492:	4620      	mov	r0, r4
 8006494:	b013      	add	sp, #76	; 0x4c
 8006496:	e8bd 8ff0 	ldmia.w	sp!, {r4, r5, r6, r7, r8, r9, sl, fp, pc}
 800649a:	bf00      	nop
 800649c:	20000098 	.word	0x20000098
 80064a0:	20029160 	.word	0x20029160
 80064a4:	08009f9f 	.word	0x08009f9f
 80064a8:	08009fa1 	.word	0x08009fa1
 80064ac:	20028eec 	.word	0x20028eec
 80064b0:	2000009c 	.word	0x2000009c

080064b4 <GUI__AllocAlphaBuffer>:
 80064b4:	b51f      	push	{r0, r1, r2, r3, r4, lr}
 80064b6:	b908      	cbnz	r0, 80064bc <GUI__AllocAlphaBuffer+0x8>
 80064b8:	4602      	mov	r2, r0
 80064ba:	e000      	b.n	80064be <GUI__AllocAlphaBuffer+0xa>
 80064bc:	aa03      	add	r2, sp, #12
 80064be:	2300      	movs	r3, #0
 80064c0:	a902      	add	r1, sp, #8
 80064c2:	a801      	add	r0, sp, #4
 80064c4:	f7ff feb0 	bl	8006228 <GUI__GetAlphaBuffer>
 80064c8:	b005      	add	sp, #20
 80064ca:	f85d fb04 	ldr.w	pc, [sp], #4
	...

080064d0 <GUI_SetFuncAlphaBlending>:
 80064d0:	4b02      	ldr	r3, [pc, #8]	; (80064dc <GUI_SetFuncAlphaBlending+0xc>)
 80064d2:	69da      	ldr	r2, [r3, #28]
 80064d4:	61d8      	str	r0, [r3, #28]
 80064d6:	4610      	mov	r0, r2
 80064d8:	4770      	bx	lr
 80064da:	bf00      	nop
 80064dc:	20028eec 	.word	0x20028eec

080064e0 <GUI_SetFuncMixColors>:
 80064e0:	4b02      	ldr	r3, [pc, #8]	; (80064ec <GUI_SetFuncMixColors+0xc>)
 80064e2:	681a      	ldr	r2, [r3, #0]
 80064e4:	6018      	str	r0, [r3, #0]
 80064e6:	4610      	mov	r0, r2
 80064e8:	4770      	bx	lr
 80064ea:	bf00      	nop
 80064ec:	2000009c 	.word	0x2000009c

080064f0 <GUI_SetFuncMixColorsBulk>:
 80064f0:	4b02      	ldr	r3, [pc, #8]	; (80064fc <GUI_SetFuncMixColorsBulk+0xc>)
 80064f2:	685a      	ldr	r2, [r3, #4]
 80064f4:	6058      	str	r0, [r3, #4]
 80064f6:	4610      	mov	r0, r2
 80064f8:	4770      	bx	lr
 80064fa:	bf00      	nop
 80064fc:	2000009c 	.word	0x2000009c

08006500 <GUI__ExpandPixelIndicesEx>:
 8006500:	e92d 47f0 	stmdb	sp!, {r4, r5, r6, r7, r8, r9, sl, lr}
 8006504:	1e0c      	subs	r4, r1, #0
 8006506:	4605      	mov	r5, r0
 8006508:	f340 80b6 	ble.w	8006678 <GUI__ExpandPixelIndicesEx+0x178>
 800650c:	2a08      	cmp	r2, #8
 800650e:	685e      	ldr	r6, [r3, #4]
 8006510:	dd04      	ble.n	800651c <GUI__ExpandPixelIndicesEx+0x1c>
 8006512:	2a10      	cmp	r2, #16
 8006514:	f340 809a 	ble.w	800664c <GUI__ExpandPixelIndicesEx+0x14c>
 8006518:	e8bd 87f0 	ldmia.w	sp!, {r4, r5, r6, r7, r8, r9, sl, pc}
 800651c:	3a01      	subs	r2, #1
 800651e:	2a07      	cmp	r2, #7
 8006520:	f200 80aa 	bhi.w	8006678 <GUI__ExpandPixelIndicesEx+0x178>
 8006524:	e8df f002 	tbb	[pc, r2]
 8006528:	59a82d04 	.word	0x59a82d04
 800652c:	85a8a8a8 	.word	0x85a8a8a8
 8006530:	1e67      	subs	r7, r4, #1
 8006532:	10fb      	asrs	r3, r7, #3
 8006534:	f104 4880 	add.w	r8, r4, #1073741824	; 0x40000000
 8006538:	f108 38ff 	add.w	r8, r8, #4294967295	; 0xffffffff
 800653c:	f103 39ff 	add.w	r9, r3, #4294967295	; 0xffffffff
 8006540:	eb05 0888 	add.w	r8, r5, r8, lsl #2
 8006544:	f007 0707 	and.w	r7, r7, #7
 8006548:	44a9      	add	r9, r5
 800654a:	f815 a003 	ldrb.w	sl, [r5, r3]
 800654e:	2580      	movs	r5, #128	; 0x80
 8006550:	413d      	asrs	r5, r7
 8006552:	b2ed      	uxtb	r5, r5
 8006554:	f1c7 0307 	rsb	r3, r7, #7
 8006558:	ea05 000a 	and.w	r0, r5, sl
 800655c:	4118      	asrs	r0, r3
 800655e:	47b0      	blx	r6
 8006560:	f848 0904 	str.w	r0, [r8], #-4
 8006564:	b937      	cbnz	r7, 8006574 <GUI__ExpandPixelIndicesEx+0x74>
 8006566:	f899 a000 	ldrb.w	sl, [r9]
 800656a:	2501      	movs	r5, #1
 800656c:	f109 39ff 	add.w	r9, r9, #4294967295	; 0xffffffff
 8006570:	2707      	movs	r7, #7
 8006572:	e002      	b.n	800657a <GUI__ExpandPixelIndicesEx+0x7a>
 8006574:	006d      	lsls	r5, r5, #1
 8006576:	3f01      	subs	r7, #1
 8006578:	b2ed      	uxtb	r5, r5
 800657a:	3c01      	subs	r4, #1
 800657c:	d1ea      	bne.n	8006554 <GUI__ExpandPixelIndicesEx+0x54>
 800657e:	e8bd 87f0 	ldmia.w	sp!, {r4, r5, r6, r7, r8, r9, sl, pc}
 8006582:	1e67      	subs	r7, r4, #1
 8006584:	10bb      	asrs	r3, r7, #2
 8006586:	f104 4880 	add.w	r8, r4, #1073741824	; 0x40000000
 800658a:	f103 39ff 	add.w	r9, r3, #4294967295	; 0xffffffff
 800658e:	f108 38ff 	add.w	r8, r8, #4294967295	; 0xffffffff
 8006592:	f007 0703 	and.w	r7, r7, #3
 8006596:	f815 a003 	ldrb.w	sl, [r5, r3]
 800659a:	eb05 0888 	add.w	r8, r5, r8, lsl #2
 800659e:	44a9      	add	r9, r5
 80065a0:	23c0      	movs	r3, #192	; 0xc0
 80065a2:	007d      	lsls	r5, r7, #1
 80065a4:	fa43 f505 	asr.w	r5, r3, r5
 80065a8:	b2ed      	uxtb	r5, r5
 80065aa:	007b      	lsls	r3, r7, #1
 80065ac:	f1c3 0306 	rsb	r3, r3, #6
 80065b0:	ea05 000a 	and.w	r0, r5, sl
 80065b4:	4118      	asrs	r0, r3
 80065b6:	47b0      	blx	r6
 80065b8:	f848 0904 	str.w	r0, [r8], #-4
 80065bc:	b937      	cbnz	r7, 80065cc <GUI__ExpandPixelIndicesEx+0xcc>
 80065be:	2503      	movs	r5, #3
 80065c0:	f899 a000 	ldrb.w	sl, [r9]
 80065c4:	462f      	mov	r7, r5
 80065c6:	f109 39ff 	add.w	r9, r9, #4294967295	; 0xffffffff
 80065ca:	e002      	b.n	80065d2 <GUI__ExpandPixelIndicesEx+0xd2>
 80065cc:	00ad      	lsls	r5, r5, #2
 80065ce:	3f01      	subs	r7, #1
 80065d0:	b2ed      	uxtb	r5, r5
 80065d2:	3c01      	subs	r4, #1
 80065d4:	d1e9      	bne.n	80065aa <GUI__ExpandPixelIndicesEx+0xaa>
 80065d6:	e8bd 87f0 	ldmia.w	sp!, {r4, r5, r6, r7, r8, r9, sl, pc}
 80065da:	1e67      	subs	r7, r4, #1
 80065dc:	107b      	asrs	r3, r7, #1
 80065de:	f104 4880 	add.w	r8, r4, #1073741824	; 0x40000000
 80065e2:	f103 39ff 	add.w	r9, r3, #4294967295	; 0xffffffff
 80065e6:	f108 38ff 	add.w	r8, r8, #4294967295	; 0xffffffff
 80065ea:	f007 0701 	and.w	r7, r7, #1
 80065ee:	f815 a003 	ldrb.w	sl, [r5, r3]
 80065f2:	eb05 0888 	add.w	r8, r5, r8, lsl #2
 80065f6:	44a9      	add	r9, r5
 80065f8:	23f0      	movs	r3, #240	; 0xf0
 80065fa:	00bd      	lsls	r5, r7, #2
 80065fc:	fa43 f505 	asr.w	r5, r3, r5
 8006600:	b2ed      	uxtb	r5, r5
 8006602:	00bb      	lsls	r3, r7, #2
 8006604:	f1c3 0304 	rsb	r3, r3, #4
 8006608:	ea05 000a 	and.w	r0, r5, sl
 800660c:	4118      	asrs	r0, r3
 800660e:	47b0      	blx	r6
 8006610:	f848 0904 	str.w	r0, [r8], #-4
 8006614:	b937      	cbnz	r7, 8006624 <GUI__ExpandPixelIndicesEx+0x124>
 8006616:	f899 a000 	ldrb.w	sl, [r9]
 800661a:	250f      	movs	r5, #15
 800661c:	f109 39ff 	add.w	r9, r9, #4294967295	; 0xffffffff
 8006620:	2701      	movs	r7, #1
 8006622:	e002      	b.n	800662a <GUI__ExpandPixelIndicesEx+0x12a>
 8006624:	012d      	lsls	r5, r5, #4
 8006626:	b2ed      	uxtb	r5, r5
 8006628:	2700      	movs	r7, #0
 800662a:	3c01      	subs	r4, #1
 800662c:	d1e9      	bne.n	8006602 <GUI__ExpandPixelIndicesEx+0x102>
 800662e:	e8bd 87f0 	ldmia.w	sp!, {r4, r5, r6, r7, r8, r9, sl, pc}
 8006632:	eb05 0784 	add.w	r7, r5, r4, lsl #2
 8006636:	4425      	add	r5, r4
 8006638:	1b64      	subs	r4, r4, r5
 800663a:	f815 0d01 	ldrb.w	r0, [r5, #-1]!
 800663e:	47b0      	blx	r6
 8006640:	42e5      	cmn	r5, r4
 8006642:	f847 0d04 	str.w	r0, [r7, #-4]!
 8006646:	d1f8      	bne.n	800663a <GUI__ExpandPixelIndicesEx+0x13a>
 8006648:	e8bd 87f0 	ldmia.w	sp!, {r4, r5, r6, r7, r8, r9, sl, pc}
 800664c:	695f      	ldr	r7, [r3, #20]
 800664e:	b137      	cbz	r7, 800665e <GUI__ExpandPixelIndicesEx+0x15e>
 8006650:	4622      	mov	r2, r4
 8006652:	4629      	mov	r1, r5
 8006654:	46bc      	mov	ip, r7
 8006656:	2302      	movs	r3, #2
 8006658:	e8bd 47f0 	ldmia.w	sp!, {r4, r5, r6, r7, r8, r9, sl, lr}
 800665c:	4760      	bx	ip
 800665e:	eb05 0744 	add.w	r7, r5, r4, lsl #1
 8006662:	eb05 0584 	add.w	r5, r5, r4, lsl #2
 8006666:	f837 0d02 	ldrh.w	r0, [r7, #-2]!
 800666a:	47b0      	blx	r6
 800666c:	3c01      	subs	r4, #1
 800666e:	f845 0d04 	str.w	r0, [r5, #-4]!
 8006672:	d1f8      	bne.n	8006666 <GUI__ExpandPixelIndicesEx+0x166>
 8006674:	e8bd 87f0 	ldmia.w	sp!, {r4, r5, r6, r7, r8, r9, sl, pc}
 8006678:	e8bd 87f0 	ldmia.w	sp!, {r4, r5, r6, r7, r8, r9, sl, pc}

0800667c <GUI__IntersectRect>:
 800667c:	f9b1 3000 	ldrsh.w	r3, [r1]
 8006680:	f9b0 2000 	ldrsh.w	r2, [r0]
 8006684:	429a      	cmp	r2, r3
 8006686:	bfb8      	it	lt
 8006688:	8003      	strhlt	r3, [r0, #0]
 800668a:	f9b0 2002 	ldrsh.w	r2, [r0, #2]
 800668e:	f9b1 3002 	ldrsh.w	r3, [r1, #2]
 8006692:	429a      	cmp	r2, r3
 8006694:	bfb8      	it	lt
 8006696:	8043      	strhlt	r3, [r0, #2]
 8006698:	f9b0 2004 	ldrsh.w	r2, [r0, #4]
 800669c:	f9b1 3004 	ldrsh.w	r3, [r1, #4]
 80066a0:	429a      	cmp	r2, r3
 80066a2:	bfc8      	it	gt
 80066a4:	8083      	strhgt	r3, [r0, #4]
 80066a6:	f9b0 2006 	ldrsh.w	r2, [r0, #6]
 80066aa:	f9b1 3006 	ldrsh.w	r3, [r1, #6]
 80066ae:	429a      	cmp	r2, r3
 80066b0:	bfc8      	it	gt
 80066b2:	80c3      	strhgt	r3, [r0, #6]
 80066b4:	4770      	bx	lr

080066b6 <GUI__IntersectRects>:
 80066b6:	b570      	push	{r4, r5, r6, lr}
 80066b8:	f9b1 3000 	ldrsh.w	r3, [r1]
 80066bc:	f9b2 5000 	ldrsh.w	r5, [r2]
 80066c0:	f9b1 4004 	ldrsh.w	r4, [r1, #4]
 80066c4:	429d      	cmp	r5, r3
 80066c6:	bfb8      	it	lt
 80066c8:	461d      	movlt	r5, r3
 80066ca:	4606      	mov	r6, r0
 80066cc:	f9b1 3002 	ldrsh.w	r3, [r1, #2]
 80066d0:	8005      	strh	r5, [r0, #0]
 80066d2:	f9b2 0002 	ldrsh.w	r0, [r2, #2]
 80066d6:	4283      	cmp	r3, r0
 80066d8:	bfb8      	it	lt
 80066da:	4603      	movlt	r3, r0
 80066dc:	f9b2 0004 	ldrsh.w	r0, [r2, #4]
 80066e0:	8073      	strh	r3, [r6, #2]
 80066e2:	4284      	cmp	r4, r0
 80066e4:	bfa8      	it	ge
 80066e6:	4604      	movge	r4, r0
 80066e8:	f9b2 0006 	ldrsh.w	r0, [r2, #6]
 80066ec:	f9b1 2006 	ldrsh.w	r2, [r1, #6]
 80066f0:	80b4      	strh	r4, [r6, #4]
 80066f2:	4282      	cmp	r2, r0
 80066f4:	bfa8      	it	ge
 80066f6:	4602      	movge	r2, r0
 80066f8:	42a5      	cmp	r5, r4
 80066fa:	80f2      	strh	r2, [r6, #6]
 80066fc:	dc04      	bgt.n	8006708 <GUI__IntersectRects+0x52>
 80066fe:	4293      	cmp	r3, r2
 8006700:	bfcc      	ite	gt
 8006702:	2000      	movgt	r0, #0
 8006704:	2001      	movle	r0, #1
 8006706:	bd70      	pop	{r4, r5, r6, pc}
 8006708:	2000      	movs	r0, #0
 800670a:	bd70      	pop	{r4, r5, r6, pc}

0800670c <GUI__memset>:
 800670c:	b570      	push	{r4, r5, r6, lr}
 800670e:	b2c9      	uxtb	r1, r1
 8006710:	4603      	mov	r3, r0
 8006712:	b12a      	cbz	r2, 8006720 <GUI__memset+0x14>
 8006714:	079c      	lsls	r4, r3, #30
 8006716:	d003      	beq.n	8006720 <GUI__memset+0x14>
 8006718:	f803 1b01 	strb.w	r1, [r3], #1
 800671c:	3a01      	subs	r2, #1
 800671e:	e7f8      	b.n	8006712 <GUI__memset+0x6>
 8006720:	0895      	lsrs	r5, r2, #2
 8006722:	d101      	bne.n	8006728 <GUI__memset+0x1c>
 8006724:	441a      	add	r2, r3
 8006726:	e01a      	b.n	800675e <GUI__memset+0x52>
 8006728:	f04f 3401 	mov.w	r4, #16843009	; 0x1010101
 800672c:	f002 0203 	and.w	r2, r2, #3
 8006730:	434c      	muls	r4, r1
 8006732:	2d03      	cmp	r5, #3
 8006734:	461e      	mov	r6, r3
 8006736:	f103 0310 	add.w	r3, r3, #16
 800673a:	dd09      	ble.n	8006750 <GUI__memset+0x44>
 800673c:	f843 4c10 	str.w	r4, [r3, #-16]
 8006740:	f843 4c0c 	str.w	r4, [r3, #-12]
 8006744:	f843 4c08 	str.w	r4, [r3, #-8]
 8006748:	f843 4c04 	str.w	r4, [r3, #-4]
 800674c:	3d04      	subs	r5, #4
 800674e:	e7f0      	b.n	8006732 <GUI__memset+0x26>
 8006750:	eb06 0385 	add.w	r3, r6, r5, lsl #2
 8006754:	429e      	cmp	r6, r3
 8006756:	d0e5      	beq.n	8006724 <GUI__memset+0x18>
 8006758:	f846 4b04 	str.w	r4, [r6], #4
 800675c:	e7fa      	b.n	8006754 <GUI__memset+0x48>
 800675e:	4293      	cmp	r3, r2
 8006760:	d002      	beq.n	8006768 <GUI__memset+0x5c>
 8006762:	f803 1b01 	strb.w	r1, [r3], #1
 8006766:	e7fa      	b.n	800675e <GUI__memset+0x52>
 8006768:	bd70      	pop	{r4, r5, r6, pc}
	...

0800676c <_SetDrawMode>:
 800676c:	b570      	push	{r4, r5, r6, lr}
 800676e:	4b08      	ldr	r3, [pc, #32]	; (8006790 <_SetDrawMode+0x24>)
 8006770:	681b      	ldr	r3, [r3, #0]
 8006772:	7c1a      	ldrb	r2, [r3, #16]
 8006774:	ea82 0100 	eor.w	r1, r2, r0
 8006778:	0749      	lsls	r1, r1, #29
 800677a:	d505      	bpl.n	8006788 <_SetDrawMode+0x1c>
 800677c:	6b9c      	ldr	r4, [r3, #56]	; 0x38
 800677e:	6bd9      	ldr	r1, [r3, #60]	; 0x3c
 8006780:	6825      	ldr	r5, [r4, #0]
 8006782:	680e      	ldr	r6, [r1, #0]
 8006784:	6026      	str	r6, [r4, #0]
 8006786:	600d      	str	r5, [r1, #0]
 8006788:	7418      	strb	r0, [r3, #16]
 800678a:	4610      	mov	r0, r2
 800678c:	bd70      	pop	{r4, r5, r6, pc}
 800678e:	bf00      	nop
 8006790:	20000098 	.word	0x20000098

08006794 <LCD_SetDrawMode>:
 8006794:	4b01      	ldr	r3, [pc, #4]	; (800679c <LCD_SetDrawMode+0x8>)
 8006796:	681b      	ldr	r3, [r3, #0]
 8006798:	689b      	ldr	r3, [r3, #8]
 800679a:	4718      	bx	r3
 800679c:	200000ac 	.word	0x200000ac

080067a0 <LCD_DrawPixel>:
 80067a0:	4b15      	ldr	r3, [pc, #84]	; (80067f8 <LCD_DrawPixel+0x58>)
 80067a2:	681b      	ldr	r3, [r3, #0]
 80067a4:	460a      	mov	r2, r1
 80067a6:	f9b3 100a 	ldrsh.w	r1, [r3, #10]
 80067aa:	4291      	cmp	r1, r2
 80067ac:	b430      	push	{r4, r5}
 80067ae:	4604      	mov	r4, r0
 80067b0:	dc20      	bgt.n	80067f4 <LCD_DrawPixel+0x54>
 80067b2:	f9b3 100e 	ldrsh.w	r1, [r3, #14]
 80067b6:	428a      	cmp	r2, r1
 80067b8:	dc1c      	bgt.n	80067f4 <LCD_DrawPixel+0x54>
 80067ba:	f9b3 1008 	ldrsh.w	r1, [r3, #8]
 80067be:	4281      	cmp	r1, r0
 80067c0:	dc18      	bgt.n	80067f4 <LCD_DrawPixel+0x54>
 80067c2:	f9b3 100c 	ldrsh.w	r1, [r3, #12]
 80067c6:	4288      	cmp	r0, r1
 80067c8:	dc14      	bgt.n	80067f4 <LCD_DrawPixel+0x54>
 80067ca:	7c19      	ldrb	r1, [r3, #16]
 80067cc:	7c58      	ldrb	r0, [r3, #17]
 80067ce:	f011 0f01 	tst.w	r1, #1
 80067d2:	490a      	ldr	r1, [pc, #40]	; (80067fc <LCD_DrawPixel+0x5c>)
 80067d4:	f851 0020 	ldr.w	r0, [r1, r0, lsl #2]
 80067d8:	d004      	beq.n	80067e4 <LCD_DrawPixel+0x44>
 80067da:	68c3      	ldr	r3, [r0, #12]
 80067dc:	4621      	mov	r1, r4
 80067de:	69db      	ldr	r3, [r3, #28]
 80067e0:	bc30      	pop	{r4, r5}
 80067e2:	4718      	bx	r3
 80067e4:	68c1      	ldr	r1, [r0, #12]
 80067e6:	6bdb      	ldr	r3, [r3, #60]	; 0x3c
 80067e8:	698d      	ldr	r5, [r1, #24]
 80067ea:	681b      	ldr	r3, [r3, #0]
 80067ec:	4621      	mov	r1, r4
 80067ee:	46ac      	mov	ip, r5
 80067f0:	bc30      	pop	{r4, r5}
 80067f2:	4760      	bx	ip
 80067f4:	bc30      	pop	{r4, r5}
 80067f6:	4770      	bx	lr
 80067f8:	20000098 	.word	0x20000098
 80067fc:	20029160 	.word	0x20029160

08006800 <LCD_DrawHLine>:
 8006800:	4b11      	ldr	r3, [pc, #68]	; (8006848 <LCD_DrawHLine+0x48>)
 8006802:	b430      	push	{r4, r5}
 8006804:	681c      	ldr	r4, [r3, #0]
 8006806:	f9b4 300a 	ldrsh.w	r3, [r4, #10]
 800680a:	428b      	cmp	r3, r1
 800680c:	460d      	mov	r5, r1
 800680e:	dc19      	bgt.n	8006844 <LCD_DrawHLine+0x44>
 8006810:	f9b4 300e 	ldrsh.w	r3, [r4, #14]
 8006814:	4299      	cmp	r1, r3
 8006816:	dc15      	bgt.n	8006844 <LCD_DrawHLine+0x44>
 8006818:	f9b4 1008 	ldrsh.w	r1, [r4, #8]
 800681c:	f9b4 300c 	ldrsh.w	r3, [r4, #12]
 8006820:	4281      	cmp	r1, r0
 8006822:	bfb8      	it	lt
 8006824:	4601      	movlt	r1, r0
 8006826:	4293      	cmp	r3, r2
 8006828:	bfa8      	it	ge
 800682a:	4613      	movge	r3, r2
 800682c:	4299      	cmp	r1, r3
 800682e:	dc09      	bgt.n	8006844 <LCD_DrawHLine+0x44>
 8006830:	7c60      	ldrb	r0, [r4, #17]
 8006832:	4a06      	ldr	r2, [pc, #24]	; (800684c <LCD_DrawHLine+0x4c>)
 8006834:	f852 0020 	ldr.w	r0, [r2, r0, lsl #2]
 8006838:	68c2      	ldr	r2, [r0, #12]
 800683a:	6894      	ldr	r4, [r2, #8]
 800683c:	462a      	mov	r2, r5
 800683e:	46a4      	mov	ip, r4
 8006840:	bc30      	pop	{r4, r5}
 8006842:	4760      	bx	ip
 8006844:	bc30      	pop	{r4, r5}
 8006846:	4770      	bx	lr
 8006848:	20000098 	.word	0x20000098
 800684c:	20029160 	.word	0x20029160

08006850 <LCD_FillRect>:
 8006850:	b573      	push	{r0, r1, r4, r5, r6, lr}
 8006852:	4c13      	ldr	r4, [pc, #76]	; (80068a0 <LCD_FillRect+0x50>)
 8006854:	6824      	ldr	r4, [r4, #0]
 8006856:	f9b4 5008 	ldrsh.w	r5, [r4, #8]
 800685a:	f9b4 600c 	ldrsh.w	r6, [r4, #12]
 800685e:	4285      	cmp	r5, r0
 8006860:	bfb8      	it	lt
 8006862:	4605      	movlt	r5, r0
 8006864:	4296      	cmp	r6, r2
 8006866:	bfa8      	it	ge
 8006868:	4616      	movge	r6, r2
 800686a:	42ae      	cmp	r6, r5
 800686c:	db15      	blt.n	800689a <LCD_FillRect+0x4a>
 800686e:	f9b4 200a 	ldrsh.w	r2, [r4, #10]
 8006872:	428a      	cmp	r2, r1
 8006874:	bfb8      	it	lt
 8006876:	460a      	movlt	r2, r1
 8006878:	f9b4 100e 	ldrsh.w	r1, [r4, #14]
 800687c:	428b      	cmp	r3, r1
 800687e:	bfa8      	it	ge
 8006880:	460b      	movge	r3, r1
 8006882:	429a      	cmp	r2, r3
 8006884:	dc09      	bgt.n	800689a <LCD_FillRect+0x4a>
 8006886:	7c60      	ldrb	r0, [r4, #17]
 8006888:	4906      	ldr	r1, [pc, #24]	; (80068a4 <LCD_FillRect+0x54>)
 800688a:	f851 0020 	ldr.w	r0, [r1, r0, lsl #2]
 800688e:	68c1      	ldr	r1, [r0, #12]
 8006890:	9300      	str	r3, [sp, #0]
 8006892:	690c      	ldr	r4, [r1, #16]
 8006894:	4633      	mov	r3, r6
 8006896:	4629      	mov	r1, r5
 8006898:	47a0      	blx	r4
 800689a:	b002      	add	sp, #8
 800689c:	bd70      	pop	{r4, r5, r6, pc}
 800689e:	bf00      	nop
 80068a0:	20000098 	.word	0x20000098
 80068a4:	20029160 	.word	0x20029160

080068a8 <LCD_DrawBitmap>:
 80068a8:	e92d 4ff0 	stmdb	sp!, {r4, r5, r6, r7, r8, r9, sl, fp, lr}
 80068ac:	b08f      	sub	sp, #60	; 0x3c
 80068ae:	f8df e218 	ldr.w	lr, [pc, #536]	; 8006ac8 <LCD_DrawBitmap+0x220>
 80068b2:	9c18      	ldr	r4, [sp, #96]	; 0x60
 80068b4:	9402      	str	r4, [sp, #8]
 80068b6:	f8de e000 	ldr.w	lr, [lr]
 80068ba:	9c19      	ldr	r4, [sp, #100]	; 0x64
 80068bc:	9408      	str	r4, [sp, #32]
 80068be:	9e1d      	ldr	r6, [sp, #116]	; 0x74
 80068c0:	9c1b      	ldr	r4, [sp, #108]	; 0x6c
 80068c2:	9403      	str	r4, [sp, #12]
 80068c4:	4605      	mov	r5, r0
 80068c6:	9100      	str	r1, [sp, #0]
 80068c8:	4690      	mov	r8, r2
 80068ca:	9301      	str	r3, [sp, #4]
 80068cc:	9f1a      	ldr	r7, [sp, #104]	; 0x68
 80068ce:	9c1c      	ldr	r4, [sp, #112]	; 0x70
 80068d0:	9604      	str	r6, [sp, #16]
 80068d2:	f1be 0f00 	cmp.w	lr, #0
 80068d6:	d002      	beq.n	80068de <LCD_DrawBitmap+0x36>
 80068d8:	f8de 4000 	ldr.w	r4, [lr]
 80068dc:	e07a      	b.n	80069d4 <LCD_DrawBitmap+0x12c>
 80068de:	9b02      	ldr	r3, [sp, #8]
 80068e0:	9a08      	ldr	r2, [sp, #32]
 80068e2:	4313      	orrs	r3, r2
 80068e4:	2b01      	cmp	r3, #1
 80068e6:	d17a      	bne.n	80069de <LCD_DrawBitmap+0x136>
 80068e8:	4b75      	ldr	r3, [pc, #468]	; (8006ac0 <LCD_DrawBitmap+0x218>)
 80068ea:	9901      	ldr	r1, [sp, #4]
 80068ec:	6818      	ldr	r0, [r3, #0]
 80068ee:	9b00      	ldr	r3, [sp, #0]
 80068f0:	f9b0 200a 	ldrsh.w	r2, [r0, #10]
 80068f4:	1ad3      	subs	r3, r2, r3
 80068f6:	2b00      	cmp	r3, #0
 80068f8:	dd07      	ble.n	800690a <LCD_DrawBitmap+0x62>
 80068fa:	1ac9      	subs	r1, r1, r3
 80068fc:	2900      	cmp	r1, #0
 80068fe:	f340 80db 	ble.w	8006ab8 <LCD_DrawBitmap+0x210>
 8006902:	9e03      	ldr	r6, [sp, #12]
 8006904:	fb06 4403 	mla	r4, r6, r3, r4
 8006908:	e000      	b.n	800690c <LCD_DrawBitmap+0x64>
 800690a:	9a00      	ldr	r2, [sp, #0]
 800690c:	e89d 0048 	ldmia.w	sp, {r3, r6}
 8006910:	441e      	add	r6, r3
 8006912:	f9b0 300e 	ldrsh.w	r3, [r0, #14]
 8006916:	3e01      	subs	r6, #1
 8006918:	1af6      	subs	r6, r6, r3
 800691a:	2e00      	cmp	r6, #0
 800691c:	dd03      	ble.n	8006926 <LCD_DrawBitmap+0x7e>
 800691e:	1b89      	subs	r1, r1, r6
 8006920:	2900      	cmp	r1, #0
 8006922:	f340 80c9 	ble.w	8006ab8 <LCD_DrawBitmap+0x210>
 8006926:	eb05 0308 	add.w	r3, r5, r8
 800692a:	f9b0 600c 	ldrsh.w	r6, [r0, #12]
 800692e:	3b01      	subs	r3, #1
 8006930:	1b9b      	subs	r3, r3, r6
 8006932:	f9b0 6008 	ldrsh.w	r6, [r0, #8]
 8006936:	2b00      	cmp	r3, #0
 8006938:	bfc8      	it	gt
 800693a:	ebc3 0808 	rsbgt	r8, r3, r8
 800693e:	42b5      	cmp	r5, r6
 8006940:	da31      	bge.n	80069a6 <LCD_DrawBitmap+0xfe>
 8006942:	1b73      	subs	r3, r6, r5
 8006944:	2f08      	cmp	r7, #8
 8006946:	ebc3 0808 	rsb	r8, r3, r8
 800694a:	d027      	beq.n	800699c <LCD_DrawBitmap+0xf4>
 800694c:	dc0d      	bgt.n	800696a <LCD_DrawBitmap+0xc2>
 800694e:	2f02      	cmp	r7, #2
 8006950:	d014      	beq.n	800697c <LCD_DrawBitmap+0xd4>
 8006952:	2f04      	cmp	r7, #4
 8006954:	d01a      	beq.n	800698c <LCD_DrawBitmap+0xe4>
 8006956:	2f01      	cmp	r7, #1
 8006958:	d126      	bne.n	80069a8 <LCD_DrawBitmap+0x100>
 800695a:	f023 0607 	bic.w	r6, r3, #7
 800695e:	eb04 04e3 	add.w	r4, r4, r3, asr #3
 8006962:	4435      	add	r5, r6
 8006964:	f003 0307 	and.w	r3, r3, #7
 8006968:	e01e      	b.n	80069a8 <LCD_DrawBitmap+0x100>
 800696a:	2f18      	cmp	r7, #24
 800696c:	d018      	beq.n	80069a0 <LCD_DrawBitmap+0xf8>
 800696e:	2f20      	cmp	r7, #32
 8006970:	d016      	beq.n	80069a0 <LCD_DrawBitmap+0xf8>
 8006972:	2f10      	cmp	r7, #16
 8006974:	d118      	bne.n	80069a8 <LCD_DrawBitmap+0x100>
 8006976:	eb04 0443 	add.w	r4, r4, r3, lsl #1
 800697a:	e013      	b.n	80069a4 <LCD_DrawBitmap+0xfc>
 800697c:	f023 0603 	bic.w	r6, r3, #3
 8006980:	eb04 04a3 	add.w	r4, r4, r3, asr #2
 8006984:	4435      	add	r5, r6
 8006986:	f003 0303 	and.w	r3, r3, #3
 800698a:	e00d      	b.n	80069a8 <LCD_DrawBitmap+0x100>
 800698c:	f023 0601 	bic.w	r6, r3, #1
 8006990:	eb04 0463 	add.w	r4, r4, r3, asr #1
 8006994:	4435      	add	r5, r6
 8006996:	f003 0301 	and.w	r3, r3, #1
 800699a:	e005      	b.n	80069a8 <LCD_DrawBitmap+0x100>
 800699c:	441c      	add	r4, r3
 800699e:	e001      	b.n	80069a4 <LCD_DrawBitmap+0xfc>
 80069a0:	eb04 0483 	add.w	r4, r4, r3, lsl #2
 80069a4:	4635      	mov	r5, r6
 80069a6:	2300      	movs	r3, #0
 80069a8:	f1b8 0f00 	cmp.w	r8, #0
 80069ac:	f340 8084 	ble.w	8006ab8 <LCD_DrawBitmap+0x210>
 80069b0:	7c46      	ldrb	r6, [r0, #17]
 80069b2:	4844      	ldr	r0, [pc, #272]	; (8006ac4 <LCD_DrawBitmap+0x21c>)
 80069b4:	f850 0026 	ldr.w	r0, [r0, r6, lsl #2]
 80069b8:	9e04      	ldr	r6, [sp, #16]
 80069ba:	f8d0 e00c 	ldr.w	lr, [r0, #12]
 80069be:	931c      	str	r3, [sp, #112]	; 0x70
 80069c0:	9b03      	ldr	r3, [sp, #12]
 80069c2:	931a      	str	r3, [sp, #104]	; 0x68
 80069c4:	9118      	str	r1, [sp, #96]	; 0x60
 80069c6:	961d      	str	r6, [sp, #116]	; 0x74
 80069c8:	941b      	str	r4, [sp, #108]	; 0x6c
 80069ca:	9719      	str	r7, [sp, #100]	; 0x64
 80069cc:	f8de 4004 	ldr.w	r4, [lr, #4]
 80069d0:	4643      	mov	r3, r8
 80069d2:	4629      	mov	r1, r5
 80069d4:	46a4      	mov	ip, r4
 80069d6:	b00f      	add	sp, #60	; 0x3c
 80069d8:	e8bd 4ff0 	ldmia.w	sp!, {r4, r5, r6, r7, r8, r9, sl, fp, lr}
 80069dc:	4760      	bx	ip
 80069de:	f1c7 0308 	rsb	r3, r7, #8
 80069e2:	930b      	str	r3, [sp, #44]	; 0x2c
 80069e4:	9b02      	ldr	r3, [sp, #8]
 80069e6:	f8df a0d8 	ldr.w	sl, [pc, #216]	; 8006ac0 <LCD_DrawBitmap+0x218>
 80069ea:	f8cd e018 	str.w	lr, [sp, #24]
 80069ee:	3b01      	subs	r3, #1
 80069f0:	46f3      	mov	fp, lr
 80069f2:	930d      	str	r3, [sp, #52]	; 0x34
 80069f4:	9b06      	ldr	r3, [sp, #24]
 80069f6:	9a01      	ldr	r2, [sp, #4]
 80069f8:	4293      	cmp	r3, r2
 80069fa:	da5d      	bge.n	8006ab8 <LCD_DrawBitmap+0x210>
 80069fc:	9a00      	ldr	r2, [sp, #0]
 80069fe:	9b08      	ldr	r3, [sp, #32]
 8006a00:	4413      	add	r3, r2
 8006a02:	9309      	str	r3, [sp, #36]	; 0x24
 8006a04:	3b01      	subs	r3, #1
 8006a06:	930a      	str	r3, [sp, #40]	; 0x28
 8006a08:	f8da 3000 	ldr.w	r3, [sl]
 8006a0c:	990a      	ldr	r1, [sp, #40]	; 0x28
 8006a0e:	f9b3 200a 	ldrsh.w	r2, [r3, #10]
 8006a12:	428a      	cmp	r2, r1
 8006a14:	dc48      	bgt.n	8006aa8 <LCD_DrawBitmap+0x200>
 8006a16:	f9b3 300e 	ldrsh.w	r3, [r3, #14]
 8006a1a:	9a00      	ldr	r2, [sp, #0]
 8006a1c:	429a      	cmp	r2, r3
 8006a1e:	dc43      	bgt.n	8006aa8 <LCD_DrawBitmap+0x200>
 8006a20:	f04f 0900 	mov.w	r9, #0
 8006a24:	9407      	str	r4, [sp, #28]
 8006a26:	462e      	mov	r6, r5
 8006a28:	f8cd 9014 	str.w	r9, [sp, #20]
 8006a2c:	9b05      	ldr	r3, [sp, #20]
 8006a2e:	4543      	cmp	r3, r8
 8006a30:	da3a      	bge.n	8006aa8 <LCD_DrawBitmap+0x200>
 8006a32:	f1b9 0f00 	cmp.w	r9, #0
 8006a36:	d106      	bne.n	8006a46 <LCD_DrawBitmap+0x19e>
 8006a38:	9b07      	ldr	r3, [sp, #28]
 8006a3a:	f893 b000 	ldrb.w	fp, [r3]
 8006a3e:	3301      	adds	r3, #1
 8006a40:	9307      	str	r3, [sp, #28]
 8006a42:	f04f 0908 	mov.w	r9, #8
 8006a46:	9b0b      	ldr	r3, [sp, #44]	; 0x2c
 8006a48:	fa4b f303 	asr.w	r3, fp, r3
 8006a4c:	fa0b f207 	lsl.w	r2, fp, r7
 8006a50:	f013 01ff 	ands.w	r1, r3, #255	; 0xff
 8006a54:	fa5f fb82 	uxtb.w	fp, r2
 8006a58:	ebc7 0909 	rsb	r9, r7, r9
 8006a5c:	d104      	bne.n	8006a68 <LCD_DrawBitmap+0x1c0>
 8006a5e:	f8da 2000 	ldr.w	r2, [sl]
 8006a62:	7c12      	ldrb	r2, [r2, #16]
 8006a64:	0792      	lsls	r2, r2, #30
 8006a66:	d417      	bmi.n	8006a98 <LCD_DrawBitmap+0x1f0>
 8006a68:	f8da 2000 	ldr.w	r2, [sl]
 8006a6c:	6bd2      	ldr	r2, [r2, #60]	; 0x3c
 8006a6e:	6810      	ldr	r0, [r2, #0]
 8006a70:	900c      	str	r0, [sp, #48]	; 0x30
 8006a72:	9804      	ldr	r0, [sp, #16]
 8006a74:	b110      	cbz	r0, 8006a7c <LCD_DrawBitmap+0x1d4>
 8006a76:	f850 3021 	ldr.w	r3, [r0, r1, lsl #2]
 8006a7a:	e000      	b.n	8006a7e <LCD_DrawBitmap+0x1d6>
 8006a7c:	b2db      	uxtb	r3, r3
 8006a7e:	6013      	str	r3, [r2, #0]
 8006a80:	9a0d      	ldr	r2, [sp, #52]	; 0x34
 8006a82:	9b0a      	ldr	r3, [sp, #40]	; 0x28
 8006a84:	9900      	ldr	r1, [sp, #0]
 8006a86:	4432      	add	r2, r6
 8006a88:	4630      	mov	r0, r6
 8006a8a:	f7ff fee1 	bl	8006850 <LCD_FillRect>
 8006a8e:	f8da 3000 	ldr.w	r3, [sl]
 8006a92:	9a0c      	ldr	r2, [sp, #48]	; 0x30
 8006a94:	6bdb      	ldr	r3, [r3, #60]	; 0x3c
 8006a96:	601a      	str	r2, [r3, #0]
 8006a98:	9b05      	ldr	r3, [sp, #20]
 8006a9a:	9a02      	ldr	r2, [sp, #8]
 8006a9c:	3301      	adds	r3, #1
 8006a9e:	9305      	str	r3, [sp, #20]
 8006aa0:	4633      	mov	r3, r6
 8006aa2:	4413      	add	r3, r2
 8006aa4:	461e      	mov	r6, r3
 8006aa6:	e7c1      	b.n	8006a2c <LCD_DrawBitmap+0x184>
 8006aa8:	9b06      	ldr	r3, [sp, #24]
 8006aaa:	3301      	adds	r3, #1
 8006aac:	9306      	str	r3, [sp, #24]
 8006aae:	9b03      	ldr	r3, [sp, #12]
 8006ab0:	441c      	add	r4, r3
 8006ab2:	9b09      	ldr	r3, [sp, #36]	; 0x24
 8006ab4:	9300      	str	r3, [sp, #0]
 8006ab6:	e79d      	b.n	80069f4 <LCD_DrawBitmap+0x14c>
 8006ab8:	b00f      	add	sp, #60	; 0x3c
 8006aba:	e8bd 8ff0 	ldmia.w	sp!, {r4, r5, r6, r7, r8, r9, sl, fp, pc}
 8006abe:	bf00      	nop
 8006ac0:	20000098 	.word	0x20000098
 8006ac4:	20029160 	.word	0x20029160
 8006ac8:	2002911c 	.word	0x2002911c

08006acc <LCD_SetClipRectMax>:
 8006acc:	4b04      	ldr	r3, [pc, #16]	; (8006ae0 <LCD_SetClipRectMax+0x14>)
 8006ace:	6819      	ldr	r1, [r3, #0]
 8006ad0:	4b04      	ldr	r3, [pc, #16]	; (8006ae4 <LCD_SetClipRectMax+0x18>)
 8006ad2:	7c4a      	ldrb	r2, [r1, #17]
 8006ad4:	f853 0022 	ldr.w	r0, [r3, r2, lsl #2]
 8006ad8:	68c3      	ldr	r3, [r0, #12]
 8006ada:	3108      	adds	r1, #8
 8006adc:	6b1b      	ldr	r3, [r3, #48]	; 0x30
 8006ade:	4718      	bx	r3
 8006ae0:	20000098 	.word	0x20000098
 8006ae4:	20029160 	.word	0x20029160

08006ae8 <emWin_LCD_Init>:
 8006ae8:	b537      	push	{r0, r1, r2, r4, r5, lr}
 8006aea:	f7ff ffef 	bl	8006acc <LCD_SetClipRectMax>
 8006aee:	f000 f8bb 	bl	8006c68 <LCD_InitColors>
 8006af2:	4604      	mov	r4, r0
 8006af4:	2800      	cmp	r0, #0
 8006af6:	d144      	bne.n	8006b82 <emWin_LCD_Init+0x9a>
 8006af8:	4605      	mov	r5, r0
 8006afa:	4628      	mov	r0, r5
 8006afc:	f7ff f92e 	bl	8005d5c <GUI_DEVICE__GetpDriver>
 8006b00:	9001      	str	r0, [sp, #4]
 8006b02:	b150      	cbz	r0, 8006b1a <emWin_LCD_Init+0x32>
 8006b04:	68c3      	ldr	r3, [r0, #12]
 8006b06:	210c      	movs	r1, #12
 8006b08:	6a5b      	ldr	r3, [r3, #36]	; 0x24
 8006b0a:	a801      	add	r0, sp, #4
 8006b0c:	4798      	blx	r3
 8006b0e:	4603      	mov	r3, r0
 8006b10:	2800      	cmp	r0, #0
 8006b12:	d034      	beq.n	8006b7e <emWin_LCD_Init+0x96>
 8006b14:	9801      	ldr	r0, [sp, #4]
 8006b16:	4798      	blx	r3
 8006b18:	4304      	orrs	r4, r0
 8006b1a:	3501      	adds	r5, #1
 8006b1c:	2d02      	cmp	r5, #2
 8006b1e:	d1ec      	bne.n	8006afa <emWin_LCD_Init+0x12>
 8006b20:	bb7c      	cbnz	r4, 8006b82 <emWin_LCD_Init+0x9a>
 8006b22:	f000 f8f9 	bl	8006d18 <LCD_InitLUT>
 8006b26:	4b18      	ldr	r3, [pc, #96]	; (8006b88 <emWin_LCD_Init+0xa0>)
 8006b28:	681a      	ldr	r2, [r3, #0]
 8006b2a:	f06f 4370 	mvn.w	r3, #4026531840	; 0xf0000000
 8006b2e:	429a      	cmp	r2, r3
 8006b30:	d101      	bne.n	8006b36 <emWin_LCD_Init+0x4e>
 8006b32:	2000      	movs	r0, #0
 8006b34:	e026      	b.n	8006b84 <emWin_LCD_Init+0x9c>
 8006b36:	2401      	movs	r4, #1
 8006b38:	4620      	mov	r0, r4
 8006b3a:	f7ff f90f 	bl	8005d5c <GUI_DEVICE__GetpDriver>
 8006b3e:	9001      	str	r0, [sp, #4]
 8006b40:	b1c8      	cbz	r0, 8006b76 <emWin_LCD_Init+0x8e>
 8006b42:	4620      	mov	r0, r4
 8006b44:	f7ff fa74 	bl	8006030 <GUI_SelectLayer>
 8006b48:	2004      	movs	r0, #4
 8006b4a:	f7ff fe23 	bl	8006794 <LCD_SetDrawMode>
 8006b4e:	f643 73ff 	movw	r3, #16383	; 0x3fff
 8006b52:	2100      	movs	r1, #0
 8006b54:	461a      	mov	r2, r3
 8006b56:	4608      	mov	r0, r1
 8006b58:	f7ff fe7a 	bl	8006850 <LCD_FillRect>
 8006b5c:	2000      	movs	r0, #0
 8006b5e:	f7ff fe19 	bl	8006794 <LCD_SetDrawMode>
 8006b62:	9b01      	ldr	r3, [sp, #4]
 8006b64:	68db      	ldr	r3, [r3, #12]
 8006b66:	210e      	movs	r1, #14
 8006b68:	6a5b      	ldr	r3, [r3, #36]	; 0x24
 8006b6a:	a801      	add	r0, sp, #4
 8006b6c:	4798      	blx	r3
 8006b6e:	4603      	mov	r3, r0
 8006b70:	b108      	cbz	r0, 8006b76 <emWin_LCD_Init+0x8e>
 8006b72:	9801      	ldr	r0, [sp, #4]
 8006b74:	4798      	blx	r3
 8006b76:	f114 34ff 	adds.w	r4, r4, #4294967295	; 0xffffffff
 8006b7a:	d2dd      	bcs.n	8006b38 <emWin_LCD_Init+0x50>
 8006b7c:	e7d9      	b.n	8006b32 <emWin_LCD_Init+0x4a>
 8006b7e:	2001      	movs	r0, #1
 8006b80:	e000      	b.n	8006b84 <emWin_LCD_Init+0x9c>
 8006b82:	4620      	mov	r0, r4
 8006b84:	b003      	add	sp, #12
 8006b86:	bd30      	pop	{r4, r5, pc}
 8006b88:	20028da0 	.word	0x20028da0

08006b8c <LCD_Color2Index>:
 8006b8c:	4b04      	ldr	r3, [pc, #16]	; (8006ba0 <LCD_Color2Index+0x14>)
 8006b8e:	681b      	ldr	r3, [r3, #0]
 8006b90:	7c5a      	ldrb	r2, [r3, #17]
 8006b92:	4b04      	ldr	r3, [pc, #16]	; (8006ba4 <LCD_Color2Index+0x18>)
 8006b94:	f853 3022 	ldr.w	r3, [r3, r2, lsl #2]
 8006b98:	691b      	ldr	r3, [r3, #16]
 8006b9a:	681b      	ldr	r3, [r3, #0]
 8006b9c:	4718      	bx	r3
 8006b9e:	bf00      	nop
 8006ba0:	20000098 	.word	0x20000098
 8006ba4:	20029160 	.word	0x20029160

08006ba8 <LCD_Index2Color>:
 8006ba8:	4b04      	ldr	r3, [pc, #16]	; (8006bbc <LCD_Index2Color+0x14>)
 8006baa:	681b      	ldr	r3, [r3, #0]
 8006bac:	7c5a      	ldrb	r2, [r3, #17]
 8006bae:	4b04      	ldr	r3, [pc, #16]	; (8006bc0 <LCD_Index2Color+0x18>)
 8006bb0:	f853 3022 	ldr.w	r3, [r3, r2, lsl #2]
 8006bb4:	691b      	ldr	r3, [r3, #16]
 8006bb6:	685b      	ldr	r3, [r3, #4]
 8006bb8:	4718      	bx	r3
 8006bba:	bf00      	nop
 8006bbc:	20000098 	.word	0x20000098
 8006bc0:	20029160 	.word	0x20029160

08006bc4 <LCD_SetColorIndex>:
 8006bc4:	4b04      	ldr	r3, [pc, #16]	; (8006bd8 <LCD_SetColorIndex+0x14>)
 8006bc6:	681b      	ldr	r3, [r3, #0]
 8006bc8:	7c1a      	ldrb	r2, [r3, #16]
 8006bca:	0752      	lsls	r2, r2, #29
 8006bcc:	bf4c      	ite	mi
 8006bce:	6b9b      	ldrmi	r3, [r3, #56]	; 0x38
 8006bd0:	6bdb      	ldrpl	r3, [r3, #60]	; 0x3c
 8006bd2:	6018      	str	r0, [r3, #0]
 8006bd4:	4770      	bx	lr
 8006bd6:	bf00      	nop
 8006bd8:	20000098 	.word	0x20000098

08006bdc <_SetColor>:
 8006bdc:	b508      	push	{r3, lr}
 8006bde:	4b06      	ldr	r3, [pc, #24]	; (8006bf8 <_SetColor+0x1c>)
 8006be0:	681b      	ldr	r3, [r3, #0]
 8006be2:	6b19      	ldr	r1, [r3, #48]	; 0x30
 8006be4:	4281      	cmp	r1, r0
 8006be6:	d006      	beq.n	8006bf6 <_SetColor+0x1a>
 8006be8:	6318      	str	r0, [r3, #48]	; 0x30
 8006bea:	f7ff ffcf 	bl	8006b8c <LCD_Color2Index>
 8006bee:	e8bd 4008 	ldmia.w	sp!, {r3, lr}
 8006bf2:	f7ff bfe7 	b.w	8006bc4 <LCD_SetColorIndex>
 8006bf6:	bd08      	pop	{r3, pc}
 8006bf8:	20000098 	.word	0x20000098

08006bfc <LCD_SetBkColorIndex>:
 8006bfc:	4b04      	ldr	r3, [pc, #16]	; (8006c10 <LCD_SetBkColorIndex+0x14>)
 8006bfe:	681b      	ldr	r3, [r3, #0]
 8006c00:	7c1a      	ldrb	r2, [r3, #16]
 8006c02:	0752      	lsls	r2, r2, #29
 8006c04:	bf4c      	ite	mi
 8006c06:	6bdb      	ldrmi	r3, [r3, #60]	; 0x3c
 8006c08:	6b9b      	ldrpl	r3, [r3, #56]	; 0x38
 8006c0a:	6018      	str	r0, [r3, #0]
 8006c0c:	4770      	bx	lr
 8006c0e:	bf00      	nop
 8006c10:	20000098 	.word	0x20000098

08006c14 <_SetBkColor>:
 8006c14:	b508      	push	{r3, lr}
 8006c16:	4b06      	ldr	r3, [pc, #24]	; (8006c30 <_SetBkColor+0x1c>)
 8006c18:	681b      	ldr	r3, [r3, #0]
 8006c1a:	6b59      	ldr	r1, [r3, #52]	; 0x34
 8006c1c:	4281      	cmp	r1, r0
 8006c1e:	d006      	beq.n	8006c2e <_SetBkColor+0x1a>
 8006c20:	6358      	str	r0, [r3, #52]	; 0x34
 8006c22:	f7ff ffb3 	bl	8006b8c <LCD_Color2Index>
 8006c26:	e8bd 4008 	ldmia.w	sp!, {r3, lr}
 8006c2a:	f7ff bfe7 	b.w	8006bfc <LCD_SetBkColorIndex>
 8006c2e:	bd08      	pop	{r3, pc}
 8006c30:	20000098 	.word	0x20000098

08006c34 <LCD_SetBkColor>:
 8006c34:	4b01      	ldr	r3, [pc, #4]	; (8006c3c <LCD_SetBkColor+0x8>)
 8006c36:	681b      	ldr	r3, [r3, #0]
 8006c38:	685b      	ldr	r3, [r3, #4]
 8006c3a:	4718      	bx	r3
 8006c3c:	200000ac 	.word	0x200000ac

08006c40 <LCD_SetColor>:
 8006c40:	4b01      	ldr	r3, [pc, #4]	; (8006c48 <LCD_SetColor+0x8>)
 8006c42:	681b      	ldr	r3, [r3, #0]
 8006c44:	681b      	ldr	r3, [r3, #0]
 8006c46:	4718      	bx	r3
 8006c48:	200000ac 	.word	0x200000ac

08006c4c <_OnExit>:
 8006c4c:	b510      	push	{r4, lr}
 8006c4e:	4c04      	ldr	r4, [pc, #16]	; (8006c60 <_OnExit+0x14>)
 8006c50:	6820      	ldr	r0, [r4, #0]
 8006c52:	f7fe fbef 	bl	8005434 <GUI_ALLOC_FreeFixedBlock>
 8006c56:	4a03      	ldr	r2, [pc, #12]	; (8006c64 <_OnExit+0x18>)
 8006c58:	2300      	movs	r3, #0
 8006c5a:	6023      	str	r3, [r4, #0]
 8006c5c:	6013      	str	r3, [r2, #0]
 8006c5e:	bd10      	pop	{r4, pc}
 8006c60:	20029170 	.word	0x20029170
 8006c64:	20028f0c 	.word	0x20028f0c

08006c68 <LCD_InitColors>:
 8006c68:	b538      	push	{r3, r4, r5, lr}
 8006c6a:	4d0a      	ldr	r5, [pc, #40]	; (8006c94 <LCD_InitColors+0x2c>)
 8006c6c:	682c      	ldr	r4, [r5, #0]
 8006c6e:	b964      	cbnz	r4, 8006c8a <LCD_InitColors+0x22>
 8006c70:	4b09      	ldr	r3, [pc, #36]	; (8006c98 <LCD_InitColors+0x30>)
 8006c72:	6818      	ldr	r0, [r3, #0]
 8006c74:	0080      	lsls	r0, r0, #2
 8006c76:	f7fe fcb5 	bl	80055e4 <GUI_ALLOC_GetFixedBlock>
 8006c7a:	6028      	str	r0, [r5, #0]
 8006c7c:	b138      	cbz	r0, 8006c8e <LCD_InitColors+0x26>
 8006c7e:	4807      	ldr	r0, [pc, #28]	; (8006c9c <LCD_InitColors+0x34>)
 8006c80:	4b07      	ldr	r3, [pc, #28]	; (8006ca0 <LCD_InitColors+0x38>)
 8006c82:	f840 3f04 	str.w	r3, [r0, #4]!
 8006c86:	f7ff f855 	bl	8005d34 <GUI__RegisterExit>
 8006c8a:	2000      	movs	r0, #0
 8006c8c:	bd38      	pop	{r3, r4, r5, pc}
 8006c8e:	2001      	movs	r0, #1
 8006c90:	bd38      	pop	{r3, r4, r5, pc}
 8006c92:	bf00      	nop
 8006c94:	20029170 	.word	0x20029170
 8006c98:	200000b0 	.word	0x200000b0
 8006c9c:	20028f0c 	.word	0x20028f0c
 8006ca0:	08006c4d 	.word	0x08006c4d

08006ca4 <LCD_GetpPalConvTableUncached>:
 8006ca4:	e92d 43f8 	stmdb	sp!, {r3, r4, r5, r6, r7, r8, r9, lr}
 8006ca8:	4604      	mov	r4, r0
 8006caa:	b318      	cbz	r0, 8006cf4 <LCD_GetpPalConvTableUncached+0x50>
 8006cac:	6887      	ldr	r7, [r0, #8]
 8006cae:	b31f      	cbz	r7, 8006cf8 <LCD_GetpPalConvTableUncached+0x54>
 8006cb0:	4d14      	ldr	r5, [pc, #80]	; (8006d04 <LCD_GetpPalConvTableUncached+0x60>)
 8006cb2:	6828      	ldr	r0, [r5, #0]
 8006cb4:	b320      	cbz	r0, 8006d00 <LCD_GetpPalConvTableUncached+0x5c>
 8006cb6:	6822      	ldr	r2, [r4, #0]
 8006cb8:	f5b2 7f80 	cmp.w	r2, #256	; 0x100
 8006cbc:	dc1f      	bgt.n	8006cfe <LCD_GetpPalConvTableUncached+0x5a>
 8006cbe:	4b12      	ldr	r3, [pc, #72]	; (8006d08 <LCD_GetpPalConvTableUncached+0x64>)
 8006cc0:	681b      	ldr	r3, [r3, #0]
 8006cc2:	429a      	cmp	r2, r3
 8006cc4:	bfa8      	it	ge
 8006cc6:	461a      	movge	r2, r3
 8006cc8:	4690      	mov	r8, r2
 8006cca:	2600      	movs	r6, #0
 8006ccc:	4546      	cmp	r6, r8
 8006cce:	da09      	bge.n	8006ce4 <LCD_GetpPalConvTableUncached+0x40>
 8006cd0:	f857 0026 	ldr.w	r0, [r7, r6, lsl #2]
 8006cd4:	f8d5 9000 	ldr.w	r9, [r5]
 8006cd8:	f7ff ff58 	bl	8006b8c <LCD_Color2Index>
 8006cdc:	f849 0026 	str.w	r0, [r9, r6, lsl #2]
 8006ce0:	3601      	adds	r6, #1
 8006ce2:	e7f3      	b.n	8006ccc <LCD_GetpPalConvTableUncached+0x28>
 8006ce4:	4b09      	ldr	r3, [pc, #36]	; (8006d0c <LCD_GetpPalConvTableUncached+0x68>)
 8006ce6:	681b      	ldr	r3, [r3, #0]
 8006ce8:	b10b      	cbz	r3, 8006cee <LCD_GetpPalConvTableUncached+0x4a>
 8006cea:	4620      	mov	r0, r4
 8006cec:	4798      	blx	r3
 8006cee:	6828      	ldr	r0, [r5, #0]
 8006cf0:	e8bd 83f8 	ldmia.w	sp!, {r3, r4, r5, r6, r7, r8, r9, pc}
 8006cf4:	e8bd 83f8 	ldmia.w	sp!, {r3, r4, r5, r6, r7, r8, r9, pc}
 8006cf8:	4638      	mov	r0, r7
 8006cfa:	e8bd 83f8 	ldmia.w	sp!, {r3, r4, r5, r6, r7, r8, r9, pc}
 8006cfe:	2000      	movs	r0, #0
 8006d00:	e8bd 83f8 	ldmia.w	sp!, {r3, r4, r5, r6, r7, r8, r9, pc}
 8006d04:	20029170 	.word	0x20029170
 8006d08:	200000b0 	.word	0x200000b0
 8006d0c:	20028f0c 	.word	0x20028f0c

08006d10 <LCD_GetpPalConvTable>:
 8006d10:	f7ff bfc8 	b.w	8006ca4 <LCD_GetpPalConvTableUncached>

08006d14 <LCD_GetpPalConvTableBM>:
 8006d14:	f7ff bfc6 	b.w	8006ca4 <LCD_GetpPalConvTableUncached>

08006d18 <LCD_InitLUT>:
 8006d18:	e92d 4ff7 	stmdb	sp!, {r0, r1, r2, r4, r5, r6, r7, r8, r9, sl, fp, lr}
 8006d1c:	f000 f8ea 	bl	8006ef4 <LCD_GetNumLayers>
 8006d20:	4e1c      	ldr	r6, [pc, #112]	; (8006d94 <LCD_InitLUT+0x7c>)
 8006d22:	f8df a078 	ldr.w	sl, [pc, #120]	; 8006d9c <LCD_InitLUT+0x84>
 8006d26:	4680      	mov	r8, r0
 8006d28:	2400      	movs	r4, #0
 8006d2a:	46b1      	mov	r9, r6
 8006d2c:	4544      	cmp	r4, r8
 8006d2e:	da2d      	bge.n	8006d8c <LCD_InitLUT+0x74>
 8006d30:	4620      	mov	r0, r4
 8006d32:	f7ff f813 	bl	8005d5c <GUI_DEVICE__GetpDriver>
 8006d36:	b338      	cbz	r0, 8006d88 <LCD_InitLUT+0x70>
 8006d38:	6833      	ldr	r3, [r6, #0]
 8006d3a:	4620      	mov	r0, r4
 8006d3c:	f893 b011 	ldrb.w	fp, [r3, #17]
 8006d40:	745c      	strb	r4, [r3, #17]
 8006d42:	f000 f863 	bl	8006e0c <LCD_GetBitsPerPixelEx>
 8006d46:	2808      	cmp	r0, #8
 8006d48:	dd04      	ble.n	8006d54 <LCD_InitLUT+0x3c>
 8006d4a:	f8d9 3000 	ldr.w	r3, [r9]
 8006d4e:	f883 b011 	strb.w	fp, [r3, #17]
 8006d52:	e019      	b.n	8006d88 <LCD_InitLUT+0x70>
 8006d54:	f85a 3024 	ldr.w	r3, [sl, r4, lsl #2]
 8006d58:	691a      	ldr	r2, [r3, #16]
 8006d5a:	4b0f      	ldr	r3, [pc, #60]	; (8006d98 <LCD_InitLUT+0x80>)
 8006d5c:	429a      	cmp	r2, r3
 8006d5e:	d0f4      	beq.n	8006d4a <LCD_InitLUT+0x32>
 8006d60:	4620      	mov	r0, r4
 8006d62:	f000 f856 	bl	8006e12 <LCD_GetNumColorsEx>
 8006d66:	2500      	movs	r5, #0
 8006d68:	4603      	mov	r3, r0
 8006d6a:	429d      	cmp	r5, r3
 8006d6c:	daed      	bge.n	8006d4a <LCD_InitLUT+0x32>
 8006d6e:	b2ef      	uxtb	r7, r5
 8006d70:	4638      	mov	r0, r7
 8006d72:	9301      	str	r3, [sp, #4]
 8006d74:	f7ff ff18 	bl	8006ba8 <LCD_Index2Color>
 8006d78:	4639      	mov	r1, r7
 8006d7a:	4602      	mov	r2, r0
 8006d7c:	4620      	mov	r0, r4
 8006d7e:	f000 fa1c 	bl	80071ba <LCD_SetLUTEntryEx>
 8006d82:	3501      	adds	r5, #1
 8006d84:	9b01      	ldr	r3, [sp, #4]
 8006d86:	e7f0      	b.n	8006d6a <LCD_InitLUT+0x52>
 8006d88:	3401      	adds	r4, #1
 8006d8a:	e7cf      	b.n	8006d2c <LCD_InitLUT+0x14>
 8006d8c:	b003      	add	sp, #12
 8006d8e:	e8bd 8ff0 	ldmia.w	sp!, {r4, r5, r6, r7, r8, r9, sl, fp, pc}
 8006d92:	bf00      	nop
 8006d94:	20000098 	.word	0x20000098
 8006d98:	0800e170 	.word	0x0800e170
 8006d9c:	20029160 	.word	0x20029160

08006da0 <LCD_GetBkColorIndex>:
 8006da0:	4b02      	ldr	r3, [pc, #8]	; (8006dac <LCD_GetBkColorIndex+0xc>)
 8006da2:	681b      	ldr	r3, [r3, #0]
 8006da4:	6b9b      	ldr	r3, [r3, #56]	; 0x38
 8006da6:	6818      	ldr	r0, [r3, #0]
 8006da8:	4770      	bx	lr
 8006daa:	bf00      	nop
 8006dac:	20000098 	.word	0x20000098

08006db0 <LCD_GetColorIndex>:
 8006db0:	4b02      	ldr	r3, [pc, #8]	; (8006dbc <LCD_GetColorIndex+0xc>)
 8006db2:	681b      	ldr	r3, [r3, #0]
 8006db4:	6bdb      	ldr	r3, [r3, #60]	; 0x3c
 8006db6:	6818      	ldr	r0, [r3, #0]
 8006db8:	4770      	bx	lr
 8006dba:	bf00      	nop
 8006dbc:	20000098 	.word	0x20000098

08006dc0 <_GetDevProp>:
 8006dc0:	2801      	cmp	r0, #1
 8006dc2:	b510      	push	{r4, lr}
 8006dc4:	460c      	mov	r4, r1
 8006dc6:	dc08      	bgt.n	8006dda <_GetDevProp+0x1a>
 8006dc8:	f7fe ffc8 	bl	8005d5c <GUI_DEVICE__GetpDriver>
 8006dcc:	b128      	cbz	r0, 8006dda <_GetDevProp+0x1a>
 8006dce:	68c3      	ldr	r3, [r0, #12]
 8006dd0:	4621      	mov	r1, r4
 8006dd2:	6a9b      	ldr	r3, [r3, #40]	; 0x28
 8006dd4:	e8bd 4010 	ldmia.w	sp!, {r4, lr}
 8006dd8:	4718      	bx	r3
 8006dda:	2000      	movs	r0, #0
 8006ddc:	bd10      	pop	{r4, pc}

08006dde <_GetMaxValue>:
 8006dde:	b538      	push	{r3, r4, r5, lr}
 8006de0:	4601      	mov	r1, r0
 8006de2:	4605      	mov	r5, r0
 8006de4:	2001      	movs	r0, #1
 8006de6:	f7ff ffeb 	bl	8006dc0 <_GetDevProp>
 8006dea:	4629      	mov	r1, r5
 8006dec:	4604      	mov	r4, r0
 8006dee:	2000      	movs	r0, #0
 8006df0:	f7ff ffe6 	bl	8006dc0 <_GetDevProp>
 8006df4:	42a0      	cmp	r0, r4
 8006df6:	bfb8      	it	lt
 8006df8:	4620      	movlt	r0, r4
 8006dfa:	ea20 70e0 	bic.w	r0, r0, r0, asr #31
 8006dfe:	bd38      	pop	{r3, r4, r5, pc}

08006e00 <LCD_GetXSizeEx>:
 8006e00:	2101      	movs	r1, #1
 8006e02:	f7ff bfdd 	b.w	8006dc0 <_GetDevProp>

08006e06 <LCD_GetYSizeEx>:
 8006e06:	2102      	movs	r1, #2
 8006e08:	f7ff bfda 	b.w	8006dc0 <_GetDevProp>

08006e0c <LCD_GetBitsPerPixelEx>:
 8006e0c:	2108      	movs	r1, #8
 8006e0e:	f7ff bfd7 	b.w	8006dc0 <_GetDevProp>

08006e12 <LCD_GetNumColorsEx>:
 8006e12:	2109      	movs	r1, #9
 8006e14:	f7ff bfd4 	b.w	8006dc0 <_GetDevProp>

08006e18 <LCD_GetMirrorXEx>:
 8006e18:	210c      	movs	r1, #12
 8006e1a:	f7ff bfd1 	b.w	8006dc0 <_GetDevProp>

08006e1e <LCD_GetMirrorYEx>:
 8006e1e:	210d      	movs	r1, #13
 8006e20:	f7ff bfce 	b.w	8006dc0 <_GetDevProp>

08006e24 <LCD_GetSwapXYEx>:
 8006e24:	210e      	movs	r1, #14
 8006e26:	f7ff bfcb 	b.w	8006dc0 <_GetDevProp>
	...

08006e2c <LCD_GetXSize>:
 8006e2c:	4b02      	ldr	r3, [pc, #8]	; (8006e38 <LCD_GetXSize+0xc>)
 8006e2e:	681b      	ldr	r3, [r3, #0]
 8006e30:	7c58      	ldrb	r0, [r3, #17]
 8006e32:	f7ff bfe5 	b.w	8006e00 <LCD_GetXSizeEx>
 8006e36:	bf00      	nop
 8006e38:	20000098 	.word	0x20000098

08006e3c <LCD_GetYSize>:
 8006e3c:	4b02      	ldr	r3, [pc, #8]	; (8006e48 <LCD_GetYSize+0xc>)
 8006e3e:	681b      	ldr	r3, [r3, #0]
 8006e40:	7c58      	ldrb	r0, [r3, #17]
 8006e42:	f7ff bfe0 	b.w	8006e06 <LCD_GetYSizeEx>
 8006e46:	bf00      	nop
 8006e48:	20000098 	.word	0x20000098

08006e4c <LCD_GetNumColors>:
 8006e4c:	4b02      	ldr	r3, [pc, #8]	; (8006e58 <LCD_GetNumColors+0xc>)
 8006e4e:	681b      	ldr	r3, [r3, #0]
 8006e50:	7c58      	ldrb	r0, [r3, #17]
 8006e52:	f7ff bfde 	b.w	8006e12 <LCD_GetNumColorsEx>
 8006e56:	bf00      	nop
 8006e58:	20000098 	.word	0x20000098

08006e5c <GUI_GetBitsPerPixelEx>:
 8006e5c:	4b03      	ldr	r3, [pc, #12]	; (8006e6c <GUI_GetBitsPerPixelEx+0x10>)
 8006e5e:	f853 0020 	ldr.w	r0, [r3, r0, lsl #2]
 8006e62:	68c3      	ldr	r3, [r0, #12]
 8006e64:	2108      	movs	r1, #8
 8006e66:	6a9b      	ldr	r3, [r3, #40]	; 0x28
 8006e68:	4718      	bx	r3
 8006e6a:	bf00      	nop
 8006e6c:	20029160 	.word	0x20029160

08006e70 <LCD_GetDevFunc>:
 8006e70:	4b03      	ldr	r3, [pc, #12]	; (8006e80 <LCD_GetDevFunc+0x10>)
 8006e72:	f853 2020 	ldr.w	r2, [r3, r0, lsl #2]
 8006e76:	68d2      	ldr	r2, [r2, #12]
 8006e78:	eb03 0080 	add.w	r0, r3, r0, lsl #2
 8006e7c:	6a52      	ldr	r2, [r2, #36]	; 0x24
 8006e7e:	4710      	bx	r2
 8006e80:	20029160 	.word	0x20029160

08006e84 <LCD_GetPaletteEx>:
 8006e84:	b510      	push	{r4, lr}
 8006e86:	f7fe ff69 	bl	8005d5c <GUI_DEVICE__GetpDriver>
 8006e8a:	b128      	cbz	r0, 8006e98 <LCD_GetPaletteEx+0x14>
 8006e8c:	68c3      	ldr	r3, [r0, #12]
 8006e8e:	2102      	movs	r1, #2
 8006e90:	6adb      	ldr	r3, [r3, #44]	; 0x2c
 8006e92:	e8bd 4010 	ldmia.w	sp!, {r4, lr}
 8006e96:	4718      	bx	r3
 8006e98:	bd10      	pop	{r4, pc}
	...

08006e9c <LCD_GetPalette>:
 8006e9c:	4b02      	ldr	r3, [pc, #8]	; (8006ea8 <LCD_GetPalette+0xc>)
 8006e9e:	681b      	ldr	r3, [r3, #0]
 8006ea0:	7c58      	ldrb	r0, [r3, #17]
 8006ea2:	f7ff bfef 	b.w	8006e84 <LCD_GetPaletteEx>
 8006ea6:	bf00      	nop
 8006ea8:	20000098 	.word	0x20000098

08006eac <GUI_GetpfIndex2ColorEx>:
 8006eac:	4b02      	ldr	r3, [pc, #8]	; (8006eb8 <GUI_GetpfIndex2ColorEx+0xc>)
 8006eae:	f853 3020 	ldr.w	r3, [r3, r0, lsl #2]
 8006eb2:	691b      	ldr	r3, [r3, #16]
 8006eb4:	6858      	ldr	r0, [r3, #4]
 8006eb6:	4770      	bx	lr
 8006eb8:	20029160 	.word	0x20029160

08006ebc <LCD_GetXSizeMax>:
 8006ebc:	2001      	movs	r0, #1
 8006ebe:	f7ff bf8e 	b.w	8006dde <_GetMaxValue>

08006ec2 <LCD_GetYSizeMax>:
 8006ec2:	2002      	movs	r0, #2
 8006ec4:	f7ff bf8b 	b.w	8006dde <_GetMaxValue>

08006ec8 <LCD_GetVXSizeMax>:
 8006ec8:	2003      	movs	r0, #3
 8006eca:	f7ff bf88 	b.w	8006dde <_GetMaxValue>
	...

08006ed0 <LCD_SetDisplaySize>:
 8006ed0:	4b01      	ldr	r3, [pc, #4]	; (8006ed8 <LCD_SetDisplaySize+0x8>)
 8006ed2:	e883 0003 	stmia.w	r3, {r0, r1}
 8006ed6:	4770      	bx	lr
 8006ed8:	20028f18 	.word	0x20028f18

08006edc <LCD_GetXSizeDisplay>:
 8006edc:	4b01      	ldr	r3, [pc, #4]	; (8006ee4 <LCD_GetXSizeDisplay+0x8>)
 8006ede:	6818      	ldr	r0, [r3, #0]
 8006ee0:	4770      	bx	lr
 8006ee2:	bf00      	nop
 8006ee4:	20028f18 	.word	0x20028f18

08006ee8 <LCD_GetYSizeDisplay>:
 8006ee8:	4b01      	ldr	r3, [pc, #4]	; (8006ef0 <LCD_GetYSizeDisplay+0x8>)
 8006eea:	6858      	ldr	r0, [r3, #4]
 8006eec:	4770      	bx	lr
 8006eee:	bf00      	nop
 8006ef0:	20028f18 	.word	0x20028f18

08006ef4 <LCD_GetNumLayers>:
 8006ef4:	b510      	push	{r4, lr}
 8006ef6:	2000      	movs	r0, #0
 8006ef8:	f7fe ff30 	bl	8005d5c <GUI_DEVICE__GetpDriver>
 8006efc:	1c04      	adds	r4, r0, #0
 8006efe:	f04f 0001 	mov.w	r0, #1
 8006f02:	bf18      	it	ne
 8006f04:	2401      	movne	r4, #1
 8006f06:	f7fe ff29 	bl	8005d5c <GUI_DEVICE__GetpDriver>
 8006f0a:	b100      	cbz	r0, 8006f0e <LCD_GetNumLayers+0x1a>
 8006f0c:	3401      	adds	r4, #1
 8006f0e:	4620      	mov	r0, r4
 8006f10:	bd10      	pop	{r4, pc}
	...

08006f14 <LCD_ReadRectEx>:
 8006f14:	e92d 4ff0 	stmdb	sp!, {r4, r5, r6, r7, r8, r9, sl, fp, lr}
 8006f18:	b087      	sub	sp, #28
 8006f1a:	4690      	mov	r8, r2
 8006f1c:	9303      	str	r3, [sp, #12]
 8006f1e:	9b11      	ldr	r3, [sp, #68]	; 0x44
 8006f20:	9c10      	ldr	r4, [sp, #64]	; 0x40
 8006f22:	68da      	ldr	r2, [r3, #12]
 8006f24:	6a53      	ldr	r3, [r2, #36]	; 0x24
 8006f26:	f8d2 9014 	ldr.w	r9, [r2, #20]
 8006f2a:	4607      	mov	r7, r0
 8006f2c:	460e      	mov	r6, r1
 8006f2e:	b96b      	cbnz	r3, 8006f4c <LCD_ReadRectEx+0x38>
 8006f30:	4b60      	ldr	r3, [pc, #384]	; (80070b4 <LCD_ReadRectEx+0x1a0>)
 8006f32:	681b      	ldr	r3, [r3, #0]
 8006f34:	7c58      	ldrb	r0, [r3, #17]
 8006f36:	f7ff ff91 	bl	8006e5c <GUI_GetBitsPerPixelEx>
 8006f3a:	2808      	cmp	r0, #8
 8006f3c:	dd15      	ble.n	8006f6a <LCD_ReadRectEx+0x56>
 8006f3e:	2811      	cmp	r0, #17
 8006f40:	bfb4      	ite	lt
 8006f42:	f04f 0a02 	movlt.w	sl, #2
 8006f46:	f04f 0a04 	movge.w	sl, #4
 8006f4a:	e010      	b.n	8006f6e <LCD_ReadRectEx+0x5a>
 8006f4c:	2101      	movs	r1, #1
 8006f4e:	a811      	add	r0, sp, #68	; 0x44
 8006f50:	4798      	blx	r3
 8006f52:	4605      	mov	r5, r0
 8006f54:	2800      	cmp	r0, #0
 8006f56:	d0eb      	beq.n	8006f30 <LCD_ReadRectEx+0x1c>
 8006f58:	9b03      	ldr	r3, [sp, #12]
 8006f5a:	9300      	str	r3, [sp, #0]
 8006f5c:	9401      	str	r4, [sp, #4]
 8006f5e:	4643      	mov	r3, r8
 8006f60:	4632      	mov	r2, r6
 8006f62:	4639      	mov	r1, r7
 8006f64:	9811      	ldr	r0, [sp, #68]	; 0x44
 8006f66:	47a8      	blx	r5
 8006f68:	e0a0      	b.n	80070ac <LCD_ReadRectEx+0x198>
 8006f6a:	f04f 0a01 	mov.w	sl, #1
 8006f6e:	1e43      	subs	r3, r0, #1
 8006f70:	2500      	movs	r5, #0
 8006f72:	9304      	str	r3, [sp, #16]
 8006f74:	9b03      	ldr	r3, [sp, #12]
 8006f76:	429e      	cmp	r6, r3
 8006f78:	f300 8098 	bgt.w	80070ac <LCD_ReadRectEx+0x198>
 8006f7c:	f1ba 0f02 	cmp.w	sl, #2
 8006f80:	d009      	beq.n	8006f96 <LCD_ReadRectEx+0x82>
 8006f82:	f1ba 0f04 	cmp.w	sl, #4
 8006f86:	d004      	beq.n	8006f92 <LCD_ReadRectEx+0x7e>
 8006f88:	f1ba 0f01 	cmp.w	sl, #1
 8006f8c:	f040 808c 	bne.w	80070a8 <LCD_ReadRectEx+0x194>
 8006f90:	e003      	b.n	8006f9a <LCD_ReadRectEx+0x86>
 8006f92:	46bb      	mov	fp, r7
 8006f94:	e07d      	b.n	8007092 <LCD_ReadRectEx+0x17e>
 8006f96:	46bb      	mov	fp, r7
 8006f98:	e070      	b.n	800707c <LCD_ReadRectEx+0x168>
 8006f9a:	9b04      	ldr	r3, [sp, #16]
 8006f9c:	2b07      	cmp	r3, #7
 8006f9e:	f200 8083 	bhi.w	80070a8 <LCD_ReadRectEx+0x194>
 8006fa2:	e8df f003 	tbb	[pc, r3]
 8006fa6:	0a0e      	.short	0x0a0e
 8006fa8:	04040707 	.word	0x04040707
 8006fac:	0404      	.short	0x0404
 8006fae:	ebc4 0b07 	rsb	fp, r4, r7
 8006fb2:	e059      	b.n	8007068 <LCD_ReadRectEx+0x154>
 8006fb4:	46bb      	mov	fp, r7
 8006fb6:	230f      	movs	r3, #15
 8006fb8:	e03b      	b.n	8007032 <LCD_ReadRectEx+0x11e>
 8006fba:	46bb      	mov	fp, r7
 8006fbc:	f64f 733f 	movw	r3, #65343	; 0xff3f
 8006fc0:	e019      	b.n	8006ff6 <LCD_ReadRectEx+0xe2>
 8006fc2:	46bb      	mov	fp, r7
 8006fc4:	45c3      	cmp	fp, r8
 8006fc6:	dc6f      	bgt.n	80070a8 <LCD_ReadRectEx+0x194>
 8006fc8:	4632      	mov	r2, r6
 8006fca:	4659      	mov	r1, fp
 8006fcc:	9811      	ldr	r0, [sp, #68]	; 0x44
 8006fce:	47c8      	blx	r9
 8006fd0:	7822      	ldrb	r2, [r4, #0]
 8006fd2:	f64f 737f 	movw	r3, #65407	; 0xff7f
 8006fd6:	412b      	asrs	r3, r5
 8006fd8:	401a      	ands	r2, r3
 8006fda:	f1c5 0307 	rsb	r3, r5, #7
 8006fde:	4098      	lsls	r0, r3
 8006fe0:	3501      	adds	r5, #1
 8006fe2:	4310      	orrs	r0, r2
 8006fe4:	f025 0307 	bic.w	r3, r5, #7
 8006fe8:	7020      	strb	r0, [r4, #0]
 8006fea:	f10b 0b01 	add.w	fp, fp, #1
 8006fee:	eb04 04e5 	add.w	r4, r4, r5, asr #3
 8006ff2:	411d      	asrs	r5, r3
 8006ff4:	e7e6      	b.n	8006fc4 <LCD_ReadRectEx+0xb0>
 8006ff6:	45c3      	cmp	fp, r8
 8006ff8:	dc56      	bgt.n	80070a8 <LCD_ReadRectEx+0x194>
 8006ffa:	4659      	mov	r1, fp
 8006ffc:	4632      	mov	r2, r6
 8006ffe:	9811      	ldr	r0, [sp, #68]	; 0x44
 8007000:	9305      	str	r3, [sp, #20]
 8007002:	47c8      	blx	r9
 8007004:	9b05      	ldr	r3, [sp, #20]
 8007006:	f894 e000 	ldrb.w	lr, [r4]
 800700a:	006a      	lsls	r2, r5, #1
 800700c:	fa43 f102 	asr.w	r1, r3, r2
 8007010:	f1c2 0206 	rsb	r2, r2, #6
 8007014:	ea0e 0101 	and.w	r1, lr, r1
 8007018:	4090      	lsls	r0, r2
 800701a:	3501      	adds	r5, #1
 800701c:	ea41 0200 	orr.w	r2, r1, r0
 8007020:	7022      	strb	r2, [r4, #0]
 8007022:	f025 0203 	bic.w	r2, r5, #3
 8007026:	eb04 04a5 	add.w	r4, r4, r5, asr #2
 800702a:	f10b 0b01 	add.w	fp, fp, #1
 800702e:	4115      	asrs	r5, r2
 8007030:	e7e1      	b.n	8006ff6 <LCD_ReadRectEx+0xe2>
 8007032:	45c3      	cmp	fp, r8
 8007034:	dc38      	bgt.n	80070a8 <LCD_ReadRectEx+0x194>
 8007036:	4659      	mov	r1, fp
 8007038:	4632      	mov	r2, r6
 800703a:	9811      	ldr	r0, [sp, #68]	; 0x44
 800703c:	9305      	str	r3, [sp, #20]
 800703e:	47c8      	blx	r9
 8007040:	9b05      	ldr	r3, [sp, #20]
 8007042:	f894 e000 	ldrb.w	lr, [r4]
 8007046:	00aa      	lsls	r2, r5, #2
 8007048:	fa03 f102 	lsl.w	r1, r3, r2
 800704c:	f1c2 0204 	rsb	r2, r2, #4
 8007050:	ea0e 0101 	and.w	r1, lr, r1
 8007054:	4090      	lsls	r0, r2
 8007056:	ea41 0200 	orr.w	r2, r1, r0
 800705a:	7022      	strb	r2, [r4, #0]
 800705c:	f10b 0b01 	add.w	fp, fp, #1
 8007060:	442c      	add	r4, r5
 8007062:	f085 0501 	eor.w	r5, r5, #1
 8007066:	e7e4      	b.n	8007032 <LCD_ReadRectEx+0x11e>
 8007068:	eb04 010b 	add.w	r1, r4, fp
 800706c:	4588      	cmp	r8, r1
 800706e:	db1b      	blt.n	80070a8 <LCD_ReadRectEx+0x194>
 8007070:	4632      	mov	r2, r6
 8007072:	9811      	ldr	r0, [sp, #68]	; 0x44
 8007074:	47c8      	blx	r9
 8007076:	f804 0b01 	strb.w	r0, [r4], #1
 800707a:	e7f5      	b.n	8007068 <LCD_ReadRectEx+0x154>
 800707c:	45c3      	cmp	fp, r8
 800707e:	dc13      	bgt.n	80070a8 <LCD_ReadRectEx+0x194>
 8007080:	4659      	mov	r1, fp
 8007082:	4632      	mov	r2, r6
 8007084:	9811      	ldr	r0, [sp, #68]	; 0x44
 8007086:	47c8      	blx	r9
 8007088:	f10b 0b01 	add.w	fp, fp, #1
 800708c:	f824 0b02 	strh.w	r0, [r4], #2
 8007090:	e7f4      	b.n	800707c <LCD_ReadRectEx+0x168>
 8007092:	45c3      	cmp	fp, r8
 8007094:	dc08      	bgt.n	80070a8 <LCD_ReadRectEx+0x194>
 8007096:	4659      	mov	r1, fp
 8007098:	4632      	mov	r2, r6
 800709a:	9811      	ldr	r0, [sp, #68]	; 0x44
 800709c:	47c8      	blx	r9
 800709e:	f10b 0b01 	add.w	fp, fp, #1
 80070a2:	f844 0b04 	str.w	r0, [r4], #4
 80070a6:	e7f4      	b.n	8007092 <LCD_ReadRectEx+0x17e>
 80070a8:	3601      	adds	r6, #1
 80070aa:	e763      	b.n	8006f74 <LCD_ReadRectEx+0x60>
 80070ac:	b007      	add	sp, #28
 80070ae:	e8bd 8ff0 	ldmia.w	sp!, {r4, r5, r6, r7, r8, r9, sl, fp, pc}
 80070b2:	bf00      	nop
 80070b4:	20000098 	.word	0x20000098

080070b8 <GUI_ReadRectEx>:
 80070b8:	b4f0      	push	{r4, r5, r6, r7}
 80070ba:	4d16      	ldr	r5, [pc, #88]	; (8007114 <GUI_ReadRectEx+0x5c>)
 80070bc:	9e04      	ldr	r6, [sp, #16]
 80070be:	682d      	ldr	r5, [r5, #0]
 80070c0:	9c05      	ldr	r4, [sp, #20]
 80070c2:	f9b5 7008 	ldrsh.w	r7, [r5, #8]
 80070c6:	42b8      	cmp	r0, r7
 80070c8:	bfb8      	it	lt
 80070ca:	4638      	movlt	r0, r7
 80070cc:	f9b5 700c 	ldrsh.w	r7, [r5, #12]
 80070d0:	42ba      	cmp	r2, r7
 80070d2:	bfa8      	it	ge
 80070d4:	463a      	movge	r2, r7
 80070d6:	4290      	cmp	r0, r2
 80070d8:	dc1a      	bgt.n	8007110 <GUI_ReadRectEx+0x58>
 80070da:	f9b5 700a 	ldrsh.w	r7, [r5, #10]
 80070de:	f9b5 500e 	ldrsh.w	r5, [r5, #14]
 80070e2:	42b9      	cmp	r1, r7
 80070e4:	bfb8      	it	lt
 80070e6:	4639      	movlt	r1, r7
 80070e8:	42ab      	cmp	r3, r5
 80070ea:	bfa8      	it	ge
 80070ec:	462b      	movge	r3, r5
 80070ee:	428b      	cmp	r3, r1
 80070f0:	db0e      	blt.n	8007110 <GUI_ReadRectEx+0x58>
 80070f2:	68e5      	ldr	r5, [r4, #12]
 80070f4:	682d      	ldr	r5, [r5, #0]
 80070f6:	f035 0504 	bics.w	r5, r5, #4
 80070fa:	d104      	bne.n	8007106 <GUI_ReadRectEx+0x4e>
 80070fc:	9405      	str	r4, [sp, #20]
 80070fe:	9604      	str	r6, [sp, #16]
 8007100:	bcf0      	pop	{r4, r5, r6, r7}
 8007102:	f7ff bf07 	b.w	8006f14 <LCD_ReadRectEx>
 8007106:	6825      	ldr	r5, [r4, #0]
 8007108:	2d00      	cmp	r5, #0
 800710a:	d0f7      	beq.n	80070fc <GUI_ReadRectEx+0x44>
 800710c:	462c      	mov	r4, r5
 800710e:	e7f0      	b.n	80070f2 <GUI_ReadRectEx+0x3a>
 8007110:	bcf0      	pop	{r4, r5, r6, r7}
 8007112:	4770      	bx	lr
 8007114:	20000098 	.word	0x20000098

08007118 <LCD_SelectLCD>:
 8007118:	b510      	push	{r4, lr}
 800711a:	4b0d      	ldr	r3, [pc, #52]	; (8007150 <LCD_SelectLCD+0x38>)
 800711c:	681a      	ldr	r2, [r3, #0]
 800711e:	7c51      	ldrb	r1, [r2, #17]
 8007120:	4a0c      	ldr	r2, [pc, #48]	; (8007154 <LCD_SelectLCD+0x3c>)
 8007122:	f852 0021 	ldr.w	r0, [r2, r1, lsl #2]
 8007126:	461c      	mov	r4, r3
 8007128:	b140      	cbz	r0, 800713c <LCD_SelectLCD+0x24>
 800712a:	68c3      	ldr	r3, [r0, #12]
 800712c:	b113      	cbz	r3, 8007134 <LCD_SelectLCD+0x1c>
 800712e:	681b      	ldr	r3, [r3, #0]
 8007130:	2b04      	cmp	r3, #4
 8007132:	d001      	beq.n	8007138 <LCD_SelectLCD+0x20>
 8007134:	6800      	ldr	r0, [r0, #0]
 8007136:	e7f7      	b.n	8007128 <LCD_SelectLCD+0x10>
 8007138:	f7fe fe48 	bl	8005dcc <GUI_DEVICE_Unlink>
 800713c:	6823      	ldr	r3, [r4, #0]
 800713e:	2200      	movs	r2, #0
 8007140:	661a      	str	r2, [r3, #96]	; 0x60
 8007142:	f103 0208 	add.w	r2, r3, #8
 8007146:	615a      	str	r2, [r3, #20]
 8007148:	e8bd 4010 	ldmia.w	sp!, {r4, lr}
 800714c:	f7ff bcbe 	b.w	8006acc <LCD_SetClipRectMax>
 8007150:	20000098 	.word	0x20000098
 8007154:	20029160 	.word	0x20029160

08007158 <LCD_GetPosEx>:
 8007158:	b537      	push	{r0, r1, r2, r4, r5, lr}
 800715a:	460c      	mov	r4, r1
 800715c:	4615      	mov	r5, r2
 800715e:	f7fe fdfd 	bl	8005d5c <GUI_DEVICE__GetpDriver>
 8007162:	9001      	str	r0, [sp, #4]
 8007164:	b908      	cbnz	r0, 800716a <LCD_GetPosEx+0x12>
 8007166:	2001      	movs	r0, #1
 8007168:	e00d      	b.n	8007186 <LCD_GetPosEx+0x2e>
 800716a:	68c3      	ldr	r3, [r0, #12]
 800716c:	2104      	movs	r1, #4
 800716e:	6a5b      	ldr	r3, [r3, #36]	; 0x24
 8007170:	eb0d 0001 	add.w	r0, sp, r1
 8007174:	4798      	blx	r3
 8007176:	4603      	mov	r3, r0
 8007178:	2800      	cmp	r0, #0
 800717a:	d0f4      	beq.n	8007166 <LCD_GetPosEx+0xe>
 800717c:	9801      	ldr	r0, [sp, #4]
 800717e:	462a      	mov	r2, r5
 8007180:	4621      	mov	r1, r4
 8007182:	4798      	blx	r3
 8007184:	2000      	movs	r0, #0
 8007186:	b003      	add	sp, #12
 8007188:	bd30      	pop	{r4, r5, pc}

0800718a <LCD_SetDevFunc>:
 800718a:	b537      	push	{r0, r1, r2, r4, r5, lr}
 800718c:	460c      	mov	r4, r1
 800718e:	4615      	mov	r5, r2
 8007190:	f7fe fde4 	bl	8005d5c <GUI_DEVICE__GetpDriver>
 8007194:	9001      	str	r0, [sp, #4]
 8007196:	b908      	cbnz	r0, 800719c <LCD_SetDevFunc+0x12>
 8007198:	2001      	movs	r0, #1
 800719a:	e00c      	b.n	80071b6 <LCD_SetDevFunc+0x2c>
 800719c:	68c3      	ldr	r3, [r0, #12]
 800719e:	2116      	movs	r1, #22
 80071a0:	6a5b      	ldr	r3, [r3, #36]	; 0x24
 80071a2:	a801      	add	r0, sp, #4
 80071a4:	4798      	blx	r3
 80071a6:	4603      	mov	r3, r0
 80071a8:	2800      	cmp	r0, #0
 80071aa:	d0f5      	beq.n	8007198 <LCD_SetDevFunc+0xe>
 80071ac:	9801      	ldr	r0, [sp, #4]
 80071ae:	462a      	mov	r2, r5
 80071b0:	4621      	mov	r1, r4
 80071b2:	4798      	blx	r3
 80071b4:	2000      	movs	r0, #0
 80071b6:	b003      	add	sp, #12
 80071b8:	bd30      	pop	{r4, r5, pc}

080071ba <LCD_SetLUTEntryEx>:
 80071ba:	b537      	push	{r0, r1, r2, r4, r5, lr}
 80071bc:	460c      	mov	r4, r1
 80071be:	4615      	mov	r5, r2
 80071c0:	f7fe fdcc 	bl	8005d5c <GUI_DEVICE__GetpDriver>
 80071c4:	9001      	str	r0, [sp, #4]
 80071c6:	b908      	cbnz	r0, 80071cc <LCD_SetLUTEntryEx+0x12>
 80071c8:	2001      	movs	r0, #1
 80071ca:	e00c      	b.n	80071e6 <LCD_SetLUTEntryEx+0x2c>
 80071cc:	68c3      	ldr	r3, [r0, #12]
 80071ce:	2110      	movs	r1, #16
 80071d0:	6a5b      	ldr	r3, [r3, #36]	; 0x24
 80071d2:	a801      	add	r0, sp, #4
 80071d4:	4798      	blx	r3
 80071d6:	4603      	mov	r3, r0
 80071d8:	2800      	cmp	r0, #0
 80071da:	d0f5      	beq.n	80071c8 <LCD_SetLUTEntryEx+0xe>
 80071dc:	9801      	ldr	r0, [sp, #4]
 80071de:	462a      	mov	r2, r5
 80071e0:	4621      	mov	r1, r4
 80071e2:	4798      	blx	r3
 80071e4:	2000      	movs	r0, #0
 80071e6:	b003      	add	sp, #12
 80071e8:	bd30      	pop	{r4, r5, pc}

080071ea <LCD_SetPosEx>:
 80071ea:	b537      	push	{r0, r1, r2, r4, r5, lr}
 80071ec:	460c      	mov	r4, r1
 80071ee:	4615      	mov	r5, r2
 80071f0:	f7fe fdb4 	bl	8005d5c <GUI_DEVICE__GetpDriver>
 80071f4:	9001      	str	r0, [sp, #4]
 80071f6:	b908      	cbnz	r0, 80071fc <LCD_SetPosEx+0x12>
 80071f8:	2001      	movs	r0, #1
 80071fa:	e00c      	b.n	8007216 <LCD_SetPosEx+0x2c>
 80071fc:	68c3      	ldr	r3, [r0, #12]
 80071fe:	2103      	movs	r1, #3
 8007200:	6a5b      	ldr	r3, [r3, #36]	; 0x24
 8007202:	a801      	add	r0, sp, #4
 8007204:	4798      	blx	r3
 8007206:	4603      	mov	r3, r0
 8007208:	2800      	cmp	r0, #0
 800720a:	d0f5      	beq.n	80071f8 <LCD_SetPosEx+0xe>
 800720c:	9801      	ldr	r0, [sp, #4]
 800720e:	462a      	mov	r2, r5
 8007210:	4621      	mov	r1, r4
 8007212:	4798      	blx	r3
 8007214:	2000      	movs	r0, #0
 8007216:	b003      	add	sp, #12
 8007218:	bd30      	pop	{r4, r5, pc}

0800721a <LCD_SetSizeEx>:
 800721a:	b537      	push	{r0, r1, r2, r4, r5, lr}
 800721c:	460c      	mov	r4, r1
 800721e:	4615      	mov	r5, r2
 8007220:	f7fe fd9c 	bl	8005d5c <GUI_DEVICE__GetpDriver>
 8007224:	9001      	str	r0, [sp, #4]
 8007226:	b908      	cbnz	r0, 800722c <LCD_SetSizeEx+0x12>
 8007228:	2001      	movs	r0, #1
 800722a:	e00c      	b.n	8007246 <LCD_SetSizeEx+0x2c>
 800722c:	68c3      	ldr	r3, [r0, #12]
 800722e:	210b      	movs	r1, #11
 8007230:	6a5b      	ldr	r3, [r3, #36]	; 0x24
 8007232:	a801      	add	r0, sp, #4
 8007234:	4798      	blx	r3
 8007236:	4603      	mov	r3, r0
 8007238:	2800      	cmp	r0, #0
 800723a:	d0f5      	beq.n	8007228 <LCD_SetSizeEx+0xe>
 800723c:	9801      	ldr	r0, [sp, #4]
 800723e:	462a      	mov	r2, r5
 8007240:	4621      	mov	r1, r4
 8007242:	4798      	blx	r3
 8007244:	2000      	movs	r0, #0
 8007246:	b003      	add	sp, #12
 8007248:	bd30      	pop	{r4, r5, pc}

0800724a <LCD_SetVRAMAddrEx>:
 800724a:	b513      	push	{r0, r1, r4, lr}
 800724c:	460c      	mov	r4, r1
 800724e:	f7fe fd85 	bl	8005d5c <GUI_DEVICE__GetpDriver>
 8007252:	9001      	str	r0, [sp, #4]
 8007254:	b908      	cbnz	r0, 800725a <LCD_SetVRAMAddrEx+0x10>
 8007256:	2001      	movs	r0, #1
 8007258:	e00b      	b.n	8007272 <LCD_SetVRAMAddrEx+0x28>
 800725a:	68c3      	ldr	r3, [r0, #12]
 800725c:	2109      	movs	r1, #9
 800725e:	6a5b      	ldr	r3, [r3, #36]	; 0x24
 8007260:	a801      	add	r0, sp, #4
 8007262:	4798      	blx	r3
 8007264:	4603      	mov	r3, r0
 8007266:	2800      	cmp	r0, #0
 8007268:	d0f5      	beq.n	8007256 <LCD_SetVRAMAddrEx+0xc>
 800726a:	9801      	ldr	r0, [sp, #4]
 800726c:	4621      	mov	r1, r4
 800726e:	4798      	blx	r3
 8007270:	2000      	movs	r0, #0
 8007272:	b002      	add	sp, #8
 8007274:	bd10      	pop	{r4, pc}

08007276 <LCD_SetVSizeEx>:
 8007276:	b537      	push	{r0, r1, r2, r4, r5, lr}
 8007278:	460c      	mov	r4, r1
 800727a:	4615      	mov	r5, r2
 800727c:	f7fe fd6e 	bl	8005d5c <GUI_DEVICE__GetpDriver>
 8007280:	9001      	str	r0, [sp, #4]
 8007282:	b908      	cbnz	r0, 8007288 <LCD_SetVSizeEx+0x12>
 8007284:	2001      	movs	r0, #1
 8007286:	e00c      	b.n	80072a2 <LCD_SetVSizeEx+0x2c>
 8007288:	68c3      	ldr	r3, [r0, #12]
 800728a:	210a      	movs	r1, #10
 800728c:	6a5b      	ldr	r3, [r3, #36]	; 0x24
 800728e:	a801      	add	r0, sp, #4
 8007290:	4798      	blx	r3
 8007292:	4603      	mov	r3, r0
 8007294:	2800      	cmp	r0, #0
 8007296:	d0f5      	beq.n	8007284 <LCD_SetVSizeEx+0xe>
 8007298:	9801      	ldr	r0, [sp, #4]
 800729a:	462a      	mov	r2, r5
 800729c:	4621      	mov	r1, r4
 800729e:	4798      	blx	r3
 80072a0:	2000      	movs	r0, #0
 80072a2:	b003      	add	sp, #12
 80072a4:	bd30      	pop	{r4, r5, pc}
	...

080072a8 <LCD_UpdateColorIndices>:
 80072a8:	b510      	push	{r4, lr}
 80072aa:	4c07      	ldr	r4, [pc, #28]	; (80072c8 <LCD_UpdateColorIndices+0x20>)
 80072ac:	6823      	ldr	r3, [r4, #0]
 80072ae:	6b18      	ldr	r0, [r3, #48]	; 0x30
 80072b0:	f7ff fc6c 	bl	8006b8c <LCD_Color2Index>
 80072b4:	f7ff fc86 	bl	8006bc4 <LCD_SetColorIndex>
 80072b8:	6823      	ldr	r3, [r4, #0]
 80072ba:	6b58      	ldr	r0, [r3, #52]	; 0x34
 80072bc:	f7ff fc66 	bl	8006b8c <LCD_Color2Index>
 80072c0:	e8bd 4010 	ldmia.w	sp!, {r4, lr}
 80072c4:	f7ff bc9a 	b.w	8006bfc <LCD_SetBkColorIndex>
 80072c8:	20000098 	.word	0x20000098

080072cc <_GetRect>:
 80072cc:	6882      	ldr	r2, [r0, #8]
 80072ce:	2300      	movs	r3, #0
 80072d0:	800b      	strh	r3, [r1, #0]
 80072d2:	804b      	strh	r3, [r1, #2]
 80072d4:	6993      	ldr	r3, [r2, #24]
 80072d6:	3b01      	subs	r3, #1
 80072d8:	808b      	strh	r3, [r1, #4]
 80072da:	69d3      	ldr	r3, [r2, #28]
 80072dc:	3b01      	subs	r3, #1
 80072de:	80cb      	strh	r3, [r1, #6]
 80072e0:	4770      	bx	lr

080072e2 <_SetPixelIndex>:
 80072e2:	b510      	push	{r4, lr}
 80072e4:	6884      	ldr	r4, [r0, #8]
 80072e6:	6a20      	ldr	r0, [r4, #32]
 80072e8:	fb00 1202 	mla	r2, r0, r2, r1
 80072ec:	6821      	ldr	r1, [r4, #0]
 80072ee:	f841 3022 	str.w	r3, [r1, r2, lsl #2]
 80072f2:	bd10      	pop	{r4, pc}

080072f4 <_GetPixelIndex>:
 80072f4:	6880      	ldr	r0, [r0, #8]
 80072f6:	6a03      	ldr	r3, [r0, #32]
 80072f8:	fb03 1202 	mla	r2, r3, r2, r1
 80072fc:	6803      	ldr	r3, [r0, #0]
 80072fe:	f853 0022 	ldr.w	r0, [r3, r2, lsl #2]
 8007302:	4770      	bx	lr

08007304 <_XorPixel>:
 8007304:	e92d 41f0 	stmdb	sp!, {r4, r5, r6, r7, r8, lr}
 8007308:	4604      	mov	r4, r0
 800730a:	460d      	mov	r5, r1
 800730c:	4616      	mov	r6, r2
 800730e:	f7ff fff1 	bl	80072f4 <_GetPixelIndex>
 8007312:	6923      	ldr	r3, [r4, #16]
 8007314:	689b      	ldr	r3, [r3, #8]
 8007316:	4607      	mov	r7, r0
 8007318:	4798      	blx	r3
 800731a:	4632      	mov	r2, r6
 800731c:	ea87 0300 	eor.w	r3, r7, r0
 8007320:	4629      	mov	r1, r5
 8007322:	4620      	mov	r0, r4
 8007324:	e8bd 41f0 	ldmia.w	sp!, {r4, r5, r6, r7, r8, lr}
 8007328:	f7ff bfdb 	b.w	80072e2 <_SetPixelIndex>

0800732c <_FillRect>:
 800732c:	e92d 47f3 	stmdb	sp!, {r0, r1, r4, r5, r6, r7, r8, r9, sl, lr}
 8007330:	f8d0 9008 	ldr.w	r9, [r0, #8]
 8007334:	9c0a      	ldr	r4, [sp, #40]	; 0x28
 8007336:	f8d9 6034 	ldr.w	r6, [r9, #52]	; 0x34
 800733a:	f8df e140 	ldr.w	lr, [pc, #320]	; 800747c <_FillRect+0x150>
 800733e:	468a      	mov	sl, r1
 8007340:	4615      	mov	r5, r2
 8007342:	b146      	cbz	r6, 8007356 <_FillRect+0x2a>
 8007344:	f8de 5000 	ldr.w	r5, [lr]
 8007348:	6bed      	ldr	r5, [r5, #60]	; 0x3c
 800734a:	682d      	ldr	r5, [r5, #0]
 800734c:	e88d 0030 	stmia.w	sp, {r4, r5}
 8007350:	6980      	ldr	r0, [r0, #24]
 8007352:	47b0      	blx	r6
 8007354:	e08e      	b.n	8007474 <_FillRect+0x148>
 8007356:	1a5b      	subs	r3, r3, r1
 8007358:	f8de 1000 	ldr.w	r1, [lr]
 800735c:	f8d9 8020 	ldr.w	r8, [r9, #32]
 8007360:	1aa4      	subs	r4, r4, r2
 8007362:	7c0a      	ldrb	r2, [r1, #16]
 8007364:	f012 0201 	ands.w	r2, r2, #1
 8007368:	f103 0701 	add.w	r7, r3, #1
 800736c:	f104 0601 	add.w	r6, r4, #1
 8007370:	d022      	beq.n	80073b8 <_FillRect+0x8c>
 8007372:	6903      	ldr	r3, [r0, #16]
 8007374:	689b      	ldr	r3, [r3, #8]
 8007376:	4798      	blx	r3
 8007378:	2f00      	cmp	r7, #0
 800737a:	d07b      	beq.n	8007474 <_FillRect+0x148>
 800737c:	f8d9 3020 	ldr.w	r3, [r9, #32]
 8007380:	fb03 a505 	mla	r5, r3, r5, sl
 8007384:	f06f 0203 	mvn.w	r2, #3
 8007388:	fb08 5404 	mla	r4, r8, r4, r5
 800738c:	fb02 f208 	mul.w	r2, r2, r8
 8007390:	00a4      	lsls	r4, r4, #2
 8007392:	2e00      	cmp	r6, #0
 8007394:	d06e      	beq.n	8007474 <_FillRect+0x148>
 8007396:	3e01      	subs	r6, #1
 8007398:	4623      	mov	r3, r4
 800739a:	463d      	mov	r5, r7
 800739c:	f8d9 e000 	ldr.w	lr, [r9]
 80073a0:	f853 100e 	ldr.w	r1, [r3, lr]
 80073a4:	3d01      	subs	r5, #1
 80073a6:	ea81 0100 	eor.w	r1, r1, r0
 80073aa:	f843 100e 	str.w	r1, [r3, lr]
 80073ae:	f103 0304 	add.w	r3, r3, #4
 80073b2:	d1f3      	bne.n	800739c <_FillRect+0x70>
 80073b4:	4414      	add	r4, r2
 80073b6:	e7ec      	b.n	8007392 <_FillRect+0x66>
 80073b8:	f8d9 0000 	ldr.w	r0, [r9]
 80073bc:	6bc9      	ldr	r1, [r1, #60]	; 0x3c
 80073be:	fb08 a505 	mla	r5, r8, r5, sl
 80073c2:	2f0f      	cmp	r7, #15
 80073c4:	eb00 0a85 	add.w	sl, r0, r5, lsl #2
 80073c8:	6808      	ldr	r0, [r1, #0]
 80073ca:	d940      	bls.n	800744e <_FillRect+0x122>
 80073cc:	f1a3 050f 	sub.w	r5, r3, #15
 80073d0:	092d      	lsrs	r5, r5, #4
 80073d2:	ea4f 0e88 	mov.w	lr, r8, lsl #2
 80073d6:	f104 4180 	add.w	r1, r4, #1073741824	; 0x40000000
 80073da:	3501      	adds	r5, #1
 80073dc:	fb0e a101 	mla	r1, lr, r1, sl
 80073e0:	01ad      	lsls	r5, r5, #6
 80073e2:	46b4      	mov	ip, r6
 80073e4:	4692      	mov	sl, r2
 80073e6:	f1bc 0f00 	cmp.w	ip, #0
 80073ea:	d02e      	beq.n	800744a <_FillRect+0x11e>
 80073ec:	f101 0340 	add.w	r3, r1, #64	; 0x40
 80073f0:	463a      	mov	r2, r7
 80073f2:	3a10      	subs	r2, #16
 80073f4:	2a0f      	cmp	r2, #15
 80073f6:	f843 0c40 	str.w	r0, [r3, #-64]
 80073fa:	f843 0c3c 	str.w	r0, [r3, #-60]
 80073fe:	f843 0c38 	str.w	r0, [r3, #-56]
 8007402:	f843 0c34 	str.w	r0, [r3, #-52]
 8007406:	f843 0c30 	str.w	r0, [r3, #-48]
 800740a:	f843 0c2c 	str.w	r0, [r3, #-44]
 800740e:	f843 0c28 	str.w	r0, [r3, #-40]
 8007412:	f843 0c24 	str.w	r0, [r3, #-36]
 8007416:	f843 0c20 	str.w	r0, [r3, #-32]
 800741a:	f843 0c1c 	str.w	r0, [r3, #-28]
 800741e:	f843 0c18 	str.w	r0, [r3, #-24]
 8007422:	f843 0c14 	str.w	r0, [r3, #-20]
 8007426:	f843 0c10 	str.w	r0, [r3, #-16]
 800742a:	f843 0c0c 	str.w	r0, [r3, #-12]
 800742e:	f843 0c08 	str.w	r0, [r3, #-8]
 8007432:	f843 0c04 	str.w	r0, [r3, #-4]
 8007436:	f103 0340 	add.w	r3, r3, #64	; 0x40
 800743a:	d8da      	bhi.n	80073f2 <_FillRect+0xc6>
 800743c:	eb01 0a05 	add.w	sl, r1, r5
 8007440:	f10c 3cff 	add.w	ip, ip, #4294967295	; 0xffffffff
 8007444:	ebce 0101 	rsb	r1, lr, r1
 8007448:	e7cd      	b.n	80073e6 <_FillRect+0xba>
 800744a:	f007 070f 	and.w	r7, r7, #15
 800744e:	b18f      	cbz	r7, 8007474 <_FillRect+0x148>
 8007450:	ea4f 0888 	mov.w	r8, r8, lsl #2
 8007454:	f104 4480 	add.w	r4, r4, #1073741824	; 0x40000000
 8007458:	fb08 a404 	mla	r4, r8, r4, sl
 800745c:	00bb      	lsls	r3, r7, #2
 800745e:	b14e      	cbz	r6, 8007474 <_FillRect+0x148>
 8007460:	4622      	mov	r2, r4
 8007462:	1919      	adds	r1, r3, r4
 8007464:	f842 0b04 	str.w	r0, [r2], #4
 8007468:	428a      	cmp	r2, r1
 800746a:	d1fb      	bne.n	8007464 <_FillRect+0x138>
 800746c:	3e01      	subs	r6, #1
 800746e:	ebc8 0404 	rsb	r4, r8, r4
 8007472:	e7f4      	b.n	800745e <_FillRect+0x132>
 8007474:	b002      	add	sp, #8
 8007476:	e8bd 87f0 	ldmia.w	sp!, {r4, r5, r6, r7, r8, r9, sl, pc}
 800747a:	bf00      	nop
 800747c:	20000098 	.word	0x20000098

08007480 <_DrawHLine>:
 8007480:	b507      	push	{r0, r1, r2, lr}
 8007482:	9200      	str	r2, [sp, #0]
 8007484:	f7ff ff52 	bl	800732c <_FillRect>
 8007488:	b003      	add	sp, #12
 800748a:	f85d fb04 	ldr.w	pc, [sp], #4

0800748e <_DrawVLine>:
 800748e:	b507      	push	{r0, r1, r2, lr}
 8007490:	9300      	str	r3, [sp, #0]
 8007492:	460b      	mov	r3, r1
 8007494:	f7ff ff4a 	bl	800732c <_FillRect>
 8007498:	b003      	add	sp, #12
 800749a:	f85d fb04 	ldr.w	pc, [sp], #4

0800749e <_GetDevProp>:
 800749e:	3901      	subs	r1, #1
 80074a0:	6883      	ldr	r3, [r0, #8]
 80074a2:	290d      	cmp	r1, #13
 80074a4:	d814      	bhi.n	80074d0 <_GetDevProp+0x32>
 80074a6:	e8df f001 	tbb	[pc, r1]
 80074aa:	0b09      	.short	0x0b09
 80074ac:	13130f0d 	.word	0x13130f0d
 80074b0:	11071613 	.word	0x11071613
 80074b4:	07070711 	.word	0x07070711
 80074b8:	2000      	movs	r0, #0
 80074ba:	4770      	bx	lr
 80074bc:	6918      	ldr	r0, [r3, #16]
 80074be:	4770      	bx	lr
 80074c0:	6958      	ldr	r0, [r3, #20]
 80074c2:	4770      	bx	lr
 80074c4:	6998      	ldr	r0, [r3, #24]
 80074c6:	4770      	bx	lr
 80074c8:	69d8      	ldr	r0, [r3, #28]
 80074ca:	4770      	bx	lr
 80074cc:	2001      	movs	r0, #1
 80074ce:	4770      	bx	lr
 80074d0:	f04f 30ff 	mov.w	r0, #4294967295	; 0xffffffff
 80074d4:	4770      	bx	lr
 80074d6:	2020      	movs	r0, #32
 80074d8:	4770      	bx	lr
	...

080074dc <_GetDevData>:
 80074dc:	2901      	cmp	r1, #1
 80074de:	4802      	ldr	r0, [pc, #8]	; (80074e8 <_GetDevData+0xc>)
 80074e0:	bf18      	it	ne
 80074e2:	2000      	movne	r0, #0
 80074e4:	4770      	bx	lr
 80074e6:	bf00      	nop
 80074e8:	0800e0e4 	.word	0x0800e0e4

080074ec <_ReadRect>:
 80074ec:	e92d 4ff0 	stmdb	sp!, {r4, r5, r6, r7, r8, r9, sl, fp, lr}
 80074f0:	6887      	ldr	r7, [r0, #8]
 80074f2:	9e0a      	ldr	r6, [sp, #40]	; 0x28
 80074f4:	6a3d      	ldr	r5, [r7, #32]
 80074f6:	9c09      	ldr	r4, [sp, #36]	; 0x24
 80074f8:	f105 4080 	add.w	r0, r5, #1073741824	; 0x40000000
 80074fc:	ebc1 0e03 	rsb	lr, r1, r3
 8007500:	3801      	subs	r0, #1
 8007502:	3301      	adds	r3, #1
 8007504:	fb05 1502 	mla	r5, r5, r2, r1
 8007508:	ebce 0000 	rsb	r0, lr, r0
 800750c:	1a59      	subs	r1, r3, r1
 800750e:	0080      	lsls	r0, r0, #2
 8007510:	ebc6 0585 	rsb	r5, r6, r5, lsl #2
 8007514:	0089      	lsls	r1, r1, #2
 8007516:	f04f 0c00 	mov.w	ip, #0
 800751a:	f10e 0801 	add.w	r8, lr, #1
 800751e:	46b1      	mov	r9, r6
 8007520:	eb0c 0a05 	add.w	sl, ip, r5
 8007524:	683b      	ldr	r3, [r7, #0]
 8007526:	eb09 0b0a 	add.w	fp, r9, sl
 800752a:	f1b8 0801 	subs.w	r8, r8, #1
 800752e:	f85b 3003 	ldr.w	r3, [fp, r3]
 8007532:	f849 3b04 	str.w	r3, [r9], #4
 8007536:	d1f5      	bne.n	8007524 <_ReadRect+0x38>
 8007538:	3201      	adds	r2, #1
 800753a:	1e53      	subs	r3, r2, #1
 800753c:	429c      	cmp	r4, r3
 800753e:	440e      	add	r6, r1
 8007540:	4484      	add	ip, r0
 8007542:	dcea      	bgt.n	800751a <_ReadRect+0x2e>
 8007544:	e8bd 8ff0 	ldmia.w	sp!, {r4, r5, r6, r7, r8, r9, sl, fp, pc}

08007548 <_GetDevFunc>:
 8007548:	3901      	subs	r1, #1
 800754a:	2928      	cmp	r1, #40	; 0x28
 800754c:	d848      	bhi.n	80075e0 <_GetDevFunc+0x98>
 800754e:	e8df f001 	tbb	[pc, r1]
 8007552:	1f45      	.short	0x1f45
 8007554:	21471d1b 	.word	0x21471d1b
 8007558:	17494747 	.word	0x17494747
 800755c:	25472319 	.word	0x25472319
 8007560:	47474727 	.word	0x47474727
 8007564:	332d2b29 	.word	0x332d2b29
 8007568:	47354747 	.word	0x47354747
 800756c:	47474747 	.word	0x47474747
 8007570:	312f3947 	.word	0x312f3947
 8007574:	473d4741 	.word	0x473d4741
 8007578:	4747      	.short	0x4747
 800757a:	15          	.byte	0x15
 800757b:	00          	.byte	0x00
 800757c:	481a      	ldr	r0, [pc, #104]	; (80075e8 <_GetDevFunc+0xa0>)
 800757e:	4770      	bx	lr
 8007580:	481a      	ldr	r0, [pc, #104]	; (80075ec <_GetDevFunc+0xa4>)
 8007582:	4770      	bx	lr
 8007584:	481a      	ldr	r0, [pc, #104]	; (80075f0 <_GetDevFunc+0xa8>)
 8007586:	4770      	bx	lr
 8007588:	481a      	ldr	r0, [pc, #104]	; (80075f4 <_GetDevFunc+0xac>)
 800758a:	4770      	bx	lr
 800758c:	481a      	ldr	r0, [pc, #104]	; (80075f8 <_GetDevFunc+0xb0>)
 800758e:	4770      	bx	lr
 8007590:	481a      	ldr	r0, [pc, #104]	; (80075fc <_GetDevFunc+0xb4>)
 8007592:	4770      	bx	lr
 8007594:	481a      	ldr	r0, [pc, #104]	; (8007600 <_GetDevFunc+0xb8>)
 8007596:	4770      	bx	lr
 8007598:	481a      	ldr	r0, [pc, #104]	; (8007604 <_GetDevFunc+0xbc>)
 800759a:	4770      	bx	lr
 800759c:	481a      	ldr	r0, [pc, #104]	; (8007608 <_GetDevFunc+0xc0>)
 800759e:	4770      	bx	lr
 80075a0:	481a      	ldr	r0, [pc, #104]	; (800760c <_GetDevFunc+0xc4>)
 80075a2:	4770      	bx	lr
 80075a4:	481a      	ldr	r0, [pc, #104]	; (8007610 <_GetDevFunc+0xc8>)
 80075a6:	4770      	bx	lr
 80075a8:	481a      	ldr	r0, [pc, #104]	; (8007614 <_GetDevFunc+0xcc>)
 80075aa:	4770      	bx	lr
 80075ac:	481a      	ldr	r0, [pc, #104]	; (8007618 <_GetDevFunc+0xd0>)
 80075ae:	4770      	bx	lr
 80075b0:	481a      	ldr	r0, [pc, #104]	; (800761c <_GetDevFunc+0xd4>)
 80075b2:	4770      	bx	lr
 80075b4:	481a      	ldr	r0, [pc, #104]	; (8007620 <_GetDevFunc+0xd8>)
 80075b6:	4770      	bx	lr
 80075b8:	481a      	ldr	r0, [pc, #104]	; (8007624 <_GetDevFunc+0xdc>)
 80075ba:	4770      	bx	lr
 80075bc:	6803      	ldr	r3, [r0, #0]
 80075be:	689b      	ldr	r3, [r3, #8]
 80075c0:	6b58      	ldr	r0, [r3, #52]	; 0x34
 80075c2:	4770      	bx	lr
 80075c4:	6803      	ldr	r3, [r0, #0]
 80075c6:	689b      	ldr	r3, [r3, #8]
 80075c8:	6bd8      	ldr	r0, [r3, #60]	; 0x3c
 80075ca:	4770      	bx	lr
 80075cc:	6803      	ldr	r3, [r0, #0]
 80075ce:	689b      	ldr	r3, [r3, #8]
 80075d0:	6c18      	ldr	r0, [r3, #64]	; 0x40
 80075d2:	4770      	bx	lr
 80075d4:	6803      	ldr	r3, [r0, #0]
 80075d6:	689b      	ldr	r3, [r3, #8]
 80075d8:	6c58      	ldr	r0, [r3, #68]	; 0x44
 80075da:	4770      	bx	lr
 80075dc:	4812      	ldr	r0, [pc, #72]	; (8007628 <_GetDevFunc+0xe0>)
 80075de:	4770      	bx	lr
 80075e0:	2000      	movs	r0, #0
 80075e2:	4770      	bx	lr
 80075e4:	4811      	ldr	r0, [pc, #68]	; (800762c <_GetDevFunc+0xe4>)
 80075e6:	4770      	bx	lr
 80075e8:	08007cf1 	.word	0x08007cf1
 80075ec:	08007f03 	.word	0x08007f03
 80075f0:	08007ec1 	.word	0x08007ec1
 80075f4:	08007dc3 	.word	0x08007dc3
 80075f8:	08007cd5 	.word	0x08007cd5
 80075fc:	08007d71 	.word	0x08007d71
 8007600:	08007d49 	.word	0x08007d49
 8007604:	08007d2f 	.word	0x08007d2f
 8007608:	0800767d 	.word	0x0800767d
 800760c:	08007673 	.word	0x08007673
 8007610:	0800765d 	.word	0x0800765d
 8007614:	08007647 	.word	0x08007647
 8007618:	08007631 	.word	0x08007631
 800761c:	08007c71 	.word	0x08007c71
 8007620:	08007d09 	.word	0x08007d09
 8007624:	08007c23 	.word	0x08007c23
 8007628:	080074ed 	.word	0x080074ed
 800762c:	08007d99 	.word	0x08007d99

08007630 <_SetChroma>:
 8007630:	b507      	push	{r0, r1, r2, lr}
 8007632:	6980      	ldr	r0, [r0, #24]
 8007634:	e88d 0006 	stmia.w	sp, {r1, r2}
 8007638:	466a      	mov	r2, sp
 800763a:	210d      	movs	r1, #13
 800763c:	f7fd f93e 	bl	80048bc <LCD_X_DisplayDriver>
 8007640:	b003      	add	sp, #12
 8007642:	f85d fb04 	ldr.w	pc, [sp], #4

08007646 <_SetChromaMode>:
 8007646:	b507      	push	{r0, r1, r2, lr}
 8007648:	aa02      	add	r2, sp, #8
 800764a:	6980      	ldr	r0, [r0, #24]
 800764c:	f842 1d04 	str.w	r1, [r2, #-4]!
 8007650:	210c      	movs	r1, #12
 8007652:	f7fd f933 	bl	80048bc <LCD_X_DisplayDriver>
 8007656:	b003      	add	sp, #12
 8007658:	f85d fb04 	ldr.w	pc, [sp], #4

0800765c <_SetAlphaMode>:
 800765c:	b507      	push	{r0, r1, r2, lr}
 800765e:	aa02      	add	r2, sp, #8
 8007660:	6980      	ldr	r0, [r0, #24]
 8007662:	f842 1d04 	str.w	r1, [r2, #-4]!
 8007666:	210b      	movs	r1, #11
 8007668:	f7fd f928 	bl	80048bc <LCD_X_DisplayDriver>
 800766c:	b003      	add	sp, #12
 800766e:	f85d fb04 	ldr.w	pc, [sp], #4

08007672 <_Off>:
 8007672:	2200      	movs	r2, #0
 8007674:	2106      	movs	r1, #6
 8007676:	6980      	ldr	r0, [r0, #24]
 8007678:	f7fd b920 	b.w	80048bc <LCD_X_DisplayDriver>

0800767c <_On>:
 800767c:	2200      	movs	r2, #0
 800767e:	2105      	movs	r1, #5
 8007680:	6980      	ldr	r0, [r0, #24]
 8007682:	f7fd b91b 	b.w	80048bc <LCD_X_DisplayDriver>

08007686 <_SetOrg>:
 8007686:	e92d 43f7 	stmdb	sp!, {r0, r1, r2, r4, r5, r6, r7, r8, r9, lr}
 800768a:	2300      	movs	r3, #0
 800768c:	4607      	mov	r7, r0
 800768e:	6884      	ldr	r4, [r0, #8]
 8007690:	6980      	ldr	r0, [r0, #24]
 8007692:	9300      	str	r3, [sp, #0]
 8007694:	460d      	mov	r5, r1
 8007696:	4616      	mov	r6, r2
 8007698:	9301      	str	r3, [sp, #4]
 800769a:	f7ff fbbd 	bl	8006e18 <LCD_GetMirrorXEx>
 800769e:	4680      	mov	r8, r0
 80076a0:	69b8      	ldr	r0, [r7, #24]
 80076a2:	f7ff fbbc 	bl	8006e1e <LCD_GetMirrorYEx>
 80076a6:	4681      	mov	r9, r0
 80076a8:	69b8      	ldr	r0, [r7, #24]
 80076aa:	f7ff fbbb 	bl	8006e24 <LCD_GetSwapXYEx>
 80076ae:	0080      	lsls	r0, r0, #2
 80076b0:	ea40 0049 	orr.w	r0, r0, r9, lsl #1
 80076b4:	ea40 0008 	orr.w	r0, r0, r8
 80076b8:	2807      	cmp	r0, #7
 80076ba:	d826      	bhi.n	800770a <_SetOrg+0x84>
 80076bc:	e8df f000 	tbb	[pc, r0]
 80076c0:	0b0f0408 	.word	0x0b0f0408
 80076c4:	1b1f1519 	.word	0x1b1f1519
 80076c8:	69a3      	ldr	r3, [r4, #24]
 80076ca:	6921      	ldr	r1, [r4, #16]
 80076cc:	1a59      	subs	r1, r3, r1
 80076ce:	1b4d      	subs	r5, r1, r5
 80076d0:	9500      	str	r5, [sp, #0]
 80076d2:	9601      	str	r6, [sp, #4]
 80076d4:	e019      	b.n	800770a <_SetOrg+0x84>
 80076d6:	69a3      	ldr	r3, [r4, #24]
 80076d8:	6921      	ldr	r1, [r4, #16]
 80076da:	1a5b      	subs	r3, r3, r1
 80076dc:	1b5d      	subs	r5, r3, r5
 80076de:	69e3      	ldr	r3, [r4, #28]
 80076e0:	6962      	ldr	r2, [r4, #20]
 80076e2:	9500      	str	r5, [sp, #0]
 80076e4:	1a9a      	subs	r2, r3, r2
 80076e6:	1b96      	subs	r6, r2, r6
 80076e8:	e7f3      	b.n	80076d2 <_SetOrg+0x4c>
 80076ea:	69e3      	ldr	r3, [r4, #28]
 80076ec:	6962      	ldr	r2, [r4, #20]
 80076ee:	1a9a      	subs	r2, r3, r2
 80076f0:	1b96      	subs	r6, r2, r6
 80076f2:	9600      	str	r6, [sp, #0]
 80076f4:	e008      	b.n	8007708 <_SetOrg+0x82>
 80076f6:	69e3      	ldr	r3, [r4, #28]
 80076f8:	6962      	ldr	r2, [r4, #20]
 80076fa:	1a9b      	subs	r3, r3, r2
 80076fc:	1b9e      	subs	r6, r3, r6
 80076fe:	69a3      	ldr	r3, [r4, #24]
 8007700:	6921      	ldr	r1, [r4, #16]
 8007702:	9600      	str	r6, [sp, #0]
 8007704:	1a59      	subs	r1, r3, r1
 8007706:	1b4d      	subs	r5, r1, r5
 8007708:	9501      	str	r5, [sp, #4]
 800770a:	466a      	mov	r2, sp
 800770c:	2103      	movs	r1, #3
 800770e:	69b8      	ldr	r0, [r7, #24]
 8007710:	f7fd f8d4 	bl	80048bc <LCD_X_DisplayDriver>
 8007714:	b003      	add	sp, #12
 8007716:	e8bd 83f0 	ldmia.w	sp!, {r4, r5, r6, r7, r8, r9, pc}
	...

0800771c <_DrawBitmap>:
 800771c:	e92d 4ff0 	stmdb	sp!, {r4, r5, r6, r7, r8, r9, sl, fp, lr}
 8007720:	b089      	sub	sp, #36	; 0x24
 8007722:	4680      	mov	r8, r0
 8007724:	9813      	ldr	r0, [sp, #76]	; 0x4c
 8007726:	9103      	str	r1, [sp, #12]
 8007728:	469b      	mov	fp, r3
 800772a:	9b12      	ldr	r3, [sp, #72]	; 0x48
 800772c:	9300      	str	r3, [sp, #0]
 800772e:	2804      	cmp	r0, #4
 8007730:	9b14      	ldr	r3, [sp, #80]	; 0x50
 8007732:	9301      	str	r3, [sp, #4]
 8007734:	9202      	str	r2, [sp, #8]
 8007736:	9c15      	ldr	r4, [sp, #84]	; 0x54
 8007738:	f8dd a058 	ldr.w	sl, [sp, #88]	; 0x58
 800773c:	9d17      	ldr	r5, [sp, #92]	; 0x5c
 800773e:	f8d8 3008 	ldr.w	r3, [r8, #8]
 8007742:	d016      	beq.n	8007772 <_DrawBitmap+0x56>
 8007744:	dc0e      	bgt.n	8007764 <_DrawBitmap+0x48>
 8007746:	2801      	cmp	r0, #1
 8007748:	d01d      	beq.n	8007786 <_DrawBitmap+0x6a>
 800774a:	2802      	cmp	r0, #2
 800774c:	f040 8253 	bne.w	8007bf6 <_DrawBitmap+0x4da>
 8007750:	4aac      	ldr	r2, [pc, #688]	; (8007a04 <_DrawBitmap+0x2e8>)
 8007752:	6812      	ldr	r2, [r2, #0]
 8007754:	9204      	str	r2, [sp, #16]
 8007756:	9a03      	ldr	r2, [sp, #12]
 8007758:	4452      	add	r2, sl
 800775a:	2700      	movs	r7, #0
 800775c:	9203      	str	r2, [sp, #12]
 800775e:	f04f 0cc0 	mov.w	ip, #192	; 0xc0
 8007762:	e0bd      	b.n	80078e0 <_DrawBitmap+0x1c4>
 8007764:	2808      	cmp	r0, #8
 8007766:	f000 816e 	beq.w	8007a46 <_DrawBitmap+0x32a>
 800776a:	2820      	cmp	r0, #32
 800776c:	f000 8219 	beq.w	8007ba2 <_DrawBitmap+0x486>
 8007770:	e241      	b.n	8007bf6 <_DrawBitmap+0x4da>
 8007772:	4aa4      	ldr	r2, [pc, #656]	; (8007a04 <_DrawBitmap+0x2e8>)
 8007774:	6812      	ldr	r2, [r2, #0]
 8007776:	9204      	str	r2, [sp, #16]
 8007778:	9a03      	ldr	r2, [sp, #12]
 800777a:	4452      	add	r2, sl
 800777c:	2700      	movs	r7, #0
 800777e:	9203      	str	r2, [sp, #12]
 8007780:	f04f 0cf0 	mov.w	ip, #240	; 0xf0
 8007784:	e105      	b.n	8007992 <_DrawBitmap+0x276>
 8007786:	6bde      	ldr	r6, [r3, #60]	; 0x3c
 8007788:	b916      	cbnz	r6, 8007790 <_DrawBitmap+0x74>
 800778a:	f8dd 9008 	ldr.w	r9, [sp, #8]
 800778e:	e04d      	b.n	800782c <_DrawBitmap+0x110>
 8007790:	4b9c      	ldr	r3, [pc, #624]	; (8007a04 <_DrawBitmap+0x2e8>)
 8007792:	681b      	ldr	r3, [r3, #0]
 8007794:	7c1b      	ldrb	r3, [r3, #16]
 8007796:	07df      	lsls	r7, r3, #31
 8007798:	d4f7      	bmi.n	800778a <_DrawBitmap+0x6e>
 800779a:	9b01      	ldr	r3, [sp, #4]
 800779c:	9315      	str	r3, [sp, #84]	; 0x54
 800779e:	9b00      	ldr	r3, [sp, #0]
 80077a0:	9314      	str	r3, [sp, #80]	; 0x50
 80077a2:	9516      	str	r5, [sp, #88]	; 0x58
 80077a4:	f8cd b04c 	str.w	fp, [sp, #76]	; 0x4c
 80077a8:	f8cd a048 	str.w	sl, [sp, #72]	; 0x48
 80077ac:	f8d8 0018 	ldr.w	r0, [r8, #24]
 80077b0:	4623      	mov	r3, r4
 80077b2:	46b4      	mov	ip, r6
 80077b4:	b009      	add	sp, #36	; 0x24
 80077b6:	e8bd 4ff0 	ldmia.w	sp!, {r4, r5, r6, r7, r8, r9, sl, fp, lr}
 80077ba:	4760      	bx	ip
 80077bc:	9b03      	ldr	r3, [sp, #12]
 80077be:	f8d5 c004 	ldr.w	ip, [r5, #4]
 80077c2:	f8d8 6008 	ldr.w	r6, [r8, #8]
 80077c6:	eb03 070a 	add.w	r7, r3, sl
 80077ca:	4b8e      	ldr	r3, [pc, #568]	; (8007a04 <_DrawBitmap+0x2e8>)
 80077cc:	681b      	ldr	r3, [r3, #0]
 80077ce:	7c1b      	ldrb	r3, [r3, #16]
 80077d0:	f003 0303 	and.w	r3, r3, #3
 80077d4:	2b02      	cmp	r3, #2
 80077d6:	d030      	beq.n	800783a <_DrawBitmap+0x11e>
 80077d8:	2b03      	cmp	r3, #3
 80077da:	d04f      	beq.n	800787c <_DrawBitmap+0x160>
 80077dc:	2b01      	cmp	r3, #1
 80077de:	d04d      	beq.n	800787c <_DrawBitmap+0x160>
 80077e0:	4989      	ldr	r1, [pc, #548]	; (8007a08 <_DrawBitmap+0x2ec>)
 80077e2:	7823      	ldrb	r3, [r4, #0]
 80077e4:	6828      	ldr	r0, [r5, #0]
 80077e6:	5ccb      	ldrb	r3, [r1, r3]
 80077e8:	6a31      	ldr	r1, [r6, #32]
 80077ea:	fb01 7709 	mla	r7, r1, r9, r7
 80077ee:	6831      	ldr	r1, [r6, #0]
 80077f0:	f1ca 0208 	rsb	r2, sl, #8
 80077f4:	eb01 0787 	add.w	r7, r1, r7, lsl #2
 80077f8:	fa43 f30a 	asr.w	r3, r3, sl
 80077fc:	4659      	mov	r1, fp
 80077fe:	4626      	mov	r6, r4
 8007800:	f013 0f01 	tst.w	r3, #1
 8007804:	bf0c      	ite	eq
 8007806:	4686      	moveq	lr, r0
 8007808:	46e6      	movne	lr, ip
 800780a:	3a01      	subs	r2, #1
 800780c:	bf04      	itt	eq
 800780e:	7873      	ldrbeq	r3, [r6, #1]
 8007810:	4a7d      	ldreq	r2, [pc, #500]	; (8007a08 <_DrawBitmap+0x2ec>)
 8007812:	f847 eb04 	str.w	lr, [r7], #4
 8007816:	bf09      	itett	eq
 8007818:	5cd3      	ldrbeq	r3, [r2, r3]
 800781a:	085b      	lsrne	r3, r3, #1
 800781c:	3601      	addeq	r6, #1
 800781e:	2208      	moveq	r2, #8
 8007820:	3901      	subs	r1, #1
 8007822:	d1ed      	bne.n	8007800 <_DrawBitmap+0xe4>
 8007824:	9b01      	ldr	r3, [sp, #4]
 8007826:	f109 0901 	add.w	r9, r9, #1
 800782a:	441c      	add	r4, r3
 800782c:	9b02      	ldr	r3, [sp, #8]
 800782e:	9a00      	ldr	r2, [sp, #0]
 8007830:	ebc3 0309 	rsb	r3, r3, r9
 8007834:	429a      	cmp	r2, r3
 8007836:	dcc1      	bgt.n	80077bc <_DrawBitmap+0xa0>
 8007838:	e1dd      	b.n	8007bf6 <_DrawBitmap+0x4da>
 800783a:	7823      	ldrb	r3, [r4, #0]
 800783c:	4a72      	ldr	r2, [pc, #456]	; (8007a08 <_DrawBitmap+0x2ec>)
 800783e:	5cd2      	ldrb	r2, [r2, r3]
 8007840:	6a33      	ldr	r3, [r6, #32]
 8007842:	fb03 7709 	mla	r7, r3, r9, r7
 8007846:	6833      	ldr	r3, [r6, #0]
 8007848:	f1ca 0108 	rsb	r1, sl, #8
 800784c:	eb03 0787 	add.w	r7, r3, r7, lsl #2
 8007850:	fa42 f20a 	asr.w	r2, r2, sl
 8007854:	4623      	mov	r3, r4
 8007856:	2000      	movs	r0, #0
 8007858:	07d6      	lsls	r6, r2, #31
 800785a:	bf48      	it	mi
 800785c:	f847 c020 	strmi.w	ip, [r7, r0, lsl #2]
 8007860:	3901      	subs	r1, #1
 8007862:	bf04      	itt	eq
 8007864:	785a      	ldrbeq	r2, [r3, #1]
 8007866:	4968      	ldreq	r1, [pc, #416]	; (8007a08 <_DrawBitmap+0x2ec>)
 8007868:	f100 0001 	add.w	r0, r0, #1
 800786c:	bf09      	itett	eq
 800786e:	5c8a      	ldrbeq	r2, [r1, r2]
 8007870:	0852      	lsrne	r2, r2, #1
 8007872:	3301      	addeq	r3, #1
 8007874:	2108      	moveq	r1, #8
 8007876:	4583      	cmp	fp, r0
 8007878:	d1ee      	bne.n	8007858 <_DrawBitmap+0x13c>
 800787a:	e7d3      	b.n	8007824 <_DrawBitmap+0x108>
 800787c:	f8d8 3010 	ldr.w	r3, [r8, #16]
 8007880:	689b      	ldr	r3, [r3, #8]
 8007882:	4798      	blx	r3
 8007884:	eb07 030b 	add.w	r3, r7, fp
 8007888:	9006      	str	r0, [sp, #24]
 800788a:	f8cd b014 	str.w	fp, [sp, #20]
 800788e:	4656      	mov	r6, sl
 8007890:	9404      	str	r4, [sp, #16]
 8007892:	9307      	str	r3, [sp, #28]
 8007894:	9b07      	ldr	r3, [sp, #28]
 8007896:	9a05      	ldr	r2, [sp, #20]
 8007898:	1a9f      	subs	r7, r3, r2
 800789a:	9b04      	ldr	r3, [sp, #16]
 800789c:	781a      	ldrb	r2, [r3, #0]
 800789e:	2380      	movs	r3, #128	; 0x80
 80078a0:	4133      	asrs	r3, r6
 80078a2:	421a      	tst	r2, r3
 80078a4:	d00b      	beq.n	80078be <_DrawBitmap+0x1a2>
 80078a6:	464a      	mov	r2, r9
 80078a8:	4639      	mov	r1, r7
 80078aa:	4640      	mov	r0, r8
 80078ac:	f7ff fd22 	bl	80072f4 <_GetPixelIndex>
 80078b0:	9b06      	ldr	r3, [sp, #24]
 80078b2:	464a      	mov	r2, r9
 80078b4:	4043      	eors	r3, r0
 80078b6:	4639      	mov	r1, r7
 80078b8:	4640      	mov	r0, r8
 80078ba:	f7ff fd12 	bl	80072e2 <_SetPixelIndex>
 80078be:	3601      	adds	r6, #1
 80078c0:	2e08      	cmp	r6, #8
 80078c2:	bf02      	ittt	eq
 80078c4:	9b04      	ldreq	r3, [sp, #16]
 80078c6:	3301      	addeq	r3, #1
 80078c8:	9304      	streq	r3, [sp, #16]
 80078ca:	9b05      	ldr	r3, [sp, #20]
 80078cc:	bf08      	it	eq
 80078ce:	2600      	moveq	r6, #0
 80078d0:	3b01      	subs	r3, #1
 80078d2:	9305      	str	r3, [sp, #20]
 80078d4:	d1de      	bne.n	8007894 <_DrawBitmap+0x178>
 80078d6:	e7a5      	b.n	8007824 <_DrawBitmap+0x108>
 80078d8:	b935      	cbnz	r5, 80078e8 <_DrawBitmap+0x1cc>
 80078da:	9a01      	ldr	r2, [sp, #4]
 80078dc:	3701      	adds	r7, #1
 80078de:	4414      	add	r4, r2
 80078e0:	9a00      	ldr	r2, [sp, #0]
 80078e2:	4297      	cmp	r7, r2
 80078e4:	dbf8      	blt.n	80078d8 <_DrawBitmap+0x1bc>
 80078e6:	e186      	b.n	8007bf6 <_DrawBitmap+0x4da>
 80078e8:	9a02      	ldr	r2, [sp, #8]
 80078ea:	6a19      	ldr	r1, [r3, #32]
 80078ec:	9803      	ldr	r0, [sp, #12]
 80078ee:	f894 e000 	ldrb.w	lr, [r4]
 80078f2:	443a      	add	r2, r7
 80078f4:	fb01 0102 	mla	r1, r1, r2, r0
 80078f8:	681a      	ldr	r2, [r3, #0]
 80078fa:	eb02 0281 	add.w	r2, r2, r1, lsl #2
 80078fe:	9904      	ldr	r1, [sp, #16]
 8007900:	7c09      	ldrb	r1, [r1, #16]
 8007902:	f011 0103 	ands.w	r1, r1, #3
 8007906:	4690      	mov	r8, r2
 8007908:	d006      	beq.n	8007918 <_DrawBitmap+0x1fc>
 800790a:	2902      	cmp	r1, #2
 800790c:	d1e5      	bne.n	80078da <_DrawBitmap+0x1be>
 800790e:	4650      	mov	r0, sl
 8007910:	46a1      	mov	r9, r4
 8007912:	f04f 0800 	mov.w	r8, #0
 8007916:	e01b      	b.n	8007950 <_DrawBitmap+0x234>
 8007918:	4651      	mov	r1, sl
 800791a:	465e      	mov	r6, fp
 800791c:	46a1      	mov	r9, r4
 800791e:	f1c1 0003 	rsb	r0, r1, #3
 8007922:	0040      	lsls	r0, r0, #1
 8007924:	f1c0 0206 	rsb	r2, r0, #6
 8007928:	fa4c f202 	asr.w	r2, ip, r2
 800792c:	ea02 020e 	and.w	r2, r2, lr
 8007930:	40c2      	lsrs	r2, r0
 8007932:	3101      	adds	r1, #1
 8007934:	f855 2022 	ldr.w	r2, [r5, r2, lsl #2]
 8007938:	f848 2b04 	str.w	r2, [r8], #4
 800793c:	2904      	cmp	r1, #4
 800793e:	bf02      	ittt	eq
 8007940:	f899 e001 	ldrbeq.w	lr, [r9, #1]
 8007944:	2100      	moveq	r1, #0
 8007946:	f109 0901 	addeq.w	r9, r9, #1
 800794a:	3e01      	subs	r6, #1
 800794c:	d1e7      	bne.n	800791e <_DrawBitmap+0x202>
 800794e:	e7c4      	b.n	80078da <_DrawBitmap+0x1be>
 8007950:	f1c0 0603 	rsb	r6, r0, #3
 8007954:	0076      	lsls	r6, r6, #1
 8007956:	f1c6 0106 	rsb	r1, r6, #6
 800795a:	fa4c f101 	asr.w	r1, ip, r1
 800795e:	ea01 010e 	and.w	r1, r1, lr
 8007962:	40f1      	lsrs	r1, r6
 8007964:	f100 0001 	add.w	r0, r0, #1
 8007968:	bf1c      	itt	ne
 800796a:	f855 1021 	ldrne.w	r1, [r5, r1, lsl #2]
 800796e:	f842 1028 	strne.w	r1, [r2, r8, lsl #2]
 8007972:	2804      	cmp	r0, #4
 8007974:	f108 0801 	add.w	r8, r8, #1
 8007978:	bf02      	ittt	eq
 800797a:	f899 e001 	ldrbeq.w	lr, [r9, #1]
 800797e:	2000      	moveq	r0, #0
 8007980:	f109 0901 	addeq.w	r9, r9, #1
 8007984:	45d8      	cmp	r8, fp
 8007986:	d1e3      	bne.n	8007950 <_DrawBitmap+0x234>
 8007988:	e7a7      	b.n	80078da <_DrawBitmap+0x1be>
 800798a:	b935      	cbnz	r5, 800799a <_DrawBitmap+0x27e>
 800798c:	9a01      	ldr	r2, [sp, #4]
 800798e:	3701      	adds	r7, #1
 8007990:	4414      	add	r4, r2
 8007992:	9a00      	ldr	r2, [sp, #0]
 8007994:	4297      	cmp	r7, r2
 8007996:	dbf8      	blt.n	800798a <_DrawBitmap+0x26e>
 8007998:	e12d      	b.n	8007bf6 <_DrawBitmap+0x4da>
 800799a:	9a02      	ldr	r2, [sp, #8]
 800799c:	6a19      	ldr	r1, [r3, #32]
 800799e:	9803      	ldr	r0, [sp, #12]
 80079a0:	f894 e000 	ldrb.w	lr, [r4]
 80079a4:	443a      	add	r2, r7
 80079a6:	fb01 0102 	mla	r1, r1, r2, r0
 80079aa:	681a      	ldr	r2, [r3, #0]
 80079ac:	eb02 0281 	add.w	r2, r2, r1, lsl #2
 80079b0:	9904      	ldr	r1, [sp, #16]
 80079b2:	7c09      	ldrb	r1, [r1, #16]
 80079b4:	f011 0103 	ands.w	r1, r1, #3
 80079b8:	4690      	mov	r8, r2
 80079ba:	d006      	beq.n	80079ca <_DrawBitmap+0x2ae>
 80079bc:	2902      	cmp	r1, #2
 80079be:	d1e5      	bne.n	800798c <_DrawBitmap+0x270>
 80079c0:	4650      	mov	r0, sl
 80079c2:	46a1      	mov	r9, r4
 80079c4:	f04f 0800 	mov.w	r8, #0
 80079c8:	e020      	b.n	8007a0c <_DrawBitmap+0x2f0>
 80079ca:	4651      	mov	r1, sl
 80079cc:	465e      	mov	r6, fp
 80079ce:	46a1      	mov	r9, r4
 80079d0:	f1c1 0001 	rsb	r0, r1, #1
 80079d4:	0080      	lsls	r0, r0, #2
 80079d6:	f1c0 0204 	rsb	r2, r0, #4
 80079da:	fa4c f202 	asr.w	r2, ip, r2
 80079de:	ea02 020e 	and.w	r2, r2, lr
 80079e2:	40c2      	lsrs	r2, r0
 80079e4:	3101      	adds	r1, #1
 80079e6:	f855 2022 	ldr.w	r2, [r5, r2, lsl #2]
 80079ea:	f848 2b04 	str.w	r2, [r8], #4
 80079ee:	2902      	cmp	r1, #2
 80079f0:	bf02      	ittt	eq
 80079f2:	f899 e001 	ldrbeq.w	lr, [r9, #1]
 80079f6:	2100      	moveq	r1, #0
 80079f8:	f109 0901 	addeq.w	r9, r9, #1
 80079fc:	3e01      	subs	r6, #1
 80079fe:	d1e7      	bne.n	80079d0 <_DrawBitmap+0x2b4>
 8007a00:	e7c4      	b.n	800798c <_DrawBitmap+0x270>
 8007a02:	bf00      	nop
 8007a04:	20000098 	.word	0x20000098
 8007a08:	0800e188 	.word	0x0800e188
 8007a0c:	f1c0 0601 	rsb	r6, r0, #1
 8007a10:	00b6      	lsls	r6, r6, #2
 8007a12:	f1c6 0104 	rsb	r1, r6, #4
 8007a16:	fa4c f101 	asr.w	r1, ip, r1
 8007a1a:	ea01 010e 	and.w	r1, r1, lr
 8007a1e:	40f1      	lsrs	r1, r6
 8007a20:	f100 0001 	add.w	r0, r0, #1
 8007a24:	bf1c      	itt	ne
 8007a26:	f855 1021 	ldrne.w	r1, [r5, r1, lsl #2]
 8007a2a:	f842 1028 	strne.w	r1, [r2, r8, lsl #2]
 8007a2e:	2802      	cmp	r0, #2
 8007a30:	f108 0801 	add.w	r8, r8, #1
 8007a34:	bf02      	ittt	eq
 8007a36:	f899 e001 	ldrbeq.w	lr, [r9, #1]
 8007a3a:	2000      	moveq	r0, #0
 8007a3c:	f109 0901 	addeq.w	r9, r9, #1
 8007a40:	45c3      	cmp	fp, r8
 8007a42:	d1e3      	bne.n	8007a0c <_DrawBitmap+0x2f0>
 8007a44:	e7a2      	b.n	800798c <_DrawBitmap+0x270>
 8007a46:	6c1e      	ldr	r6, [r3, #64]	; 0x40
 8007a48:	4f6c      	ldr	r7, [pc, #432]	; (8007bfc <_DrawBitmap+0x4e0>)
 8007a4a:	b926      	cbnz	r6, 8007a56 <_DrawBitmap+0x33a>
 8007a4c:	f8d7 c000 	ldr.w	ip, [r7]
 8007a50:	f04f 0e00 	mov.w	lr, #0
 8007a54:	e019      	b.n	8007a8a <_DrawBitmap+0x36e>
 8007a56:	6838      	ldr	r0, [r7, #0]
 8007a58:	7c00      	ldrb	r0, [r0, #16]
 8007a5a:	0780      	lsls	r0, r0, #30
 8007a5c:	d4f6      	bmi.n	8007a4c <_DrawBitmap+0x330>
 8007a5e:	2d00      	cmp	r5, #0
 8007a60:	d0f4      	beq.n	8007a4c <_DrawBitmap+0x330>
 8007a62:	9b01      	ldr	r3, [sp, #4]
 8007a64:	9314      	str	r3, [sp, #80]	; 0x50
 8007a66:	9b00      	ldr	r3, [sp, #0]
 8007a68:	9313      	str	r3, [sp, #76]	; 0x4c
 8007a6a:	9515      	str	r5, [sp, #84]	; 0x54
 8007a6c:	f8cd b048 	str.w	fp, [sp, #72]	; 0x48
 8007a70:	f8d8 0018 	ldr.w	r0, [r8, #24]
 8007a74:	4623      	mov	r3, r4
 8007a76:	46b4      	mov	ip, r6
 8007a78:	b009      	add	sp, #36	; 0x24
 8007a7a:	e8bd 4ff0 	ldmia.w	sp!, {r4, r5, r6, r7, r8, r9, sl, fp, lr}
 8007a7e:	4760      	bx	ip
 8007a80:	b93d      	cbnz	r5, 8007a92 <_DrawBitmap+0x376>
 8007a82:	9a01      	ldr	r2, [sp, #4]
 8007a84:	f10e 0e01 	add.w	lr, lr, #1
 8007a88:	4414      	add	r4, r2
 8007a8a:	9a00      	ldr	r2, [sp, #0]
 8007a8c:	4596      	cmp	lr, r2
 8007a8e:	dbf7      	blt.n	8007a80 <_DrawBitmap+0x364>
 8007a90:	e0b1      	b.n	8007bf6 <_DrawBitmap+0x4da>
 8007a92:	9a02      	ldr	r2, [sp, #8]
 8007a94:	6a19      	ldr	r1, [r3, #32]
 8007a96:	9803      	ldr	r0, [sp, #12]
 8007a98:	4472      	add	r2, lr
 8007a9a:	fb01 0202 	mla	r2, r1, r2, r0
 8007a9e:	6819      	ldr	r1, [r3, #0]
 8007aa0:	eb01 0282 	add.w	r2, r1, r2, lsl #2
 8007aa4:	f89c 1010 	ldrb.w	r1, [ip, #16]
 8007aa8:	f011 0103 	ands.w	r1, r1, #3
 8007aac:	d003      	beq.n	8007ab6 <_DrawBitmap+0x39a>
 8007aae:	2902      	cmp	r1, #2
 8007ab0:	d1e7      	bne.n	8007a82 <_DrawBitmap+0x366>
 8007ab2:	2000      	movs	r0, #0
 8007ab4:	e070      	b.n	8007b98 <_DrawBitmap+0x47c>
 8007ab6:	4620      	mov	r0, r4
 8007ab8:	4659      	mov	r1, fp
 8007aba:	2907      	cmp	r1, #7
 8007abc:	f100 0708 	add.w	r7, r0, #8
 8007ac0:	f102 0620 	add.w	r6, r2, #32
 8007ac4:	dd33      	ble.n	8007b2e <_DrawBitmap+0x412>
 8007ac6:	f817 2c08 	ldrb.w	r2, [r7, #-8]
 8007aca:	f855 2022 	ldr.w	r2, [r5, r2, lsl #2]
 8007ace:	f846 2c20 	str.w	r2, [r6, #-32]
 8007ad2:	f817 2c07 	ldrb.w	r2, [r7, #-7]
 8007ad6:	f855 2022 	ldr.w	r2, [r5, r2, lsl #2]
 8007ada:	f846 2c1c 	str.w	r2, [r6, #-28]
 8007ade:	f817 2c06 	ldrb.w	r2, [r7, #-6]
 8007ae2:	f855 2022 	ldr.w	r2, [r5, r2, lsl #2]
 8007ae6:	f846 2c18 	str.w	r2, [r6, #-24]
 8007aea:	f817 2c05 	ldrb.w	r2, [r7, #-5]
 8007aee:	f855 2022 	ldr.w	r2, [r5, r2, lsl #2]
 8007af2:	f846 2c14 	str.w	r2, [r6, #-20]
 8007af6:	f817 2c04 	ldrb.w	r2, [r7, #-4]
 8007afa:	f855 2022 	ldr.w	r2, [r5, r2, lsl #2]
 8007afe:	f846 2c10 	str.w	r2, [r6, #-16]
 8007b02:	f817 2c03 	ldrb.w	r2, [r7, #-3]
 8007b06:	f855 2022 	ldr.w	r2, [r5, r2, lsl #2]
 8007b0a:	f846 2c0c 	str.w	r2, [r6, #-12]
 8007b0e:	f817 2c02 	ldrb.w	r2, [r7, #-2]
 8007b12:	f855 2022 	ldr.w	r2, [r5, r2, lsl #2]
 8007b16:	f846 2c08 	str.w	r2, [r6, #-8]
 8007b1a:	f817 2c01 	ldrb.w	r2, [r7, #-1]
 8007b1e:	f855 2022 	ldr.w	r2, [r5, r2, lsl #2]
 8007b22:	f846 2c04 	str.w	r2, [r6, #-4]
 8007b26:	3908      	subs	r1, #8
 8007b28:	4632      	mov	r2, r6
 8007b2a:	4638      	mov	r0, r7
 8007b2c:	e7c5      	b.n	8007aba <_DrawBitmap+0x39e>
 8007b2e:	2903      	cmp	r1, #3
 8007b30:	4616      	mov	r6, r2
 8007b32:	4607      	mov	r7, r0
 8007b34:	f102 0210 	add.w	r2, r2, #16
 8007b38:	f100 0004 	add.w	r0, r0, #4
 8007b3c:	dd19      	ble.n	8007b72 <_DrawBitmap+0x456>
 8007b3e:	f810 6c04 	ldrb.w	r6, [r0, #-4]
 8007b42:	f855 6026 	ldr.w	r6, [r5, r6, lsl #2]
 8007b46:	f842 6c10 	str.w	r6, [r2, #-16]
 8007b4a:	f810 6c03 	ldrb.w	r6, [r0, #-3]
 8007b4e:	f855 6026 	ldr.w	r6, [r5, r6, lsl #2]
 8007b52:	f842 6c0c 	str.w	r6, [r2, #-12]
 8007b56:	f810 6c02 	ldrb.w	r6, [r0, #-2]
 8007b5a:	f855 6026 	ldr.w	r6, [r5, r6, lsl #2]
 8007b5e:	f842 6c08 	str.w	r6, [r2, #-8]
 8007b62:	f810 6c01 	ldrb.w	r6, [r0, #-1]
 8007b66:	f855 6026 	ldr.w	r6, [r5, r6, lsl #2]
 8007b6a:	f842 6c04 	str.w	r6, [r2, #-4]
 8007b6e:	3904      	subs	r1, #4
 8007b70:	e7dd      	b.n	8007b2e <_DrawBitmap+0x412>
 8007b72:	3f01      	subs	r7, #1
 8007b74:	eb06 0181 	add.w	r1, r6, r1, lsl #2
 8007b78:	42b1      	cmp	r1, r6
 8007b7a:	d082      	beq.n	8007a82 <_DrawBitmap+0x366>
 8007b7c:	f817 2f01 	ldrb.w	r2, [r7, #1]!
 8007b80:	f855 2022 	ldr.w	r2, [r5, r2, lsl #2]
 8007b84:	f846 2b04 	str.w	r2, [r6], #4
 8007b88:	e7f6      	b.n	8007b78 <_DrawBitmap+0x45c>
 8007b8a:	5c21      	ldrb	r1, [r4, r0]
 8007b8c:	b119      	cbz	r1, 8007b96 <_DrawBitmap+0x47a>
 8007b8e:	f855 1021 	ldr.w	r1, [r5, r1, lsl #2]
 8007b92:	f842 1020 	str.w	r1, [r2, r0, lsl #2]
 8007b96:	3001      	adds	r0, #1
 8007b98:	ebc0 010b 	rsb	r1, r0, fp
 8007b9c:	2900      	cmp	r1, #0
 8007b9e:	dcf4      	bgt.n	8007b8a <_DrawBitmap+0x46e>
 8007ba0:	e76f      	b.n	8007a82 <_DrawBitmap+0x366>
 8007ba2:	6cdd      	ldr	r5, [r3, #76]	; 0x4c
 8007ba4:	b90d      	cbnz	r5, 8007baa <_DrawBitmap+0x48e>
 8007ba6:	462a      	mov	r2, r5
 8007ba8:	e017      	b.n	8007bda <_DrawBitmap+0x4be>
 8007baa:	9b01      	ldr	r3, [sp, #4]
 8007bac:	9314      	str	r3, [sp, #80]	; 0x50
 8007bae:	9b00      	ldr	r3, [sp, #0]
 8007bb0:	9313      	str	r3, [sp, #76]	; 0x4c
 8007bb2:	f8cd b048 	str.w	fp, [sp, #72]	; 0x48
 8007bb6:	f8d8 0018 	ldr.w	r0, [r8, #24]
 8007bba:	4623      	mov	r3, r4
 8007bbc:	46ac      	mov	ip, r5
 8007bbe:	b009      	add	sp, #36	; 0x24
 8007bc0:	e8bd 4ff0 	ldmia.w	sp!, {r4, r5, r6, r7, r8, r9, sl, fp, lr}
 8007bc4:	4760      	bx	ip
 8007bc6:	f854 5021 	ldr.w	r5, [r4, r1, lsl #2]
 8007bca:	f840 5021 	str.w	r5, [r0, r1, lsl #2]
 8007bce:	3101      	adds	r1, #1
 8007bd0:	4559      	cmp	r1, fp
 8007bd2:	d1f8      	bne.n	8007bc6 <_DrawBitmap+0x4aa>
 8007bd4:	9901      	ldr	r1, [sp, #4]
 8007bd6:	3201      	adds	r2, #1
 8007bd8:	440c      	add	r4, r1
 8007bda:	9900      	ldr	r1, [sp, #0]
 8007bdc:	428a      	cmp	r2, r1
 8007bde:	da0a      	bge.n	8007bf6 <_DrawBitmap+0x4da>
 8007be0:	9902      	ldr	r1, [sp, #8]
 8007be2:	6a18      	ldr	r0, [r3, #32]
 8007be4:	9d03      	ldr	r5, [sp, #12]
 8007be6:	4411      	add	r1, r2
 8007be8:	fb00 5101 	mla	r1, r0, r1, r5
 8007bec:	6818      	ldr	r0, [r3, #0]
 8007bee:	eb00 0081 	add.w	r0, r0, r1, lsl #2
 8007bf2:	2100      	movs	r1, #0
 8007bf4:	e7e7      	b.n	8007bc6 <_DrawBitmap+0x4aa>
 8007bf6:	b009      	add	sp, #36	; 0x24
 8007bf8:	e8bd 8ff0 	ldmia.w	sp!, {r4, r5, r6, r7, r8, r9, sl, fp, pc}
 8007bfc:	20000098 	.word	0x20000098

08007c00 <_InitOnce.isra.4>:
 8007c00:	b538      	push	{r3, r4, r5, lr}
 8007c02:	6805      	ldr	r5, [r0, #0]
 8007c04:	4604      	mov	r4, r0
 8007c06:	b93d      	cbnz	r5, 8007c18 <_InitOnce.isra.4+0x18>
 8007c08:	2050      	movs	r0, #80	; 0x50
 8007c0a:	f7fd fceb 	bl	80055e4 <GUI_ALLOC_GetFixedBlock>
 8007c0e:	2250      	movs	r2, #80	; 0x50
 8007c10:	6020      	str	r0, [r4, #0]
 8007c12:	4629      	mov	r1, r5
 8007c14:	f7fe fd7a 	bl	800670c <GUI__memset>
 8007c18:	6820      	ldr	r0, [r4, #0]
 8007c1a:	fab0 f080 	clz	r0, r0
 8007c1e:	0940      	lsrs	r0, r0, #5
 8007c20:	bd38      	pop	{r3, r4, r5, pc}

08007c22 <_SetDevFunc>:
 8007c22:	b570      	push	{r4, r5, r6, lr}
 8007c24:	4606      	mov	r6, r0
 8007c26:	3008      	adds	r0, #8
 8007c28:	460d      	mov	r5, r1
 8007c2a:	4614      	mov	r4, r2
 8007c2c:	f7ff ffe8 	bl	8007c00 <_InitOnce.isra.4>
 8007c30:	68b3      	ldr	r3, [r6, #8]
 8007c32:	b1db      	cbz	r3, 8007c6c <_SetDevFunc+0x4a>
 8007c34:	2d21      	cmp	r5, #33	; 0x21
 8007c36:	d012      	beq.n	8007c5e <_SetDevFunc+0x3c>
 8007c38:	dc07      	bgt.n	8007c4a <_SetDevFunc+0x28>
 8007c3a:	2d19      	cmp	r5, #25
 8007c3c:	d00d      	beq.n	8007c5a <_SetDevFunc+0x38>
 8007c3e:	2d20      	cmp	r5, #32
 8007c40:	d00f      	beq.n	8007c62 <_SetDevFunc+0x40>
 8007c42:	2d03      	cmp	r5, #3
 8007c44:	d112      	bne.n	8007c6c <_SetDevFunc+0x4a>
 8007c46:	649c      	str	r4, [r3, #72]	; 0x48
 8007c48:	bd70      	pop	{r4, r5, r6, pc}
 8007c4a:	2d25      	cmp	r5, #37	; 0x25
 8007c4c:	d00b      	beq.n	8007c66 <_SetDevFunc+0x44>
 8007c4e:	2d28      	cmp	r5, #40	; 0x28
 8007c50:	d00b      	beq.n	8007c6a <_SetDevFunc+0x48>
 8007c52:	2d23      	cmp	r5, #35	; 0x23
 8007c54:	d10a      	bne.n	8007c6c <_SetDevFunc+0x4a>
 8007c56:	645c      	str	r4, [r3, #68]	; 0x44
 8007c58:	bd70      	pop	{r4, r5, r6, pc}
 8007c5a:	635c      	str	r4, [r3, #52]	; 0x34
 8007c5c:	bd70      	pop	{r4, r5, r6, pc}
 8007c5e:	639c      	str	r4, [r3, #56]	; 0x38
 8007c60:	bd70      	pop	{r4, r5, r6, pc}
 8007c62:	63dc      	str	r4, [r3, #60]	; 0x3c
 8007c64:	bd70      	pop	{r4, r5, r6, pc}
 8007c66:	641c      	str	r4, [r3, #64]	; 0x40
 8007c68:	bd70      	pop	{r4, r5, r6, pc}
 8007c6a:	64dc      	str	r4, [r3, #76]	; 0x4c
 8007c6c:	bd70      	pop	{r4, r5, r6, pc}
	...

08007c70 <_CopyBuffer>:
 8007c70:	e92d 41f0 	stmdb	sp!, {r4, r5, r6, r7, r8, lr}
 8007c74:	4606      	mov	r6, r0
 8007c76:	3008      	adds	r0, #8
 8007c78:	460f      	mov	r7, r1
 8007c7a:	4690      	mov	r8, r2
 8007c7c:	f7ff ffc0 	bl	8007c00 <_InitOnce.isra.4>
 8007c80:	68b4      	ldr	r4, [r6, #8]
 8007c82:	b31c      	cbz	r4, 8007ccc <_CopyBuffer+0x5c>
 8007c84:	4547      	cmp	r7, r8
 8007c86:	d021      	beq.n	8007ccc <_CopyBuffer+0x5c>
 8007c88:	68f3      	ldr	r3, [r6, #12]
 8007c8a:	2108      	movs	r1, #8
 8007c8c:	6a9b      	ldr	r3, [r3, #40]	; 0x28
 8007c8e:	4630      	mov	r0, r6
 8007c90:	4798      	blx	r3
 8007c92:	69a2      	ldr	r2, [r4, #24]
 8007c94:	6963      	ldr	r3, [r4, #20]
 8007c96:	4353      	muls	r3, r2
 8007c98:	4358      	muls	r0, r3
 8007c9a:	68a3      	ldr	r3, [r4, #8]
 8007c9c:	08c2      	lsrs	r2, r0, #3
 8007c9e:	b123      	cbz	r3, 8007caa <_CopyBuffer+0x3a>
 8007ca0:	f853 1027 	ldr.w	r1, [r3, r7, lsl #2]
 8007ca4:	f853 5028 	ldr.w	r5, [r3, r8, lsl #2]
 8007ca8:	e004      	b.n	8007cb4 <_CopyBuffer+0x44>
 8007caa:	6865      	ldr	r5, [r4, #4]
 8007cac:	fb02 5107 	mla	r1, r2, r7, r5
 8007cb0:	fb02 5508 	mla	r5, r2, r8, r5
 8007cb4:	6ba3      	ldr	r3, [r4, #56]	; 0x38
 8007cb6:	b123      	cbz	r3, 8007cc2 <_CopyBuffer+0x52>
 8007cb8:	4642      	mov	r2, r8
 8007cba:	4639      	mov	r1, r7
 8007cbc:	69b0      	ldr	r0, [r6, #24]
 8007cbe:	4798      	blx	r3
 8007cc0:	e003      	b.n	8007cca <_CopyBuffer+0x5a>
 8007cc2:	4b03      	ldr	r3, [pc, #12]	; (8007cd0 <_CopyBuffer+0x60>)
 8007cc4:	4628      	mov	r0, r5
 8007cc6:	681b      	ldr	r3, [r3, #0]
 8007cc8:	4798      	blx	r3
 8007cca:	6025      	str	r5, [r4, #0]
 8007ccc:	e8bd 81f0 	ldmia.w	sp!, {r4, r5, r6, r7, r8, pc}
 8007cd0:	200000a4 	.word	0x200000a4

08007cd4 <_GetPos>:
 8007cd4:	b570      	push	{r4, r5, r6, lr}
 8007cd6:	4604      	mov	r4, r0
 8007cd8:	3008      	adds	r0, #8
 8007cda:	460e      	mov	r6, r1
 8007cdc:	4615      	mov	r5, r2
 8007cde:	f7ff ff8f 	bl	8007c00 <_InitOnce.isra.4>
 8007ce2:	68a3      	ldr	r3, [r4, #8]
 8007ce4:	b11b      	cbz	r3, 8007cee <_GetPos+0x1a>
 8007ce6:	6a5a      	ldr	r2, [r3, #36]	; 0x24
 8007ce8:	6032      	str	r2, [r6, #0]
 8007cea:	6a9b      	ldr	r3, [r3, #40]	; 0x28
 8007cec:	602b      	str	r3, [r5, #0]
 8007cee:	bd70      	pop	{r4, r5, r6, pc}

08007cf0 <_SetVRAM_BufferPTR>:
 8007cf0:	b538      	push	{r3, r4, r5, lr}
 8007cf2:	4605      	mov	r5, r0
 8007cf4:	3008      	adds	r0, #8
 8007cf6:	460c      	mov	r4, r1
 8007cf8:	f7ff ff82 	bl	8007c00 <_InitOnce.isra.4>
 8007cfc:	68ab      	ldr	r3, [r5, #8]
 8007cfe:	b113      	cbz	r3, 8007d06 <_SetVRAM_BufferPTR+0x16>
 8007d00:	6822      	ldr	r2, [r4, #0]
 8007d02:	609c      	str	r4, [r3, #8]
 8007d04:	601a      	str	r2, [r3, #0]
 8007d06:	bd38      	pop	{r3, r4, r5, pc}

08007d08 <_ShowBuffer>:
 8007d08:	b537      	push	{r0, r1, r2, r4, r5, lr}
 8007d0a:	4604      	mov	r4, r0
 8007d0c:	2300      	movs	r3, #0
 8007d0e:	3008      	adds	r0, #8
 8007d10:	9301      	str	r3, [sp, #4]
 8007d12:	460d      	mov	r5, r1
 8007d14:	f7ff ff74 	bl	8007c00 <_InitOnce.isra.4>
 8007d18:	68a3      	ldr	r3, [r4, #8]
 8007d1a:	b133      	cbz	r3, 8007d2a <_ShowBuffer+0x22>
 8007d1c:	aa02      	add	r2, sp, #8
 8007d1e:	210e      	movs	r1, #14
 8007d20:	f842 5d04 	str.w	r5, [r2, #-4]!
 8007d24:	69a0      	ldr	r0, [r4, #24]
 8007d26:	f7fc fdc9 	bl	80048bc <LCD_X_DisplayDriver>
 8007d2a:	b003      	add	sp, #12
 8007d2c:	bd30      	pop	{r4, r5, pc}

08007d2e <_Init>:
 8007d2e:	b538      	push	{r3, r4, r5, lr}
 8007d30:	4604      	mov	r4, r0
 8007d32:	3008      	adds	r0, #8
 8007d34:	f7ff ff64 	bl	8007c00 <_InitOnce.isra.4>
 8007d38:	2200      	movs	r2, #0
 8007d3a:	4605      	mov	r5, r0
 8007d3c:	2101      	movs	r1, #1
 8007d3e:	69a0      	ldr	r0, [r4, #24]
 8007d40:	f7fc fdbc 	bl	80048bc <LCD_X_DisplayDriver>
 8007d44:	4328      	orrs	r0, r5
 8007d46:	bd38      	pop	{r3, r4, r5, pc}

08007d48 <_SetVis>:
 8007d48:	b537      	push	{r0, r1, r2, r4, r5, lr}
 8007d4a:	4604      	mov	r4, r0
 8007d4c:	2300      	movs	r3, #0
 8007d4e:	3008      	adds	r0, #8
 8007d50:	9301      	str	r3, [sp, #4]
 8007d52:	460d      	mov	r5, r1
 8007d54:	f7ff ff54 	bl	8007c00 <_InitOnce.isra.4>
 8007d58:	68a3      	ldr	r3, [r4, #8]
 8007d5a:	b13b      	cbz	r3, 8007d6c <_SetVis+0x24>
 8007d5c:	aa02      	add	r2, sp, #8
 8007d5e:	631d      	str	r5, [r3, #48]	; 0x30
 8007d60:	f842 5d04 	str.w	r5, [r2, #-4]!
 8007d64:	2109      	movs	r1, #9
 8007d66:	69a0      	ldr	r0, [r4, #24]
 8007d68:	f7fc fda8 	bl	80048bc <LCD_X_DisplayDriver>
 8007d6c:	b003      	add	sp, #12
 8007d6e:	bd30      	pop	{r4, r5, pc}

08007d70 <_SetAlpha>:
 8007d70:	b537      	push	{r0, r1, r2, r4, r5, lr}
 8007d72:	4604      	mov	r4, r0
 8007d74:	2300      	movs	r3, #0
 8007d76:	3008      	adds	r0, #8
 8007d78:	9301      	str	r3, [sp, #4]
 8007d7a:	460d      	mov	r5, r1
 8007d7c:	f7ff ff40 	bl	8007c00 <_InitOnce.isra.4>
 8007d80:	68a3      	ldr	r3, [r4, #8]
 8007d82:	b13b      	cbz	r3, 8007d94 <_SetAlpha+0x24>
 8007d84:	aa02      	add	r2, sp, #8
 8007d86:	62dd      	str	r5, [r3, #44]	; 0x2c
 8007d88:	f842 5d04 	str.w	r5, [r2, #-4]!
 8007d8c:	210a      	movs	r1, #10
 8007d8e:	69a0      	ldr	r0, [r4, #24]
 8007d90:	f7fc fd94 	bl	80048bc <LCD_X_DisplayDriver>
 8007d94:	b003      	add	sp, #12
 8007d96:	bd30      	pop	{r4, r5, pc}

08007d98 <_SetVRAMAddr>:
 8007d98:	b537      	push	{r0, r1, r2, r4, r5, lr}
 8007d9a:	4604      	mov	r4, r0
 8007d9c:	2300      	movs	r3, #0
 8007d9e:	3008      	adds	r0, #8
 8007da0:	9301      	str	r3, [sp, #4]
 8007da2:	460d      	mov	r5, r1
 8007da4:	f7ff ff2c 	bl	8007c00 <_InitOnce.isra.4>
 8007da8:	68a3      	ldr	r3, [r4, #8]
 8007daa:	b143      	cbz	r3, 8007dbe <_SetVRAMAddr+0x26>
 8007dac:	aa02      	add	r2, sp, #8
 8007dae:	601d      	str	r5, [r3, #0]
 8007db0:	605d      	str	r5, [r3, #4]
 8007db2:	f842 5d04 	str.w	r5, [r2, #-4]!
 8007db6:	2102      	movs	r1, #2
 8007db8:	69a0      	ldr	r0, [r4, #24]
 8007dba:	f7fc fd7f 	bl	80048bc <LCD_X_DisplayDriver>
 8007dbe:	b003      	add	sp, #12
 8007dc0:	bd30      	pop	{r4, r5, pc}

08007dc2 <_SetPos>:
 8007dc2:	e92d 4ff0 	stmdb	sp!, {r4, r5, r6, r7, r8, r9, sl, fp, lr}
 8007dc6:	b089      	sub	sp, #36	; 0x24
 8007dc8:	4606      	mov	r6, r0
 8007dca:	460d      	mov	r5, r1
 8007dcc:	4614      	mov	r4, r2
 8007dce:	2100      	movs	r1, #0
 8007dd0:	2218      	movs	r2, #24
 8007dd2:	a802      	add	r0, sp, #8
 8007dd4:	f003 fb46 	bl	800b464 <memset>
 8007dd8:	f106 0008 	add.w	r0, r6, #8
 8007ddc:	f7ff ff10 	bl	8007c00 <_InitOnce.isra.4>
 8007de0:	68b7      	ldr	r7, [r6, #8]
 8007de2:	2f00      	cmp	r7, #0
 8007de4:	d069      	beq.n	8007eba <_SetPos+0xf8>
 8007de6:	f8d7 b048 	ldr.w	fp, [r7, #72]	; 0x48
 8007dea:	f1bb 0f00 	cmp.w	fp, #0
 8007dee:	d004      	beq.n	8007dfa <_SetPos+0x38>
 8007df0:	4622      	mov	r2, r4
 8007df2:	4629      	mov	r1, r5
 8007df4:	69b0      	ldr	r0, [r6, #24]
 8007df6:	47d8      	blx	fp
 8007df8:	e05f      	b.n	8007eba <_SetPos+0xf8>
 8007dfa:	627d      	str	r5, [r7, #36]	; 0x24
 8007dfc:	62bc      	str	r4, [r7, #40]	; 0x28
 8007dfe:	f7ff f86d 	bl	8006edc <LCD_GetXSizeDisplay>
 8007e02:	4681      	mov	r9, r0
 8007e04:	f7ff f870 	bl	8006ee8 <LCD_GetYSizeDisplay>
 8007e08:	68f2      	ldr	r2, [r6, #12]
 8007e0a:	697b      	ldr	r3, [r7, #20]
 8007e0c:	6a92      	ldr	r2, [r2, #40]	; 0x28
 8007e0e:	f8d7 a010 	ldr.w	sl, [r7, #16]
 8007e12:	9301      	str	r3, [sp, #4]
 8007e14:	2108      	movs	r1, #8
 8007e16:	4680      	mov	r8, r0
 8007e18:	4630      	mov	r0, r6
 8007e1a:	4790      	blx	r2
 8007e1c:	2d00      	cmp	r5, #0
 8007e1e:	f100 0007 	add.w	r0, r0, #7
 8007e22:	f04f 0208 	mov.w	r2, #8
 8007e26:	eb05 010a 	add.w	r1, r5, sl
 8007e2a:	fb90 f0f2 	sdiv	r0, r0, r2
 8007e2e:	9b01      	ldr	r3, [sp, #4]
 8007e30:	9006      	str	r0, [sp, #24]
 8007e32:	da07      	bge.n	8007e44 <_SetPos+0x82>
 8007e34:	9a07      	ldr	r2, [sp, #28]
 8007e36:	f8cd b008 	str.w	fp, [sp, #8]
 8007e3a:	fb00 2015 	mls	r0, r0, r5, r2
 8007e3e:	9007      	str	r0, [sp, #28]
 8007e40:	9104      	str	r1, [sp, #16]
 8007e42:	e007      	b.n	8007e54 <_SetPos+0x92>
 8007e44:	4589      	cmp	r9, r1
 8007e46:	9502      	str	r5, [sp, #8]
 8007e48:	bfb6      	itet	lt
 8007e4a:	ebc5 0509 	rsblt	r5, r5, r9
 8007e4e:	f8cd a010 	strge.w	sl, [sp, #16]
 8007e52:	9504      	strlt	r5, [sp, #16]
 8007e54:	2c00      	cmp	r4, #0
 8007e56:	eb04 0203 	add.w	r2, r4, r3
 8007e5a:	da09      	bge.n	8007e70 <_SetPos+0xae>
 8007e5c:	9b06      	ldr	r3, [sp, #24]
 8007e5e:	9205      	str	r2, [sp, #20]
 8007e60:	435c      	muls	r4, r3
 8007e62:	9b07      	ldr	r3, [sp, #28]
 8007e64:	fb0a 3414 	mls	r4, sl, r4, r3
 8007e68:	2300      	movs	r3, #0
 8007e6a:	9407      	str	r4, [sp, #28]
 8007e6c:	9303      	str	r3, [sp, #12]
 8007e6e:	e006      	b.n	8007e7e <_SetPos+0xbc>
 8007e70:	4590      	cmp	r8, r2
 8007e72:	9403      	str	r4, [sp, #12]
 8007e74:	bfb6      	itet	lt
 8007e76:	ebc4 0408 	rsblt	r4, r4, r8
 8007e7a:	9305      	strge	r3, [sp, #20]
 8007e7c:	9405      	strlt	r4, [sp, #20]
 8007e7e:	9b04      	ldr	r3, [sp, #16]
 8007e80:	2b00      	cmp	r3, #0
 8007e82:	6b3b      	ldr	r3, [r7, #48]	; 0x30
 8007e84:	dd08      	ble.n	8007e98 <_SetPos+0xd6>
 8007e86:	9a05      	ldr	r2, [sp, #20]
 8007e88:	2a00      	cmp	r2, #0
 8007e8a:	dd05      	ble.n	8007e98 <_SetPos+0xd6>
 8007e8c:	9a02      	ldr	r2, [sp, #8]
 8007e8e:	4591      	cmp	r9, r2
 8007e90:	dd02      	ble.n	8007e98 <_SetPos+0xd6>
 8007e92:	9a03      	ldr	r2, [sp, #12]
 8007e94:	4590      	cmp	r8, r2
 8007e96:	dc06      	bgt.n	8007ea6 <_SetPos+0xe4>
 8007e98:	2b01      	cmp	r3, #1
 8007e9a:	d10e      	bne.n	8007eba <_SetPos+0xf8>
 8007e9c:	2100      	movs	r1, #0
 8007e9e:	4630      	mov	r0, r6
 8007ea0:	f7ff ff52 	bl	8007d48 <_SetVis>
 8007ea4:	e009      	b.n	8007eba <_SetPos+0xf8>
 8007ea6:	b91b      	cbnz	r3, 8007eb0 <_SetPos+0xee>
 8007ea8:	2101      	movs	r1, #1
 8007eaa:	4630      	mov	r0, r6
 8007eac:	f7ff ff4c 	bl	8007d48 <_SetVis>
 8007eb0:	aa02      	add	r2, sp, #8
 8007eb2:	2108      	movs	r1, #8
 8007eb4:	69b0      	ldr	r0, [r6, #24]
 8007eb6:	f7fc fd01 	bl	80048bc <LCD_X_DisplayDriver>
 8007eba:	b009      	add	sp, #36	; 0x24
 8007ebc:	e8bd 8ff0 	ldmia.w	sp!, {r4, r5, r6, r7, r8, r9, sl, fp, pc}

08007ec0 <_SetSize>:
 8007ec0:	b5f7      	push	{r0, r1, r2, r4, r5, r6, r7, lr}
 8007ec2:	4605      	mov	r5, r0
 8007ec4:	2300      	movs	r3, #0
 8007ec6:	3008      	adds	r0, #8
 8007ec8:	460f      	mov	r7, r1
 8007eca:	4616      	mov	r6, r2
 8007ecc:	9300      	str	r3, [sp, #0]
 8007ece:	9301      	str	r3, [sp, #4]
 8007ed0:	f7ff fe96 	bl	8007c00 <_InitOnce.isra.4>
 8007ed4:	68ac      	ldr	r4, [r5, #8]
 8007ed6:	b194      	cbz	r4, 8007efe <_SetSize+0x3e>
 8007ed8:	6a23      	ldr	r3, [r4, #32]
 8007eda:	b93b      	cbnz	r3, 8007eec <_SetSize+0x2c>
 8007edc:	69a8      	ldr	r0, [r5, #24]
 8007ede:	f7fe ffa1 	bl	8006e24 <LCD_GetSwapXYEx>
 8007ee2:	2800      	cmp	r0, #0
 8007ee4:	bf0c      	ite	eq
 8007ee6:	4638      	moveq	r0, r7
 8007ee8:	4630      	movne	r0, r6
 8007eea:	6220      	str	r0, [r4, #32]
 8007eec:	6127      	str	r7, [r4, #16]
 8007eee:	6166      	str	r6, [r4, #20]
 8007ef0:	466a      	mov	r2, sp
 8007ef2:	2107      	movs	r1, #7
 8007ef4:	69a8      	ldr	r0, [r5, #24]
 8007ef6:	9700      	str	r7, [sp, #0]
 8007ef8:	9601      	str	r6, [sp, #4]
 8007efa:	f7fc fcdf 	bl	80048bc <LCD_X_DisplayDriver>
 8007efe:	b003      	add	sp, #12
 8007f00:	bdf0      	pop	{r4, r5, r6, r7, pc}

08007f02 <_SetVSize>:
 8007f02:	b5f8      	push	{r3, r4, r5, r6, r7, lr}
 8007f04:	4607      	mov	r7, r0
 8007f06:	3008      	adds	r0, #8
 8007f08:	460d      	mov	r5, r1
 8007f0a:	4616      	mov	r6, r2
 8007f0c:	f7ff fe78 	bl	8007c00 <_InitOnce.isra.4>
 8007f10:	68bc      	ldr	r4, [r7, #8]
 8007f12:	b144      	cbz	r4, 8007f26 <_SetVSize+0x24>
 8007f14:	69b8      	ldr	r0, [r7, #24]
 8007f16:	f7fe ff85 	bl	8006e24 <LCD_GetSwapXYEx>
 8007f1a:	61a5      	str	r5, [r4, #24]
 8007f1c:	61e6      	str	r6, [r4, #28]
 8007f1e:	b108      	cbz	r0, 8007f24 <_SetVSize+0x22>
 8007f20:	6226      	str	r6, [r4, #32]
 8007f22:	bdf8      	pop	{r3, r4, r5, r6, r7, pc}
 8007f24:	6225      	str	r5, [r4, #32]
 8007f26:	bdf8      	pop	{r3, r4, r5, r6, r7, pc}

08007f28 <_GetDevData>:
 8007f28:	2901      	cmp	r1, #1
 8007f2a:	4802      	ldr	r0, [pc, #8]	; (8007f34 <_GetDevData+0xc>)
 8007f2c:	bf18      	it	ne
 8007f2e:	2000      	movne	r0, #0
 8007f30:	4770      	bx	lr
 8007f32:	bf00      	nop
 8007f34:	0800e0e4 	.word	0x0800e0e4

08007f38 <_GetDevFunc>:
 8007f38:	2916      	cmp	r1, #22
 8007f3a:	4802      	ldr	r0, [pc, #8]	; (8007f44 <_GetDevFunc+0xc>)
 8007f3c:	bf18      	it	ne
 8007f3e:	2000      	movne	r0, #0
 8007f40:	4770      	bx	lr
 8007f42:	bf00      	nop
 8007f44:	08008969 	.word	0x08008969

08007f48 <_GetDevProp>:
 8007f48:	2908      	cmp	r1, #8
 8007f4a:	bf0c      	ite	eq
 8007f4c:	2020      	moveq	r0, #32
 8007f4e:	2000      	movne	r0, #0
 8007f50:	4770      	bx	lr

08007f52 <_SetOrg>:
 8007f52:	6800      	ldr	r0, [r0, #0]
 8007f54:	68c3      	ldr	r3, [r0, #12]
 8007f56:	6a1b      	ldr	r3, [r3, #32]
 8007f58:	4718      	bx	r3

08007f5a <_GetRect>:
 8007f5a:	b537      	push	{r0, r1, r2, r4, r5, lr}
 8007f5c:	6880      	ldr	r0, [r0, #8]
 8007f5e:	460d      	mov	r5, r1
 8007f60:	f7fd fa7c 	bl	800545c <GUI_ALLOC_LockH>
 8007f64:	4602      	mov	r2, r0
 8007f66:	a802      	add	r0, sp, #8
 8007f68:	f9b2 3004 	ldrsh.w	r3, [r2, #4]
 8007f6c:	8914      	ldrh	r4, [r2, #8]
 8007f6e:	f9b2 1006 	ldrsh.w	r1, [r2, #6]
 8007f72:	802b      	strh	r3, [r5, #0]
 8007f74:	441c      	add	r4, r3
 8007f76:	8953      	ldrh	r3, [r2, #10]
 8007f78:	f840 2d04 	str.w	r2, [r0, #-4]!
 8007f7c:	440b      	add	r3, r1
 8007f7e:	3b01      	subs	r3, #1
 8007f80:	3c01      	subs	r4, #1
 8007f82:	8069      	strh	r1, [r5, #2]
 8007f84:	80ac      	strh	r4, [r5, #4]
 8007f86:	80eb      	strh	r3, [r5, #6]
 8007f88:	f7fd fa76 	bl	8005478 <GUI_ALLOC_UnlockH>
 8007f8c:	b003      	add	sp, #12
 8007f8e:	bd30      	pop	{r4, r5, pc}

08007f90 <_XY2PTR>:
 8007f90:	4b0e      	ldr	r3, [pc, #56]	; (8007fcc <_XY2PTR+0x3c>)
 8007f92:	681b      	ldr	r3, [r3, #0]
 8007f94:	b573      	push	{r0, r1, r4, r5, r6, lr}
 8007f96:	4606      	mov	r6, r0
 8007f98:	6e18      	ldr	r0, [r3, #96]	; 0x60
 8007f9a:	460d      	mov	r5, r1
 8007f9c:	f7fd fa5e 	bl	800545c <GUI_ALLOC_LockH>
 8007fa0:	f9b0 1006 	ldrsh.w	r1, [r0, #6]
 8007fa4:	68c4      	ldr	r4, [r0, #12]
 8007fa6:	1a69      	subs	r1, r5, r1
 8007fa8:	f9b0 5004 	ldrsh.w	r5, [r0, #4]
 8007fac:	ab02      	add	r3, sp, #8
 8007fae:	1b76      	subs	r6, r6, r5
 8007fb0:	00b6      	lsls	r6, r6, #2
 8007fb2:	f843 0d04 	str.w	r0, [r3, #-4]!
 8007fb6:	3618      	adds	r6, #24
 8007fb8:	fb04 6501 	mla	r5, r4, r1, r6
 8007fbc:	1944      	adds	r4, r0, r5
 8007fbe:	4618      	mov	r0, r3
 8007fc0:	f7fd fa5a 	bl	8005478 <GUI_ALLOC_UnlockH>
 8007fc4:	4620      	mov	r0, r4
 8007fc6:	b002      	add	sp, #8
 8007fc8:	bd70      	pop	{r4, r5, r6, pc}
 8007fca:	bf00      	nop
 8007fcc:	20000098 	.word	0x20000098

08007fd0 <_GetPixelIndex>:
 8007fd0:	b508      	push	{r3, lr}
 8007fd2:	4608      	mov	r0, r1
 8007fd4:	4611      	mov	r1, r2
 8007fd6:	f7ff ffdb 	bl	8007f90 <_XY2PTR>
 8007fda:	6800      	ldr	r0, [r0, #0]
 8007fdc:	bd08      	pop	{r3, pc}
	...

08007fe0 <_XorPixel>:
 8007fe0:	4b15      	ldr	r3, [pc, #84]	; (8008038 <_XorPixel+0x58>)
 8007fe2:	681b      	ldr	r3, [r3, #0]
 8007fe4:	b573      	push	{r0, r1, r4, r5, r6, lr}
 8007fe6:	6e18      	ldr	r0, [r3, #96]	; 0x60
 8007fe8:	4616      	mov	r6, r2
 8007fea:	460d      	mov	r5, r1
 8007fec:	f7fd fa36 	bl	800545c <GUI_ALLOC_LockH>
 8007ff0:	4631      	mov	r1, r6
 8007ff2:	9000      	str	r0, [sp, #0]
 8007ff4:	4628      	mov	r0, r5
 8007ff6:	f7ff ffcb 	bl	8007f90 <_XY2PTR>
 8007ffa:	9b00      	ldr	r3, [sp, #0]
 8007ffc:	681b      	ldr	r3, [r3, #0]
 8007ffe:	691b      	ldr	r3, [r3, #16]
 8008000:	4604      	mov	r4, r0
 8008002:	689b      	ldr	r3, [r3, #8]
 8008004:	4798      	blx	r3
 8008006:	6823      	ldr	r3, [r4, #0]
 8008008:	4058      	eors	r0, r3
 800800a:	9b00      	ldr	r3, [sp, #0]
 800800c:	6020      	str	r0, [r4, #0]
 800800e:	6958      	ldr	r0, [r3, #20]
 8008010:	b160      	cbz	r0, 800802c <_XorPixel+0x4c>
 8008012:	f7fd fa23 	bl	800545c <GUI_ALLOC_LockH>
 8008016:	ac02      	add	r4, sp, #8
 8008018:	6883      	ldr	r3, [r0, #8]
 800801a:	f844 0d04 	str.w	r0, [r4, #-4]!
 800801e:	681b      	ldr	r3, [r3, #0]
 8008020:	4632      	mov	r2, r6
 8008022:	4629      	mov	r1, r5
 8008024:	4798      	blx	r3
 8008026:	4620      	mov	r0, r4
 8008028:	f7fd fa26 	bl	8005478 <GUI_ALLOC_UnlockH>
 800802c:	4668      	mov	r0, sp
 800802e:	f7fd fa23 	bl	8005478 <GUI_ALLOC_UnlockH>
 8008032:	b002      	add	sp, #8
 8008034:	bd70      	pop	{r4, r5, r6, pc}
 8008036:	bf00      	nop
 8008038:	20000098 	.word	0x20000098

0800803c <_SetPixelIndex>:
 800803c:	b573      	push	{r0, r1, r4, r5, r6, lr}
 800803e:	461c      	mov	r4, r3
 8008040:	4b10      	ldr	r3, [pc, #64]	; (8008084 <_SetPixelIndex+0x48>)
 8008042:	681b      	ldr	r3, [r3, #0]
 8008044:	6e18      	ldr	r0, [r3, #96]	; 0x60
 8008046:	460d      	mov	r5, r1
 8008048:	4616      	mov	r6, r2
 800804a:	f7fd fa07 	bl	800545c <GUI_ALLOC_LockH>
 800804e:	4631      	mov	r1, r6
 8008050:	9000      	str	r0, [sp, #0]
 8008052:	4628      	mov	r0, r5
 8008054:	f7ff ff9c 	bl	8007f90 <_XY2PTR>
 8008058:	9b00      	ldr	r3, [sp, #0]
 800805a:	6004      	str	r4, [r0, #0]
 800805c:	6958      	ldr	r0, [r3, #20]
 800805e:	b160      	cbz	r0, 800807a <_SetPixelIndex+0x3e>
 8008060:	f7fd f9fc 	bl	800545c <GUI_ALLOC_LockH>
 8008064:	ac02      	add	r4, sp, #8
 8008066:	6883      	ldr	r3, [r0, #8]
 8008068:	f844 0d04 	str.w	r0, [r4, #-4]!
 800806c:	681b      	ldr	r3, [r3, #0]
 800806e:	4632      	mov	r2, r6
 8008070:	4629      	mov	r1, r5
 8008072:	4798      	blx	r3
 8008074:	4620      	mov	r0, r4
 8008076:	f7fd f9ff 	bl	8005478 <GUI_ALLOC_UnlockH>
 800807a:	4668      	mov	r0, sp
 800807c:	f7fd f9fc 	bl	8005478 <GUI_ALLOC_UnlockH>
 8008080:	b002      	add	sp, #8
 8008082:	bd70      	pop	{r4, r5, r6, pc}
 8008084:	20000098 	.word	0x20000098

08008088 <_DrawVLine>:
 8008088:	e92d 43f7 	stmdb	sp!, {r0, r1, r2, r4, r5, r6, r7, r8, r9, lr}
 800808c:	4c2a      	ldr	r4, [pc, #168]	; (8008138 <_DrawVLine+0xb0>)
 800808e:	461e      	mov	r6, r3
 8008090:	6823      	ldr	r3, [r4, #0]
 8008092:	6e18      	ldr	r0, [r3, #96]	; 0x60
 8008094:	4688      	mov	r8, r1
 8008096:	4615      	mov	r5, r2
 8008098:	f7fd f9e0 	bl	800545c <GUI_ALLOC_LockH>
 800809c:	9000      	str	r0, [sp, #0]
 800809e:	6940      	ldr	r0, [r0, #20]
 80080a0:	4627      	mov	r7, r4
 80080a2:	b108      	cbz	r0, 80080a8 <_DrawVLine+0x20>
 80080a4:	f7fd f9da 	bl	800545c <GUI_ALLOC_LockH>
 80080a8:	9001      	str	r0, [sp, #4]
 80080aa:	4629      	mov	r1, r5
 80080ac:	4640      	mov	r0, r8
 80080ae:	f7ff ff6f 	bl	8007f90 <_XY2PTR>
 80080b2:	683b      	ldr	r3, [r7, #0]
 80080b4:	9a00      	ldr	r2, [sp, #0]
 80080b6:	7c19      	ldrb	r1, [r3, #16]
 80080b8:	07c9      	lsls	r1, r1, #31
 80080ba:	4604      	mov	r4, r0
 80080bc:	d51d      	bpl.n	80080fa <_DrawVLine+0x72>
 80080be:	6813      	ldr	r3, [r2, #0]
 80080c0:	691b      	ldr	r3, [r3, #16]
 80080c2:	689b      	ldr	r3, [r3, #8]
 80080c4:	4798      	blx	r3
 80080c6:	4607      	mov	r7, r0
 80080c8:	9801      	ldr	r0, [sp, #4]
 80080ca:	b120      	cbz	r0, 80080d6 <_DrawVLine+0x4e>
 80080cc:	6883      	ldr	r3, [r0, #8]
 80080ce:	462a      	mov	r2, r5
 80080d0:	681b      	ldr	r3, [r3, #0]
 80080d2:	4641      	mov	r1, r8
 80080d4:	4798      	blx	r3
 80080d6:	6823      	ldr	r3, [r4, #0]
 80080d8:	407b      	eors	r3, r7
 80080da:	6023      	str	r3, [r4, #0]
 80080dc:	9b00      	ldr	r3, [sp, #0]
 80080de:	3501      	adds	r5, #1
 80080e0:	68db      	ldr	r3, [r3, #12]
 80080e2:	42b5      	cmp	r5, r6
 80080e4:	441c      	add	r4, r3
 80080e6:	ddef      	ble.n	80080c8 <_DrawVLine+0x40>
 80080e8:	4668      	mov	r0, sp
 80080ea:	f7fd f9c5 	bl	8005478 <GUI_ALLOC_UnlockH>
 80080ee:	9b01      	ldr	r3, [sp, #4]
 80080f0:	b1f3      	cbz	r3, 8008130 <_DrawVLine+0xa8>
 80080f2:	a801      	add	r0, sp, #4
 80080f4:	f7fd f9c0 	bl	8005478 <GUI_ALLOC_UnlockH>
 80080f8:	e01a      	b.n	8008130 <_DrawVLine+0xa8>
 80080fa:	6bdb      	ldr	r3, [r3, #60]	; 0x3c
 80080fc:	68d7      	ldr	r7, [r2, #12]
 80080fe:	f8d3 9000 	ldr.w	r9, [r3]
 8008102:	9b01      	ldr	r3, [sp, #4]
 8008104:	b163      	cbz	r3, 8008120 <_DrawVLine+0x98>
 8008106:	9801      	ldr	r0, [sp, #4]
 8008108:	6883      	ldr	r3, [r0, #8]
 800810a:	462a      	mov	r2, r5
 800810c:	681b      	ldr	r3, [r3, #0]
 800810e:	4641      	mov	r1, r8
 8008110:	3501      	adds	r5, #1
 8008112:	4798      	blx	r3
 8008114:	42ae      	cmp	r6, r5
 8008116:	f8c4 9000 	str.w	r9, [r4]
 800811a:	443c      	add	r4, r7
 800811c:	daf3      	bge.n	8008106 <_DrawVLine+0x7e>
 800811e:	e7e3      	b.n	80080e8 <_DrawVLine+0x60>
 8008120:	1b75      	subs	r5, r6, r5
 8008122:	3501      	adds	r5, #1
 8008124:	3d01      	subs	r5, #1
 8008126:	f8c4 9000 	str.w	r9, [r4]
 800812a:	443c      	add	r4, r7
 800812c:	d1fa      	bne.n	8008124 <_DrawVLine+0x9c>
 800812e:	e7db      	b.n	80080e8 <_DrawVLine+0x60>
 8008130:	b003      	add	sp, #12
 8008132:	e8bd 83f0 	ldmia.w	sp!, {r4, r5, r6, r7, r8, r9, pc}
 8008136:	bf00      	nop
 8008138:	20000098 	.word	0x20000098

0800813c <_FillRect>:
 800813c:	e92d 4ff0 	stmdb	sp!, {r4, r5, r6, r7, r8, r9, sl, fp, lr}
 8008140:	4e2a      	ldr	r6, [pc, #168]	; (80081ec <_FillRect+0xb0>)
 8008142:	461c      	mov	r4, r3
 8008144:	6833      	ldr	r3, [r6, #0]
 8008146:	b085      	sub	sp, #20
 8008148:	6e18      	ldr	r0, [r3, #96]	; 0x60
 800814a:	4689      	mov	r9, r1
 800814c:	4615      	mov	r5, r2
 800814e:	f7fd f985 	bl	800545c <GUI_ALLOC_LockH>
 8008152:	4629      	mov	r1, r5
 8008154:	9002      	str	r0, [sp, #8]
 8008156:	4648      	mov	r0, r9
 8008158:	f7ff ff1a 	bl	8007f90 <_XY2PTR>
 800815c:	9b02      	ldr	r3, [sp, #8]
 800815e:	6832      	ldr	r2, [r6, #0]
 8008160:	f8d3 a00c 	ldr.w	sl, [r3, #12]
 8008164:	6bd2      	ldr	r2, [r2, #60]	; 0x3c
 8008166:	4607      	mov	r7, r0
 8008168:	6958      	ldr	r0, [r3, #20]
 800816a:	f8d2 b000 	ldr.w	fp, [r2]
 800816e:	ebc9 0404 	rsb	r4, r9, r4
 8008172:	3401      	adds	r4, #1
 8008174:	b330      	cbz	r0, 80081c4 <_FillRect+0x88>
 8008176:	f7fd f971 	bl	800545c <GUI_ALLOC_LockH>
 800817a:	9b0e      	ldr	r3, [sp, #56]	; 0x38
 800817c:	f10d 0810 	add.w	r8, sp, #16
 8008180:	1b5b      	subs	r3, r3, r5
 8008182:	f848 0d04 	str.w	r0, [r8, #-4]!
 8008186:	3301      	adds	r3, #1
 8008188:	9300      	str	r3, [sp, #0]
 800818a:	462a      	mov	r2, r5
 800818c:	4623      	mov	r3, r4
 800818e:	4649      	mov	r1, r9
 8008190:	f000 fbd6 	bl	8008940 <GUI_USAGE_AddRect>
 8008194:	4640      	mov	r0, r8
 8008196:	f7fd f96f 	bl	8005478 <GUI_ALLOC_UnlockH>
 800819a:	e013      	b.n	80081c4 <_FillRect+0x88>
 800819c:	6833      	ldr	r3, [r6, #0]
 800819e:	7c1b      	ldrb	r3, [r3, #16]
 80081a0:	07db      	lsls	r3, r3, #31
 80081a2:	d513      	bpl.n	80081cc <_FillRect+0x90>
 80081a4:	9b02      	ldr	r3, [sp, #8]
 80081a6:	681b      	ldr	r3, [r3, #0]
 80081a8:	691b      	ldr	r3, [r3, #16]
 80081aa:	689b      	ldr	r3, [r3, #8]
 80081ac:	4798      	blx	r3
 80081ae:	463a      	mov	r2, r7
 80081b0:	4623      	mov	r3, r4
 80081b2:	6811      	ldr	r1, [r2, #0]
 80081b4:	3b01      	subs	r3, #1
 80081b6:	ea81 0100 	eor.w	r1, r1, r0
 80081ba:	f842 1b04 	str.w	r1, [r2], #4
 80081be:	d1f8      	bne.n	80081b2 <_FillRect+0x76>
 80081c0:	4457      	add	r7, sl
 80081c2:	3501      	adds	r5, #1
 80081c4:	9b0e      	ldr	r3, [sp, #56]	; 0x38
 80081c6:	429d      	cmp	r5, r3
 80081c8:	dde8      	ble.n	800819c <_FillRect+0x60>
 80081ca:	e008      	b.n	80081de <_FillRect+0xa2>
 80081cc:	2c00      	cmp	r4, #0
 80081ce:	ddf7      	ble.n	80081c0 <_FillRect+0x84>
 80081d0:	4623      	mov	r3, r4
 80081d2:	463a      	mov	r2, r7
 80081d4:	3b01      	subs	r3, #1
 80081d6:	f842 bb04 	str.w	fp, [r2], #4
 80081da:	d1fb      	bne.n	80081d4 <_FillRect+0x98>
 80081dc:	e7f0      	b.n	80081c0 <_FillRect+0x84>
 80081de:	a802      	add	r0, sp, #8
 80081e0:	f7fd f94a 	bl	8005478 <GUI_ALLOC_UnlockH>
 80081e4:	b005      	add	sp, #20
 80081e6:	e8bd 8ff0 	ldmia.w	sp!, {r4, r5, r6, r7, r8, r9, sl, fp, pc}
 80081ea:	bf00      	nop
 80081ec:	20000098 	.word	0x20000098

080081f0 <_DrawHLine>:
 80081f0:	b507      	push	{r0, r1, r2, lr}
 80081f2:	9200      	str	r2, [sp, #0]
 80081f4:	f7ff ffa2 	bl	800813c <_FillRect>
 80081f8:	b003      	add	sp, #12
 80081fa:	f85d fb04 	ldr.w	pc, [sp], #4
	...

08008200 <_DrawBitmap>:
 8008200:	e92d 4ff0 	stmdb	sp!, {r4, r5, r6, r7, r8, r9, sl, fp, lr}
 8008204:	4da8      	ldr	r5, [pc, #672]	; (80084a8 <_DrawBitmap+0x2a8>)
 8008206:	b091      	sub	sp, #68	; 0x44
 8008208:	460e      	mov	r6, r1
 800820a:	9302      	str	r3, [sp, #8]
 800820c:	682b      	ldr	r3, [r5, #0]
 800820e:	9005      	str	r0, [sp, #20]
 8008210:	6e18      	ldr	r0, [r3, #96]	; 0x60
 8008212:	9206      	str	r2, [sp, #24]
 8008214:	9c1d      	ldr	r4, [sp, #116]	; 0x74
 8008216:	f8dd b07c 	ldr.w	fp, [sp, #124]	; 0x7c
 800821a:	2800      	cmp	r0, #0
 800821c:	f000 8379 	beq.w	8008912 <_DrawBitmap+0x712>
 8008220:	f7fd f91c 	bl	800545c <GUI_ALLOC_LockH>
 8008224:	900e      	str	r0, [sp, #56]	; 0x38
 8008226:	6940      	ldr	r0, [r0, #20]
 8008228:	b108      	cbz	r0, 800822e <_DrawBitmap+0x2e>
 800822a:	f7fd f917 	bl	800545c <GUI_ALLOC_LockH>
 800822e:	900f      	str	r0, [sp, #60]	; 0x3c
 8008230:	a810      	add	r0, sp, #64	; 0x40
 8008232:	f850 3d08 	ldr.w	r3, [r0, #-8]!
 8008236:	68db      	ldr	r3, [r3, #12]
 8008238:	9308      	str	r3, [sp, #32]
 800823a:	f7fd f91d 	bl	8005478 <GUI_ALLOC_UnlockH>
 800823e:	9b1e      	ldr	r3, [sp, #120]	; 0x78
 8008240:	980f      	ldr	r0, [sp, #60]	; 0x3c
 8008242:	18f3      	adds	r3, r6, r3
 8008244:	9303      	str	r3, [sp, #12]
 8008246:	b150      	cbz	r0, 800825e <_DrawBitmap+0x5e>
 8008248:	682b      	ldr	r3, [r5, #0]
 800824a:	7c1b      	ldrb	r3, [r3, #16]
 800824c:	079d      	lsls	r5, r3, #30
 800824e:	d406      	bmi.n	800825e <_DrawBitmap+0x5e>
 8008250:	9b1a      	ldr	r3, [sp, #104]	; 0x68
 8008252:	9300      	str	r3, [sp, #0]
 8008254:	9a06      	ldr	r2, [sp, #24]
 8008256:	9b02      	ldr	r3, [sp, #8]
 8008258:	9903      	ldr	r1, [sp, #12]
 800825a:	f000 fb71 	bl	8008940 <GUI_USAGE_AddRect>
 800825e:	9906      	ldr	r1, [sp, #24]
 8008260:	9803      	ldr	r0, [sp, #12]
 8008262:	f7ff fe95 	bl	8007f90 <_XY2PTR>
 8008266:	9b1b      	ldr	r3, [sp, #108]	; 0x6c
 8008268:	2b17      	cmp	r3, #23
 800826a:	4605      	mov	r5, r0
 800826c:	dd68      	ble.n	8008340 <_DrawBitmap+0x140>
 800826e:	9b02      	ldr	r3, [sp, #8]
 8008270:	f8df 923c 	ldr.w	r9, [pc, #572]	; 80084b0 <_DrawBitmap+0x2b0>
 8008274:	009b      	lsls	r3, r3, #2
 8008276:	9307      	str	r3, [sp, #28]
 8008278:	f04f 0b00 	mov.w	fp, #0
 800827c:	9b1a      	ldr	r3, [sp, #104]	; 0x68
 800827e:	980f      	ldr	r0, [sp, #60]	; 0x3c
 8008280:	459b      	cmp	fp, r3
 8008282:	da59      	bge.n	8008338 <_DrawBitmap+0x138>
 8008284:	b130      	cbz	r0, 8008294 <_DrawBitmap+0x94>
 8008286:	6883      	ldr	r3, [r0, #8]
 8008288:	9a06      	ldr	r2, [sp, #24]
 800828a:	685e      	ldr	r6, [r3, #4]
 800828c:	9903      	ldr	r1, [sp, #12]
 800828e:	9b02      	ldr	r3, [sp, #8]
 8008290:	445a      	add	r2, fp
 8008292:	47b0      	blx	r6
 8008294:	9b05      	ldr	r3, [sp, #20]
 8008296:	691b      	ldr	r3, [r3, #16]
 8008298:	68d8      	ldr	r0, [r3, #12]
 800829a:	b130      	cbz	r0, 80082aa <_DrawBitmap+0xaa>
 800829c:	f8d9 3000 	ldr.w	r3, [r9]
 80082a0:	9a07      	ldr	r2, [sp, #28]
 80082a2:	4621      	mov	r1, r4
 80082a4:	4628      	mov	r0, r5
 80082a6:	4798      	blx	r3
 80082a8:	e03f      	b.n	800832a <_DrawBitmap+0x12a>
 80082aa:	685b      	ldr	r3, [r3, #4]
 80082ac:	4798      	blx	r3
 80082ae:	f8dd 8008 	ldr.w	r8, [sp, #8]
 80082b2:	0e03      	lsrs	r3, r0, #24
 80082b4:	9304      	str	r3, [sp, #16]
 80082b6:	462f      	mov	r7, r5
 80082b8:	4626      	mov	r6, r4
 80082ba:	4642      	mov	r2, r8
 80082bc:	4631      	mov	r1, r6
 80082be:	f04f 0a00 	mov.w	sl, #0
 80082c2:	f851 3b04 	ldr.w	r3, [r1], #4
 80082c6:	9804      	ldr	r0, [sp, #16]
 80082c8:	0e1b      	lsrs	r3, r3, #24
 80082ca:	4298      	cmp	r0, r3
 80082cc:	9804      	ldr	r0, [sp, #16]
 80082ce:	bf08      	it	eq
 80082d0:	f10a 0a01 	addeq.w	sl, sl, #1
 80082d4:	4298      	cmp	r0, r3
 80082d6:	f102 32ff 	add.w	r2, r2, #4294967295	; 0xffffffff
 80082da:	d011      	beq.n	8008300 <_DrawBitmap+0x100>
 80082dc:	f1ba 0f00 	cmp.w	sl, #0
 80082e0:	d011      	beq.n	8008306 <_DrawBitmap+0x106>
 80082e2:	ea4f 038a 	mov.w	r3, sl, lsl #2
 80082e6:	461a      	mov	r2, r3
 80082e8:	9309      	str	r3, [sp, #36]	; 0x24
 80082ea:	4631      	mov	r1, r6
 80082ec:	4638      	mov	r0, r7
 80082ee:	f8d9 3000 	ldr.w	r3, [r9]
 80082f2:	4798      	blx	r3
 80082f4:	9b09      	ldr	r3, [sp, #36]	; 0x24
 80082f6:	ebca 0808 	rsb	r8, sl, r8
 80082fa:	441f      	add	r7, r3
 80082fc:	441e      	add	r6, r3
 80082fe:	e011      	b.n	8008324 <_DrawBitmap+0x124>
 8008300:	2a00      	cmp	r2, #0
 8008302:	d1de      	bne.n	80082c2 <_DrawBitmap+0xc2>
 8008304:	e7ea      	b.n	80082dc <_DrawBitmap+0xdc>
 8008306:	6830      	ldr	r0, [r6, #0]
 8008308:	0e02      	lsrs	r2, r0, #24
 800830a:	2aff      	cmp	r2, #255	; 0xff
 800830c:	d006      	beq.n	800831c <_DrawBitmap+0x11c>
 800830e:	4b67      	ldr	r3, [pc, #412]	; (80084ac <_DrawBitmap+0x2ac>)
 8008310:	6839      	ldr	r1, [r7, #0]
 8008312:	681b      	ldr	r3, [r3, #0]
 8008314:	43d2      	mvns	r2, r2
 8008316:	b2d2      	uxtb	r2, r2
 8008318:	4798      	blx	r3
 800831a:	6038      	str	r0, [r7, #0]
 800831c:	3704      	adds	r7, #4
 800831e:	3604      	adds	r6, #4
 8008320:	f108 38ff 	add.w	r8, r8, #4294967295	; 0xffffffff
 8008324:	f1b8 0f00 	cmp.w	r8, #0
 8008328:	d1c7      	bne.n	80082ba <_DrawBitmap+0xba>
 800832a:	9b1c      	ldr	r3, [sp, #112]	; 0x70
 800832c:	441c      	add	r4, r3
 800832e:	9b08      	ldr	r3, [sp, #32]
 8008330:	f10b 0b01 	add.w	fp, fp, #1
 8008334:	441d      	add	r5, r3
 8008336:	e7a1      	b.n	800827c <_DrawBitmap+0x7c>
 8008338:	2800      	cmp	r0, #0
 800833a:	f040 82e7 	bne.w	800890c <_DrawBitmap+0x70c>
 800833e:	e2e8      	b.n	8008912 <_DrawBitmap+0x712>
 8008340:	9b1b      	ldr	r3, [sp, #108]	; 0x6c
 8008342:	2b10      	cmp	r3, #16
 8008344:	d137      	bne.n	80083b6 <_DrawBitmap+0x1b6>
 8008346:	9b03      	ldr	r3, [sp, #12]
 8008348:	9a03      	ldr	r2, [sp, #12]
 800834a:	eba4 0443 	sub.w	r4, r4, r3, lsl #1
 800834e:	eba0 0583 	sub.w	r5, r0, r3, lsl #2
 8008352:	9b02      	ldr	r3, [sp, #8]
 8008354:	f04f 0800 	mov.w	r8, #0
 8008358:	eb03 0a02 	add.w	sl, r3, r2
 800835c:	9b1a      	ldr	r3, [sp, #104]	; 0x68
 800835e:	9e0f      	ldr	r6, [sp, #60]	; 0x3c
 8008360:	4598      	cmp	r8, r3
 8008362:	da24      	bge.n	80083ae <_DrawBitmap+0x1ae>
 8008364:	9b06      	ldr	r3, [sp, #24]
 8008366:	eb03 0908 	add.w	r9, r3, r8
 800836a:	b136      	cbz	r6, 800837a <_DrawBitmap+0x17a>
 800836c:	68b3      	ldr	r3, [r6, #8]
 800836e:	9903      	ldr	r1, [sp, #12]
 8008370:	685f      	ldr	r7, [r3, #4]
 8008372:	9b02      	ldr	r3, [sp, #8]
 8008374:	464a      	mov	r2, r9
 8008376:	4630      	mov	r0, r6
 8008378:	47b8      	blx	r7
 800837a:	9f03      	ldr	r7, [sp, #12]
 800837c:	9b05      	ldr	r3, [sp, #20]
 800837e:	f834 0017 	ldrh.w	r0, [r4, r7, lsl #1]
 8008382:	691b      	ldr	r3, [r3, #16]
 8008384:	685b      	ldr	r3, [r3, #4]
 8008386:	4798      	blx	r3
 8008388:	f845 0027 	str.w	r0, [r5, r7, lsl #2]
 800838c:	b12e      	cbz	r6, 800839a <_DrawBitmap+0x19a>
 800838e:	68b3      	ldr	r3, [r6, #8]
 8008390:	464a      	mov	r2, r9
 8008392:	681b      	ldr	r3, [r3, #0]
 8008394:	4639      	mov	r1, r7
 8008396:	4630      	mov	r0, r6
 8008398:	4798      	blx	r3
 800839a:	3701      	adds	r7, #1
 800839c:	4557      	cmp	r7, sl
 800839e:	d1ed      	bne.n	800837c <_DrawBitmap+0x17c>
 80083a0:	9b1c      	ldr	r3, [sp, #112]	; 0x70
 80083a2:	441c      	add	r4, r3
 80083a4:	9b08      	ldr	r3, [sp, #32]
 80083a6:	f108 0801 	add.w	r8, r8, #1
 80083aa:	441d      	add	r5, r3
 80083ac:	e7d6      	b.n	800835c <_DrawBitmap+0x15c>
 80083ae:	2e00      	cmp	r6, #0
 80083b0:	f040 82ac 	bne.w	800890c <_DrawBitmap+0x70c>
 80083b4:	e2ad      	b.n	8008912 <_DrawBitmap+0x712>
 80083b6:	9b1b      	ldr	r3, [sp, #108]	; 0x6c
 80083b8:	2b08      	cmp	r3, #8
 80083ba:	f040 8081 	bne.w	80084c0 <_DrawBitmap+0x2c0>
 80083be:	9a03      	ldr	r2, [sp, #12]
 80083c0:	9e06      	ldr	r6, [sp, #24]
 80083c2:	f8df 90e4 	ldr.w	r9, [pc, #228]	; 80084a8 <_DrawBitmap+0x2a8>
 80083c6:	f06f 0303 	mvn.w	r3, #3
 80083ca:	4353      	muls	r3, r2
 80083cc:	9304      	str	r3, [sp, #16]
 80083ce:	9b02      	ldr	r3, [sp, #8]
 80083d0:	4413      	add	r3, r2
 80083d2:	9305      	str	r3, [sp, #20]
 80083d4:	9b06      	ldr	r3, [sp, #24]
 80083d6:	9a1a      	ldr	r2, [sp, #104]	; 0x68
 80083d8:	1af3      	subs	r3, r6, r3
 80083da:	429a      	cmp	r2, r3
 80083dc:	f340 8294 	ble.w	8008908 <_DrawBitmap+0x708>
 80083e0:	f8d9 3000 	ldr.w	r3, [r9]
 80083e4:	7c1b      	ldrb	r3, [r3, #16]
 80083e6:	f1bb 0f00 	cmp.w	fp, #0
 80083ea:	d032      	beq.n	8008452 <_DrawBitmap+0x252>
 80083ec:	f013 0303 	ands.w	r3, r3, #3
 80083f0:	d00a      	beq.n	8008408 <_DrawBitmap+0x208>
 80083f2:	2b02      	cmp	r3, #2
 80083f4:	d15e      	bne.n	80084b4 <_DrawBitmap+0x2b4>
 80083f6:	9b04      	ldr	r3, [sp, #16]
 80083f8:	f8dd 803c 	ldr.w	r8, [sp, #60]	; 0x3c
 80083fc:	9f03      	ldr	r7, [sp, #12]
 80083fe:	18eb      	adds	r3, r5, r3
 8008400:	f104 3aff 	add.w	sl, r4, #4294967295	; 0xffffffff
 8008404:	9307      	str	r3, [sp, #28]
 8008406:	e01f      	b.n	8008448 <_DrawBitmap+0x248>
 8008408:	9a02      	ldr	r2, [sp, #8]
 800840a:	4623      	mov	r3, r4
 800840c:	18a1      	adds	r1, r4, r2
 800840e:	462a      	mov	r2, r5
 8008410:	f813 0b01 	ldrb.w	r0, [r3], #1
 8008414:	f85b 0020 	ldr.w	r0, [fp, r0, lsl #2]
 8008418:	f842 0b04 	str.w	r0, [r2], #4
 800841c:	428b      	cmp	r3, r1
 800841e:	d1f7      	bne.n	8008410 <_DrawBitmap+0x210>
 8008420:	e048      	b.n	80084b4 <_DrawBitmap+0x2b4>
 8008422:	9a07      	ldr	r2, [sp, #28]
 8008424:	f85b 3023 	ldr.w	r3, [fp, r3, lsl #2]
 8008428:	f842 3027 	str.w	r3, [r2, r7, lsl #2]
 800842c:	f1b8 0f00 	cmp.w	r8, #0
 8008430:	d006      	beq.n	8008440 <_DrawBitmap+0x240>
 8008432:	f8d8 3008 	ldr.w	r3, [r8, #8]
 8008436:	4632      	mov	r2, r6
 8008438:	681b      	ldr	r3, [r3, #0]
 800843a:	4639      	mov	r1, r7
 800843c:	4640      	mov	r0, r8
 800843e:	4798      	blx	r3
 8008440:	9b05      	ldr	r3, [sp, #20]
 8008442:	3701      	adds	r7, #1
 8008444:	42bb      	cmp	r3, r7
 8008446:	d035      	beq.n	80084b4 <_DrawBitmap+0x2b4>
 8008448:	f81a 3f01 	ldrb.w	r3, [sl, #1]!
 800844c:	2b00      	cmp	r3, #0
 800844e:	d0f7      	beq.n	8008440 <_DrawBitmap+0x240>
 8008450:	e7e7      	b.n	8008422 <_DrawBitmap+0x222>
 8008452:	f013 0303 	ands.w	r3, r3, #3
 8008456:	d00a      	beq.n	800846e <_DrawBitmap+0x26e>
 8008458:	2b02      	cmp	r3, #2
 800845a:	d12b      	bne.n	80084b4 <_DrawBitmap+0x2b4>
 800845c:	9b04      	ldr	r3, [sp, #16]
 800845e:	f8dd 803c 	ldr.w	r8, [sp, #60]	; 0x3c
 8008462:	9f03      	ldr	r7, [sp, #12]
 8008464:	18eb      	adds	r3, r5, r3
 8008466:	f104 3aff 	add.w	sl, r4, #4294967295	; 0xffffffff
 800846a:	9307      	str	r3, [sp, #28]
 800846c:	e017      	b.n	800849e <_DrawBitmap+0x29e>
 800846e:	4b10      	ldr	r3, [pc, #64]	; (80084b0 <_DrawBitmap+0x2b0>)
 8008470:	9a02      	ldr	r2, [sp, #8]
 8008472:	681b      	ldr	r3, [r3, #0]
 8008474:	4621      	mov	r1, r4
 8008476:	4628      	mov	r0, r5
 8008478:	4798      	blx	r3
 800847a:	e01b      	b.n	80084b4 <_DrawBitmap+0x2b4>
 800847c:	9a07      	ldr	r2, [sp, #28]
 800847e:	f842 3027 	str.w	r3, [r2, r7, lsl #2]
 8008482:	f1b8 0f00 	cmp.w	r8, #0
 8008486:	d006      	beq.n	8008496 <_DrawBitmap+0x296>
 8008488:	f8d8 3008 	ldr.w	r3, [r8, #8]
 800848c:	4632      	mov	r2, r6
 800848e:	681b      	ldr	r3, [r3, #0]
 8008490:	4639      	mov	r1, r7
 8008492:	4640      	mov	r0, r8
 8008494:	4798      	blx	r3
 8008496:	9b05      	ldr	r3, [sp, #20]
 8008498:	3701      	adds	r7, #1
 800849a:	42bb      	cmp	r3, r7
 800849c:	d00a      	beq.n	80084b4 <_DrawBitmap+0x2b4>
 800849e:	f81a 3f01 	ldrb.w	r3, [sl, #1]!
 80084a2:	2b00      	cmp	r3, #0
 80084a4:	d0f7      	beq.n	8008496 <_DrawBitmap+0x296>
 80084a6:	e7e9      	b.n	800847c <_DrawBitmap+0x27c>
 80084a8:	20000098 	.word	0x20000098
 80084ac:	2000009c 	.word	0x2000009c
 80084b0:	200000a4 	.word	0x200000a4
 80084b4:	9b1c      	ldr	r3, [sp, #112]	; 0x70
 80084b6:	441c      	add	r4, r3
 80084b8:	9b08      	ldr	r3, [sp, #32]
 80084ba:	3601      	adds	r6, #1
 80084bc:	441d      	add	r5, r3
 80084be:	e789      	b.n	80083d4 <_DrawBitmap+0x1d4>
 80084c0:	4bb0      	ldr	r3, [pc, #704]	; (8008784 <_DrawBitmap+0x584>)
 80084c2:	f1bb 0f00 	cmp.w	fp, #0
 80084c6:	bf08      	it	eq
 80084c8:	469b      	moveq	fp, r3
 80084ca:	9b1e      	ldr	r3, [sp, #120]	; 0x78
 80084cc:	005b      	lsls	r3, r3, #1
 80084ce:	930a      	str	r3, [sp, #40]	; 0x28
 80084d0:	9b1e      	ldr	r3, [sp, #120]	; 0x78
 80084d2:	009b      	lsls	r3, r3, #2
 80084d4:	930b      	str	r3, [sp, #44]	; 0x2c
 80084d6:	1c63      	adds	r3, r4, #1
 80084d8:	9304      	str	r3, [sp, #16]
 80084da:	1d03      	adds	r3, r0, #4
 80084dc:	9307      	str	r3, [sp, #28]
 80084de:	9b06      	ldr	r3, [sp, #24]
 80084e0:	9305      	str	r3, [sp, #20]
 80084e2:	9b07      	ldr	r3, [sp, #28]
 80084e4:	9a06      	ldr	r2, [sp, #24]
 80084e6:	1f1c      	subs	r4, r3, #4
 80084e8:	9b04      	ldr	r3, [sp, #16]
 80084ea:	f103 3aff 	add.w	sl, r3, #4294967295	; 0xffffffff
 80084ee:	9b05      	ldr	r3, [sp, #20]
 80084f0:	1a9b      	subs	r3, r3, r2
 80084f2:	9a1a      	ldr	r2, [sp, #104]	; 0x68
 80084f4:	429a      	cmp	r2, r3
 80084f6:	f340 8207 	ble.w	8008908 <_DrawBitmap+0x708>
 80084fa:	9b1b      	ldr	r3, [sp, #108]	; 0x6c
 80084fc:	2b02      	cmp	r3, #2
 80084fe:	f000 8098 	beq.w	8008632 <_DrawBitmap+0x432>
 8008502:	2b04      	cmp	r3, #4
 8008504:	f000 812b 	beq.w	800875e <_DrawBitmap+0x55e>
 8008508:	2b01      	cmp	r3, #1
 800850a:	f040 81f1 	bne.w	80088f0 <_DrawBitmap+0x6f0>
 800850e:	4b9e      	ldr	r3, [pc, #632]	; (8008788 <_DrawBitmap+0x588>)
 8008510:	681b      	ldr	r3, [r3, #0]
 8008512:	6e18      	ldr	r0, [r3, #96]	; 0x60
 8008514:	f7fc ffa2 	bl	800545c <GUI_ALLOC_LockH>
 8008518:	9b1e      	ldr	r3, [sp, #120]	; 0x78
 800851a:	4a9c      	ldr	r2, [pc, #624]	; (800878c <_DrawBitmap+0x58c>)
 800851c:	900e      	str	r0, [sp, #56]	; 0x38
 800851e:	f1c3 0508 	rsb	r5, r3, #8
 8008522:	9b04      	ldr	r3, [sp, #16]
 8008524:	9f02      	ldr	r7, [sp, #8]
 8008526:	f813 3c01 	ldrb.w	r3, [r3, #-1]
 800852a:	5cd6      	ldrb	r6, [r2, r3]
 800852c:	9b1e      	ldr	r3, [sp, #120]	; 0x78
 800852e:	411e      	asrs	r6, r3
 8008530:	4b95      	ldr	r3, [pc, #596]	; (8008788 <_DrawBitmap+0x588>)
 8008532:	681b      	ldr	r3, [r3, #0]
 8008534:	7c1b      	ldrb	r3, [r3, #16]
 8008536:	f003 0303 	and.w	r3, r3, #3
 800853a:	2b02      	cmp	r3, #2
 800853c:	d01d      	beq.n	800857a <_DrawBitmap+0x37a>
 800853e:	2b03      	cmp	r3, #3
 8008540:	d055      	beq.n	80085ee <_DrawBitmap+0x3ee>
 8008542:	2b01      	cmp	r3, #1
 8008544:	d053      	beq.n	80085ee <_DrawBitmap+0x3ee>
 8008546:	42bd      	cmp	r5, r7
 8008548:	bf28      	it	cs
 800854a:	463d      	movcs	r5, r7
 800854c:	1b7f      	subs	r7, r7, r5
 800854e:	462b      	mov	r3, r5
 8008550:	4622      	mov	r2, r4
 8008552:	f006 0101 	and.w	r1, r6, #1
 8008556:	3b01      	subs	r3, #1
 8008558:	f85b 1021 	ldr.w	r1, [fp, r1, lsl #2]
 800855c:	f842 1b04 	str.w	r1, [r2], #4
 8008560:	ea4f 0656 	mov.w	r6, r6, lsr #1
 8008564:	d1f5      	bne.n	8008552 <_DrawBitmap+0x352>
 8008566:	eb04 0485 	add.w	r4, r4, r5, lsl #2
 800856a:	2f00      	cmp	r7, #0
 800856c:	d05d      	beq.n	800862a <_DrawBitmap+0x42a>
 800856e:	f81a 3f01 	ldrb.w	r3, [sl, #1]!
 8008572:	4a86      	ldr	r2, [pc, #536]	; (800878c <_DrawBitmap+0x58c>)
 8008574:	2508      	movs	r5, #8
 8008576:	5cd6      	ldrb	r6, [r2, r3]
 8008578:	e7e5      	b.n	8008546 <_DrawBitmap+0x346>
 800857a:	f8db 3004 	ldr.w	r3, [fp, #4]
 800857e:	f8dd 903c 	ldr.w	r9, [sp, #60]	; 0x3c
 8008582:	f8dd 800c 	ldr.w	r8, [sp, #12]
 8008586:	9309      	str	r3, [sp, #36]	; 0x24
 8008588:	42bd      	cmp	r5, r7
 800858a:	bf28      	it	cs
 800858c:	463d      	movcs	r5, r7
 800858e:	1b7f      	subs	r7, r7, r5
 8008590:	f1b9 0f00 	cmp.w	r9, #0
 8008594:	d020      	beq.n	80085d8 <_DrawBitmap+0x3d8>
 8008596:	b91e      	cbnz	r6, 80085a0 <_DrawBitmap+0x3a0>
 8008598:	eb04 0485 	add.w	r4, r4, r5, lsl #2
 800859c:	44a8      	add	r8, r5
 800859e:	e01f      	b.n	80085e0 <_DrawBitmap+0x3e0>
 80085a0:	07f0      	lsls	r0, r6, #31
 80085a2:	d508      	bpl.n	80085b6 <_DrawBitmap+0x3b6>
 80085a4:	f8d9 3008 	ldr.w	r3, [r9, #8]
 80085a8:	9a05      	ldr	r2, [sp, #20]
 80085aa:	681b      	ldr	r3, [r3, #0]
 80085ac:	4641      	mov	r1, r8
 80085ae:	4648      	mov	r0, r9
 80085b0:	4798      	blx	r3
 80085b2:	9b09      	ldr	r3, [sp, #36]	; 0x24
 80085b4:	6023      	str	r3, [r4, #0]
 80085b6:	3d01      	subs	r5, #1
 80085b8:	f108 0801 	add.w	r8, r8, #1
 80085bc:	f104 0404 	add.w	r4, r4, #4
 80085c0:	d00e      	beq.n	80085e0 <_DrawBitmap+0x3e0>
 80085c2:	0876      	lsrs	r6, r6, #1
 80085c4:	e7e7      	b.n	8008596 <_DrawBitmap+0x396>
 80085c6:	07f1      	lsls	r1, r6, #31
 80085c8:	bf44      	itt	mi
 80085ca:	9b09      	ldrmi	r3, [sp, #36]	; 0x24
 80085cc:	6023      	strmi	r3, [r4, #0]
 80085ce:	3d01      	subs	r5, #1
 80085d0:	f104 0404 	add.w	r4, r4, #4
 80085d4:	d004      	beq.n	80085e0 <_DrawBitmap+0x3e0>
 80085d6:	0876      	lsrs	r6, r6, #1
 80085d8:	2e00      	cmp	r6, #0
 80085da:	d1f4      	bne.n	80085c6 <_DrawBitmap+0x3c6>
 80085dc:	eb04 0485 	add.w	r4, r4, r5, lsl #2
 80085e0:	b31f      	cbz	r7, 800862a <_DrawBitmap+0x42a>
 80085e2:	f81a 3f01 	ldrb.w	r3, [sl, #1]!
 80085e6:	4a69      	ldr	r2, [pc, #420]	; (800878c <_DrawBitmap+0x58c>)
 80085e8:	2508      	movs	r5, #8
 80085ea:	5cd6      	ldrb	r6, [r2, r3]
 80085ec:	e7cc      	b.n	8008588 <_DrawBitmap+0x388>
 80085ee:	6803      	ldr	r3, [r0, #0]
 80085f0:	691b      	ldr	r3, [r3, #16]
 80085f2:	689b      	ldr	r3, [r3, #8]
 80085f4:	4798      	blx	r3
 80085f6:	42bd      	cmp	r5, r7
 80085f8:	bf28      	it	cs
 80085fa:	463d      	movcs	r5, r7
 80085fc:	1b7f      	subs	r7, r7, r5
 80085fe:	4629      	mov	r1, r5
 8008600:	4623      	mov	r3, r4
 8008602:	07f2      	lsls	r2, r6, #31
 8008604:	bf42      	ittt	mi
 8008606:	681a      	ldrmi	r2, [r3, #0]
 8008608:	4042      	eormi	r2, r0
 800860a:	601a      	strmi	r2, [r3, #0]
 800860c:	3901      	subs	r1, #1
 800860e:	f103 0304 	add.w	r3, r3, #4
 8008612:	ea4f 0656 	mov.w	r6, r6, lsr #1
 8008616:	d1f4      	bne.n	8008602 <_DrawBitmap+0x402>
 8008618:	eb04 0485 	add.w	r4, r4, r5, lsl #2
 800861c:	b12f      	cbz	r7, 800862a <_DrawBitmap+0x42a>
 800861e:	f81a 3f01 	ldrb.w	r3, [sl, #1]!
 8008622:	4a5a      	ldr	r2, [pc, #360]	; (800878c <_DrawBitmap+0x58c>)
 8008624:	2508      	movs	r5, #8
 8008626:	5cd6      	ldrb	r6, [r2, r3]
 8008628:	e7e5      	b.n	80085f6 <_DrawBitmap+0x3f6>
 800862a:	a80e      	add	r0, sp, #56	; 0x38
 800862c:	f7fc ff24 	bl	8005478 <GUI_ALLOC_UnlockH>
 8008630:	e15e      	b.n	80088f0 <_DrawBitmap+0x6f0>
 8008632:	9b1e      	ldr	r3, [sp, #120]	; 0x78
 8008634:	f1c3 0504 	rsb	r5, r3, #4
 8008638:	9b04      	ldr	r3, [sp, #16]
 800863a:	f813 6c01 	ldrb.w	r6, [r3, #-1]
 800863e:	9b0a      	ldr	r3, [sp, #40]	; 0x28
 8008640:	409e      	lsls	r6, r3
 8008642:	4b51      	ldr	r3, [pc, #324]	; (8008788 <_DrawBitmap+0x588>)
 8008644:	681b      	ldr	r3, [r3, #0]
 8008646:	7c1b      	ldrb	r3, [r3, #16]
 8008648:	f003 0303 	and.w	r3, r3, #3
 800864c:	2b01      	cmp	r3, #1
 800864e:	b2ed      	uxtb	r5, r5
 8008650:	b2f6      	uxtb	r6, r6
 8008652:	d009      	beq.n	8008668 <_DrawBitmap+0x468>
 8008654:	d30a      	bcc.n	800866c <_DrawBitmap+0x46c>
 8008656:	2b02      	cmp	r3, #2
 8008658:	f040 814a 	bne.w	80088f0 <_DrawBitmap+0x6f0>
 800865c:	9b0f      	ldr	r3, [sp, #60]	; 0x3c
 800865e:	9309      	str	r3, [sp, #36]	; 0x24
 8008660:	f8dd 8008 	ldr.w	r8, [sp, #8]
 8008664:	9f03      	ldr	r7, [sp, #12]
 8008666:	e035      	b.n	80086d4 <_DrawBitmap+0x4d4>
 8008668:	9b02      	ldr	r3, [sp, #8]
 800866a:	e071      	b.n	8008750 <_DrawBitmap+0x550>
 800866c:	9b02      	ldr	r3, [sp, #8]
 800866e:	429d      	cmp	r5, r3
 8008670:	bfc8      	it	gt
 8008672:	b2dd      	uxtbgt	r5, r3
 8008674:	1b5b      	subs	r3, r3, r5
 8008676:	462a      	mov	r2, r5
 8008678:	4621      	mov	r1, r4
 800867a:	09b0      	lsrs	r0, r6, #6
 800867c:	3a01      	subs	r2, #1
 800867e:	f85b 0020 	ldr.w	r0, [fp, r0, lsl #2]
 8008682:	f841 0b04 	str.w	r0, [r1], #4
 8008686:	00b6      	lsls	r6, r6, #2
 8008688:	f012 02ff 	ands.w	r2, r2, #255	; 0xff
 800868c:	b2f6      	uxtb	r6, r6
 800868e:	d1f4      	bne.n	800867a <_DrawBitmap+0x47a>
 8008690:	3d01      	subs	r5, #1
 8008692:	b2ed      	uxtb	r5, r5
 8008694:	3501      	adds	r5, #1
 8008696:	eb04 0485 	add.w	r4, r4, r5, lsl #2
 800869a:	2b00      	cmp	r3, #0
 800869c:	f000 8128 	beq.w	80088f0 <_DrawBitmap+0x6f0>
 80086a0:	f81a 6f01 	ldrb.w	r6, [sl, #1]!
 80086a4:	2504      	movs	r5, #4
 80086a6:	e7e2      	b.n	800866e <_DrawBitmap+0x46e>
 80086a8:	f016 0fc0 	tst.w	r6, #192	; 0xc0
 80086ac:	d124      	bne.n	80086f8 <_DrawBitmap+0x4f8>
 80086ae:	9b0d      	ldr	r3, [sp, #52]	; 0x34
 80086b0:	f109 0901 	add.w	r9, r9, #1
 80086b4:	00b6      	lsls	r6, r6, #2
 80086b6:	4599      	cmp	r9, r3
 80086b8:	b2f6      	uxtb	r6, r6
 80086ba:	d1f5      	bne.n	80086a8 <_DrawBitmap+0x4a8>
 80086bc:	1c6b      	adds	r3, r5, #1
 80086be:	3701      	adds	r7, #1
 80086c0:	eb04 0483 	add.w	r4, r4, r3, lsl #2
 80086c4:	442f      	add	r7, r5
 80086c6:	f1b8 0f00 	cmp.w	r8, #0
 80086ca:	f000 8111 	beq.w	80088f0 <_DrawBitmap+0x6f0>
 80086ce:	f81a 6f01 	ldrb.w	r6, [sl, #1]!
 80086d2:	2504      	movs	r5, #4
 80086d4:	4545      	cmp	r5, r8
 80086d6:	bfc8      	it	gt
 80086d8:	fa5f f588 	uxtbgt.w	r5, r8
 80086dc:	ebc5 0808 	rsb	r8, r5, r8
 80086e0:	3d01      	subs	r5, #1
 80086e2:	b2ed      	uxtb	r5, r5
 80086e4:	1c7b      	adds	r3, r7, #1
 80086e6:	442b      	add	r3, r5
 80086e8:	930d      	str	r3, [sp, #52]	; 0x34
 80086ea:	f06f 0303 	mvn.w	r3, #3
 80086ee:	fb03 4307 	mla	r3, r3, r7, r4
 80086f2:	930c      	str	r3, [sp, #48]	; 0x30
 80086f4:	46b9      	mov	r9, r7
 80086f6:	e7d7      	b.n	80086a8 <_DrawBitmap+0x4a8>
 80086f8:	09b3      	lsrs	r3, r6, #6
 80086fa:	9a0c      	ldr	r2, [sp, #48]	; 0x30
 80086fc:	f85b 3023 	ldr.w	r3, [fp, r3, lsl #2]
 8008700:	f842 3029 	str.w	r3, [r2, r9, lsl #2]
 8008704:	9b09      	ldr	r3, [sp, #36]	; 0x24
 8008706:	2b00      	cmp	r3, #0
 8008708:	d0d1      	beq.n	80086ae <_DrawBitmap+0x4ae>
 800870a:	689b      	ldr	r3, [r3, #8]
 800870c:	9a05      	ldr	r2, [sp, #20]
 800870e:	681b      	ldr	r3, [r3, #0]
 8008710:	9809      	ldr	r0, [sp, #36]	; 0x24
 8008712:	4649      	mov	r1, r9
 8008714:	4798      	blx	r3
 8008716:	e7ca      	b.n	80086ae <_DrawBitmap+0x4ae>
 8008718:	f016 0fc0 	tst.w	r6, #192	; 0xc0
 800871c:	bf18      	it	ne
 800871e:	6801      	ldrne	r1, [r0, #0]
 8008720:	f102 32ff 	add.w	r2, r2, #4294967295	; 0xffffffff
 8008724:	bf1c      	itt	ne
 8008726:	f081 01ff 	eorne.w	r1, r1, #255	; 0xff
 800872a:	6001      	strne	r1, [r0, #0]
 800872c:	00b6      	lsls	r6, r6, #2
 800872e:	f012 02ff 	ands.w	r2, r2, #255	; 0xff
 8008732:	f100 0004 	add.w	r0, r0, #4
 8008736:	b2f6      	uxtb	r6, r6
 8008738:	d1ee      	bne.n	8008718 <_DrawBitmap+0x518>
 800873a:	3d01      	subs	r5, #1
 800873c:	b2ed      	uxtb	r5, r5
 800873e:	3501      	adds	r5, #1
 8008740:	eb04 0485 	add.w	r4, r4, r5, lsl #2
 8008744:	2b00      	cmp	r3, #0
 8008746:	f000 80d3 	beq.w	80088f0 <_DrawBitmap+0x6f0>
 800874a:	f81a 6f01 	ldrb.w	r6, [sl, #1]!
 800874e:	2504      	movs	r5, #4
 8008750:	429d      	cmp	r5, r3
 8008752:	bfc8      	it	gt
 8008754:	b2dd      	uxtbgt	r5, r3
 8008756:	1b5b      	subs	r3, r3, r5
 8008758:	462a      	mov	r2, r5
 800875a:	4620      	mov	r0, r4
 800875c:	e7dc      	b.n	8008718 <_DrawBitmap+0x518>
 800875e:	9b04      	ldr	r3, [sp, #16]
 8008760:	9a0b      	ldr	r2, [sp, #44]	; 0x2c
 8008762:	f813 3c01 	ldrb.w	r3, [r3, #-1]
 8008766:	4093      	lsls	r3, r2
 8008768:	4a07      	ldr	r2, [pc, #28]	; (8008788 <_DrawBitmap+0x588>)
 800876a:	6812      	ldr	r2, [r2, #0]
 800876c:	7c12      	ldrb	r2, [r2, #16]
 800876e:	f002 0203 	and.w	r2, r2, #3
 8008772:	2a01      	cmp	r2, #1
 8008774:	b2dd      	uxtb	r5, r3
 8008776:	f000 8095 	beq.w	80088a4 <_DrawBitmap+0x6a4>
 800877a:	d309      	bcc.n	8008790 <_DrawBitmap+0x590>
 800877c:	2a02      	cmp	r2, #2
 800877e:	d039      	beq.n	80087f4 <_DrawBitmap+0x5f4>
 8008780:	e0b6      	b.n	80088f0 <_DrawBitmap+0x6f0>
 8008782:	bf00      	nop
 8008784:	0800e118 	.word	0x0800e118
 8008788:	20000098 	.word	0x20000098
 800878c:	0800e188 	.word	0x0800e188
 8008790:	9b1e      	ldr	r3, [sp, #120]	; 0x78
 8008792:	b153      	cbz	r3, 80087aa <_DrawBitmap+0x5aa>
 8008794:	092d      	lsrs	r5, r5, #4
 8008796:	9a04      	ldr	r2, [sp, #16]
 8008798:	f85b 3025 	ldr.w	r3, [fp, r5, lsl #2]
 800879c:	6023      	str	r3, [r4, #0]
 800879e:	9b02      	ldr	r3, [sp, #8]
 80087a0:	9c07      	ldr	r4, [sp, #28]
 80087a2:	7815      	ldrb	r5, [r2, #0]
 80087a4:	3b01      	subs	r3, #1
 80087a6:	4692      	mov	sl, r2
 80087a8:	e000      	b.n	80087ac <_DrawBitmap+0x5ac>
 80087aa:	9b02      	ldr	r3, [sp, #8]
 80087ac:	2b01      	cmp	r3, #1
 80087ae:	dd19      	ble.n	80087e4 <_DrawBitmap+0x5e4>
 80087b0:	1058      	asrs	r0, r3, #1
 80087b2:	f104 0208 	add.w	r2, r4, #8
 80087b6:	f003 0301 	and.w	r3, r3, #1
 80087ba:	eb0a 0600 	add.w	r6, sl, r0
 80087be:	0929      	lsrs	r1, r5, #4
 80087c0:	f005 050f 	and.w	r5, r5, #15
 80087c4:	f85b 1021 	ldr.w	r1, [fp, r1, lsl #2]
 80087c8:	f842 1c08 	str.w	r1, [r2, #-8]
 80087cc:	f85b 1025 	ldr.w	r1, [fp, r5, lsl #2]
 80087d0:	f842 1c04 	str.w	r1, [r2, #-4]
 80087d4:	f81a 5f01 	ldrb.w	r5, [sl, #1]!
 80087d8:	45b2      	cmp	sl, r6
 80087da:	f102 0208 	add.w	r2, r2, #8
 80087de:	d1ee      	bne.n	80087be <_DrawBitmap+0x5be>
 80087e0:	eb04 04c0 	add.w	r4, r4, r0, lsl #3
 80087e4:	2b00      	cmp	r3, #0
 80087e6:	f000 8083 	beq.w	80088f0 <_DrawBitmap+0x6f0>
 80087ea:	092d      	lsrs	r5, r5, #4
 80087ec:	f85b 3025 	ldr.w	r3, [fp, r5, lsl #2]
 80087f0:	6023      	str	r3, [r4, #0]
 80087f2:	e07d      	b.n	80088f0 <_DrawBitmap+0x6f0>
 80087f4:	9a1e      	ldr	r2, [sp, #120]	; 0x78
 80087f6:	9e0f      	ldr	r6, [sp, #60]	; 0x3c
 80087f8:	b1ba      	cbz	r2, 800882a <_DrawBitmap+0x62a>
 80087fa:	f013 0ff0 	tst.w	r3, #240	; 0xf0
 80087fe:	d00a      	beq.n	8008816 <_DrawBitmap+0x616>
 8008800:	092d      	lsrs	r5, r5, #4
 8008802:	f85b 3025 	ldr.w	r3, [fp, r5, lsl #2]
 8008806:	6023      	str	r3, [r4, #0]
 8008808:	b12e      	cbz	r6, 8008816 <_DrawBitmap+0x616>
 800880a:	68b3      	ldr	r3, [r6, #8]
 800880c:	9a05      	ldr	r2, [sp, #20]
 800880e:	681b      	ldr	r3, [r3, #0]
 8008810:	9903      	ldr	r1, [sp, #12]
 8008812:	4630      	mov	r0, r6
 8008814:	4798      	blx	r3
 8008816:	9b03      	ldr	r3, [sp, #12]
 8008818:	9c07      	ldr	r4, [sp, #28]
 800881a:	1c5f      	adds	r7, r3, #1
 800881c:	9b02      	ldr	r3, [sp, #8]
 800881e:	f103 38ff 	add.w	r8, r3, #4294967295	; 0xffffffff
 8008822:	9b04      	ldr	r3, [sp, #16]
 8008824:	781d      	ldrb	r5, [r3, #0]
 8008826:	469a      	mov	sl, r3
 8008828:	e00f      	b.n	800884a <_DrawBitmap+0x64a>
 800882a:	f8dd 8008 	ldr.w	r8, [sp, #8]
 800882e:	9f03      	ldr	r7, [sp, #12]
 8008830:	e00b      	b.n	800884a <_DrawBitmap+0x64a>
 8008832:	f015 0ff0 	tst.w	r5, #240	; 0xf0
 8008836:	d10c      	bne.n	8008852 <_DrawBitmap+0x652>
 8008838:	f015 050f 	ands.w	r5, r5, #15
 800883c:	d116      	bne.n	800886c <_DrawBitmap+0x66c>
 800883e:	f81a 5f01 	ldrb.w	r5, [sl, #1]!
 8008842:	3408      	adds	r4, #8
 8008844:	3702      	adds	r7, #2
 8008846:	f1a8 0802 	sub.w	r8, r8, #2
 800884a:	f1b8 0f01 	cmp.w	r8, #1
 800884e:	dcf0      	bgt.n	8008832 <_DrawBitmap+0x632>
 8008850:	e018      	b.n	8008884 <_DrawBitmap+0x684>
 8008852:	092b      	lsrs	r3, r5, #4
 8008854:	f85b 3023 	ldr.w	r3, [fp, r3, lsl #2]
 8008858:	6023      	str	r3, [r4, #0]
 800885a:	2e00      	cmp	r6, #0
 800885c:	d0ec      	beq.n	8008838 <_DrawBitmap+0x638>
 800885e:	68b3      	ldr	r3, [r6, #8]
 8008860:	9a05      	ldr	r2, [sp, #20]
 8008862:	681b      	ldr	r3, [r3, #0]
 8008864:	4639      	mov	r1, r7
 8008866:	4630      	mov	r0, r6
 8008868:	4798      	blx	r3
 800886a:	e7e5      	b.n	8008838 <_DrawBitmap+0x638>
 800886c:	f85b 3025 	ldr.w	r3, [fp, r5, lsl #2]
 8008870:	6063      	str	r3, [r4, #4]
 8008872:	2e00      	cmp	r6, #0
 8008874:	d0e3      	beq.n	800883e <_DrawBitmap+0x63e>
 8008876:	68b3      	ldr	r3, [r6, #8]
 8008878:	9a05      	ldr	r2, [sp, #20]
 800887a:	681b      	ldr	r3, [r3, #0]
 800887c:	1c79      	adds	r1, r7, #1
 800887e:	4630      	mov	r0, r6
 8008880:	4798      	blx	r3
 8008882:	e7dc      	b.n	800883e <_DrawBitmap+0x63e>
 8008884:	f1b8 0f00 	cmp.w	r8, #0
 8008888:	d032      	beq.n	80088f0 <_DrawBitmap+0x6f0>
 800888a:	092d      	lsrs	r5, r5, #4
 800888c:	d030      	beq.n	80088f0 <_DrawBitmap+0x6f0>
 800888e:	f85b 3025 	ldr.w	r3, [fp, r5, lsl #2]
 8008892:	6023      	str	r3, [r4, #0]
 8008894:	b366      	cbz	r6, 80088f0 <_DrawBitmap+0x6f0>
 8008896:	68b3      	ldr	r3, [r6, #8]
 8008898:	9a05      	ldr	r2, [sp, #20]
 800889a:	681b      	ldr	r3, [r3, #0]
 800889c:	4639      	mov	r1, r7
 800889e:	4630      	mov	r0, r6
 80088a0:	4798      	blx	r3
 80088a2:	e025      	b.n	80088f0 <_DrawBitmap+0x6f0>
 80088a4:	9b1e      	ldr	r3, [sp, #120]	; 0x78
 80088a6:	9a02      	ldr	r2, [sp, #8]
 80088a8:	f1c3 0302 	rsb	r3, r3, #2
 80088ac:	b2db      	uxtb	r3, r3
 80088ae:	4293      	cmp	r3, r2
 80088b0:	bfc8      	it	gt
 80088b2:	b2d3      	uxtbgt	r3, r2
 80088b4:	1ad2      	subs	r2, r2, r3
 80088b6:	4619      	mov	r1, r3
 80088b8:	4626      	mov	r6, r4
 80088ba:	f015 0fc0 	tst.w	r5, #192	; 0xc0
 80088be:	bf18      	it	ne
 80088c0:	6830      	ldrne	r0, [r6, #0]
 80088c2:	f101 31ff 	add.w	r1, r1, #4294967295	; 0xffffffff
 80088c6:	bf1c      	itt	ne
 80088c8:	f080 00ff 	eorne.w	r0, r0, #255	; 0xff
 80088cc:	6030      	strne	r0, [r6, #0]
 80088ce:	012d      	lsls	r5, r5, #4
 80088d0:	f011 01ff 	ands.w	r1, r1, #255	; 0xff
 80088d4:	f106 0604 	add.w	r6, r6, #4
 80088d8:	b2ed      	uxtb	r5, r5
 80088da:	d1ee      	bne.n	80088ba <_DrawBitmap+0x6ba>
 80088dc:	3b01      	subs	r3, #1
 80088de:	b2db      	uxtb	r3, r3
 80088e0:	3301      	adds	r3, #1
 80088e2:	eb04 0483 	add.w	r4, r4, r3, lsl #2
 80088e6:	b11a      	cbz	r2, 80088f0 <_DrawBitmap+0x6f0>
 80088e8:	f81a 5f01 	ldrb.w	r5, [sl, #1]!
 80088ec:	2302      	movs	r3, #2
 80088ee:	e7de      	b.n	80088ae <_DrawBitmap+0x6ae>
 80088f0:	9b05      	ldr	r3, [sp, #20]
 80088f2:	9a1c      	ldr	r2, [sp, #112]	; 0x70
 80088f4:	3301      	adds	r3, #1
 80088f6:	9305      	str	r3, [sp, #20]
 80088f8:	9b04      	ldr	r3, [sp, #16]
 80088fa:	4413      	add	r3, r2
 80088fc:	9304      	str	r3, [sp, #16]
 80088fe:	9a08      	ldr	r2, [sp, #32]
 8008900:	9b07      	ldr	r3, [sp, #28]
 8008902:	4413      	add	r3, r2
 8008904:	9307      	str	r3, [sp, #28]
 8008906:	e5ec      	b.n	80084e2 <_DrawBitmap+0x2e2>
 8008908:	9b0f      	ldr	r3, [sp, #60]	; 0x3c
 800890a:	b113      	cbz	r3, 8008912 <_DrawBitmap+0x712>
 800890c:	a80f      	add	r0, sp, #60	; 0x3c
 800890e:	f7fc fdb3 	bl	8005478 <GUI_ALLOC_UnlockH>
 8008912:	b011      	add	sp, #68	; 0x44
 8008914:	e8bd 8ff0 	ldmia.w	sp!, {r4, r5, r6, r7, r8, r9, sl, fp, pc}

08008918 <GUI_USAGE_DecUseCnt>:
 8008918:	b537      	push	{r0, r1, r2, r4, r5, lr}
 800891a:	4605      	mov	r5, r0
 800891c:	f7fc fd9e 	bl	800545c <GUI_ALLOC_LockH>
 8008920:	ab02      	add	r3, sp, #8
 8008922:	8984      	ldrh	r4, [r0, #12]
 8008924:	f843 0d04 	str.w	r0, [r3, #-4]!
 8008928:	3c01      	subs	r4, #1
 800892a:	b224      	sxth	r4, r4
 800892c:	8184      	strh	r4, [r0, #12]
 800892e:	4618      	mov	r0, r3
 8008930:	f7fc fda2 	bl	8005478 <GUI_ALLOC_UnlockH>
 8008934:	b914      	cbnz	r4, 800893c <GUI_USAGE_DecUseCnt+0x24>
 8008936:	4628      	mov	r0, r5
 8008938:	f7fc fdbe 	bl	80054b8 <GUI_ALLOC_Free>
 800893c:	b003      	add	sp, #12
 800893e:	bd30      	pop	{r4, r5, pc}

08008940 <GUI_USAGE_AddRect>:
 8008940:	e92d 43f8 	stmdb	sp!, {r3, r4, r5, r6, r7, r8, r9, lr}
 8008944:	9c08      	ldr	r4, [sp, #32]
 8008946:	4605      	mov	r5, r0
 8008948:	4688      	mov	r8, r1
 800894a:	4699      	mov	r9, r3
 800894c:	4414      	add	r4, r2
 800894e:	68ab      	ldr	r3, [r5, #8]
 8008950:	1c56      	adds	r6, r2, #1
 8008952:	685f      	ldr	r7, [r3, #4]
 8008954:	4641      	mov	r1, r8
 8008956:	464b      	mov	r3, r9
 8008958:	4628      	mov	r0, r5
 800895a:	47b8      	blx	r7
 800895c:	42b4      	cmp	r4, r6
 800895e:	4632      	mov	r2, r6
 8008960:	d1f5      	bne.n	800894e <GUI_USAGE_AddRect+0xe>
 8008962:	e8bd 83f8 	ldmia.w	sp!, {r3, r4, r5, r6, r7, r8, r9, pc}
	...

08008968 <GUI_MEMDEV__WriteToActiveAlpha>:
 8008968:	e92d 4ff0 	stmdb	sp!, {r4, r5, r6, r7, r8, r9, sl, fp, lr}
 800896c:	4c5c      	ldr	r4, [pc, #368]	; (8008ae0 <GUI_MEMDEV__WriteToActiveAlpha+0x178>)
 800896e:	4f5d      	ldr	r7, [pc, #372]	; (8008ae4 <GUI_MEMDEV__WriteToActiveAlpha+0x17c>)
 8008970:	6823      	ldr	r3, [r4, #0]
 8008972:	7c5b      	ldrb	r3, [r3, #17]
 8008974:	b091      	sub	sp, #68	; 0x44
 8008976:	f857 3023 	ldr.w	r3, [r7, r3, lsl #2]
 800897a:	900c      	str	r0, [sp, #48]	; 0x30
 800897c:	4688      	mov	r8, r1
 800897e:	4615      	mov	r5, r2
 8008980:	f8d3 a010 	ldr.w	sl, [r3, #16]
 8008984:	f7fc fd6a 	bl	800545c <GUI_ALLOC_LockH>
 8008988:	4603      	mov	r3, r0
 800898a:	a810      	add	r0, sp, #64	; 0x40
 800898c:	f9b3 6008 	ldrsh.w	r6, [r3, #8]
 8008990:	f840 3d08 	str.w	r3, [r0, #-8]!
 8008994:	f9b3 900a 	ldrsh.w	r9, [r3, #10]
 8008998:	681b      	ldr	r3, [r3, #0]
 800899a:	691b      	ldr	r3, [r3, #16]
 800899c:	685b      	ldr	r3, [r3, #4]
 800899e:	9308      	str	r3, [sp, #32]
 80089a0:	f7fc fd6a 	bl	8005478 <GUI_ALLOC_UnlockH>
 80089a4:	6823      	ldr	r3, [r4, #0]
 80089a6:	7c5b      	ldrb	r3, [r3, #17]
 80089a8:	f857 0023 	ldr.w	r0, [r7, r3, lsl #2]
 80089ac:	68c3      	ldr	r3, [r0, #12]
 80089ae:	2108      	movs	r1, #8
 80089b0:	6a9b      	ldr	r3, [r3, #40]	; 0x28
 80089b2:	4798      	blx	r3
 80089b4:	2817      	cmp	r0, #23
 80089b6:	4607      	mov	r7, r0
 80089b8:	d804      	bhi.n	80089c4 <GUI_MEMDEV__WriteToActiveAlpha+0x5c>
 80089ba:	2803      	cmp	r0, #3
 80089bc:	bf14      	ite	ne
 80089be:	4607      	movne	r7, r0
 80089c0:	2708      	moveq	r7, #8
 80089c2:	e000      	b.n	80089c6 <GUI_MEMDEV__WriteToActiveAlpha+0x5e>
 80089c4:	2720      	movs	r7, #32
 80089c6:	f8da 3004 	ldr.w	r3, [sl, #4]
 80089ca:	9309      	str	r3, [sp, #36]	; 0x24
 80089cc:	2000      	movs	r0, #0
 80089ce:	f8da 3000 	ldr.w	r3, [sl]
 80089d2:	930a      	str	r3, [sp, #40]	; 0x28
 80089d4:	f7fd fd6e 	bl	80064b4 <GUI__AllocAlphaBuffer>
 80089d8:	2800      	cmp	r0, #0
 80089da:	d17e      	bne.n	8008ada <GUI_MEMDEV__WriteToActiveAlpha+0x172>
 80089dc:	6822      	ldr	r2, [r4, #0]
 80089de:	eb08 0406 	add.w	r4, r8, r6
 80089e2:	f9b2 300c 	ldrsh.w	r3, [r2, #12]
 80089e6:	3c01      	subs	r4, #1
 80089e8:	1ae4      	subs	r4, r4, r3
 80089ea:	f9b2 3008 	ldrsh.w	r3, [r2, #8]
 80089ee:	2c00      	cmp	r4, #0
 80089f0:	bfcc      	ite	gt
 80089f2:	1b34      	subgt	r4, r6, r4
 80089f4:	4634      	movle	r4, r6
 80089f6:	4598      	cmp	r8, r3
 80089f8:	bfbd      	ittte	lt
 80089fa:	ebc8 0103 	rsblt	r1, r8, r3
 80089fe:	1a64      	sublt	r4, r4, r1
 8008a00:	4698      	movlt	r8, r3
 8008a02:	2100      	movge	r1, #0
 8008a04:	2c00      	cmp	r4, #0
 8008a06:	dd68      	ble.n	8008ada <GUI_MEMDEV__WriteToActiveAlpha+0x172>
 8008a08:	eb05 0309 	add.w	r3, r5, r9
 8008a0c:	f9b2 000e 	ldrsh.w	r0, [r2, #14]
 8008a10:	f9b2 200a 	ldrsh.w	r2, [r2, #10]
 8008a14:	3b01      	subs	r3, #1
 8008a16:	1a1b      	subs	r3, r3, r0
 8008a18:	2b00      	cmp	r3, #0
 8008a1a:	bfc8      	it	gt
 8008a1c:	ebc3 0909 	rsbgt	r9, r3, r9
 8008a20:	4295      	cmp	r5, r2
 8008a22:	bfbd      	ittte	lt
 8008a24:	1b53      	sublt	r3, r2, r5
 8008a26:	ebc3 0909 	rsblt	r9, r3, r9
 8008a2a:	4615      	movlt	r5, r2
 8008a2c:	2300      	movge	r3, #0
 8008a2e:	f1b9 0f00 	cmp.w	r9, #0
 8008a32:	dd52      	ble.n	8008ada <GUI_MEMDEV__WriteToActiveAlpha+0x172>
 8008a34:	fb03 1106 	mla	r1, r3, r6, r1
 8008a38:	008b      	lsls	r3, r1, #2
 8008a3a:	9307      	str	r3, [sp, #28]
 8008a3c:	eb05 0309 	add.w	r3, r5, r9
 8008a40:	930b      	str	r3, [sp, #44]	; 0x2c
 8008a42:	980c      	ldr	r0, [sp, #48]	; 0x30
 8008a44:	f002 fc22 	bl	800b28c <GUI_MEMDEV_GetDataPtr>
 8008a48:	ab0f      	add	r3, sp, #60	; 0x3c
 8008a4a:	9a07      	ldr	r2, [sp, #28]
 8008a4c:	9301      	str	r3, [sp, #4]
 8008a4e:	9b08      	ldr	r3, [sp, #32]
 8008a50:	9300      	str	r3, [sp, #0]
 8008a52:	1882      	adds	r2, r0, r2
 8008a54:	4623      	mov	r3, r4
 8008a56:	4629      	mov	r1, r5
 8008a58:	4640      	mov	r0, r8
 8008a5a:	f7fd fc41 	bl	80062e0 <GUI__DoAlphaBlending>
 8008a5e:	4681      	mov	r9, r0
 8008a60:	2800      	cmp	r0, #0
 8008a62:	d03a      	beq.n	8008ada <GUI_MEMDEV__WriteToActiveAlpha+0x172>
 8008a64:	9b09      	ldr	r3, [sp, #36]	; 0x24
 8008a66:	461a      	mov	r2, r3
 8008a68:	4b1f      	ldr	r3, [pc, #124]	; (8008ae8 <GUI_MEMDEV__WriteToActiveAlpha+0x180>)
 8008a6a:	429a      	cmp	r2, r3
 8008a6c:	d01c      	beq.n	8008aa8 <GUI_MEMDEV__WriteToActiveAlpha+0x140>
 8008a6e:	4653      	mov	r3, sl
 8008a70:	463a      	mov	r2, r7
 8008a72:	4621      	mov	r1, r4
 8008a74:	f002 fb2c 	bl	800b0d0 <GUI__CompactPixelIndicesEx>
 8008a78:	b9b0      	cbnz	r0, 8008aa8 <GUI_MEMDEV__WriteToActiveAlpha+0x140>
 8008a7a:	f8da b010 	ldr.w	fp, [sl, #16]
 8008a7e:	f1bb 0f00 	cmp.w	fp, #0
 8008a82:	d005      	beq.n	8008a90 <GUI_MEMDEV__WriteToActiveAlpha+0x128>
 8008a84:	2304      	movs	r3, #4
 8008a86:	4632      	mov	r2, r6
 8008a88:	4649      	mov	r1, r9
 8008a8a:	4648      	mov	r0, r9
 8008a8c:	47d8      	blx	fp
 8008a8e:	e00b      	b.n	8008aa8 <GUI_MEMDEV__WriteToActiveAlpha+0x140>
 8008a90:	464b      	mov	r3, r9
 8008a92:	46b3      	mov	fp, r6
 8008a94:	6818      	ldr	r0, [r3, #0]
 8008a96:	930d      	str	r3, [sp, #52]	; 0x34
 8008a98:	9b0a      	ldr	r3, [sp, #40]	; 0x28
 8008a9a:	4798      	blx	r3
 8008a9c:	9b0d      	ldr	r3, [sp, #52]	; 0x34
 8008a9e:	f1bb 0b01 	subs.w	fp, fp, #1
 8008aa2:	f843 0b04 	str.w	r0, [r3], #4
 8008aa6:	d1f5      	bne.n	8008a94 <GUI_MEMDEV__WriteToActiveAlpha+0x12c>
 8008aa8:	2300      	movs	r3, #0
 8008aaa:	9305      	str	r3, [sp, #20]
 8008aac:	9303      	str	r3, [sp, #12]
 8008aae:	2301      	movs	r3, #1
 8008ab0:	9301      	str	r3, [sp, #4]
 8008ab2:	9300      	str	r3, [sp, #0]
 8008ab4:	f8cd 9010 	str.w	r9, [sp, #16]
 8008ab8:	9702      	str	r7, [sp, #8]
 8008aba:	4622      	mov	r2, r4
 8008abc:	4629      	mov	r1, r5
 8008abe:	4640      	mov	r0, r8
 8008ac0:	f7fd fef2 	bl	80068a8 <LCD_DrawBitmap>
 8008ac4:	9b07      	ldr	r3, [sp, #28]
 8008ac6:	eb03 0386 	add.w	r3, r3, r6, lsl #2
 8008aca:	9307      	str	r3, [sp, #28]
 8008acc:	9b0b      	ldr	r3, [sp, #44]	; 0x2c
 8008ace:	f105 0b01 	add.w	fp, r5, #1
 8008ad2:	459b      	cmp	fp, r3
 8008ad4:	d001      	beq.n	8008ada <GUI_MEMDEV__WriteToActiveAlpha+0x172>
 8008ad6:	465d      	mov	r5, fp
 8008ad8:	e7b3      	b.n	8008a42 <GUI_MEMDEV__WriteToActiveAlpha+0xda>
 8008ada:	b011      	add	sp, #68	; 0x44
 8008adc:	e8bd 8ff0 	ldmia.w	sp!, {r4, r5, r6, r7, r8, r9, sl, fp, pc}
 8008ae0:	20000098 	.word	0x20000098
 8008ae4:	20029160 	.word	0x20029160
 8008ae8:	08009f9f 	.word	0x08009f9f

08008aec <_OnExit>:
 8008aec:	4b18      	ldr	r3, [pc, #96]	; (8008b50 <_OnExit+0x64>)
 8008aee:	4819      	ldr	r0, [pc, #100]	; (8008b54 <_OnExit+0x68>)
 8008af0:	4a19      	ldr	r2, [pc, #100]	; (8008b58 <_OnExit+0x6c>)
 8008af2:	b570      	push	{r4, r5, r6, lr}
 8008af4:	2400      	movs	r4, #0
 8008af6:	601c      	str	r4, [r3, #0]
 8008af8:	4b18      	ldr	r3, [pc, #96]	; (8008b5c <_OnExit+0x70>)
 8008afa:	4d19      	ldr	r5, [pc, #100]	; (8008b60 <_OnExit+0x74>)
 8008afc:	601c      	str	r4, [r3, #0]
 8008afe:	605c      	str	r4, [r3, #4]
 8008b00:	4b18      	ldr	r3, [pc, #96]	; (8008b64 <_OnExit+0x78>)
 8008b02:	7004      	strb	r4, [r0, #0]
 8008b04:	601c      	str	r4, [r3, #0]
 8008b06:	4b18      	ldr	r3, [pc, #96]	; (8008b68 <_OnExit+0x7c>)
 8008b08:	6044      	str	r4, [r0, #4]
 8008b0a:	601c      	str	r4, [r3, #0]
 8008b0c:	4b17      	ldr	r3, [pc, #92]	; (8008b6c <_OnExit+0x80>)
 8008b0e:	6014      	str	r4, [r2, #0]
 8008b10:	601c      	str	r4, [r3, #0]
 8008b12:	4b17      	ldr	r3, [pc, #92]	; (8008b70 <_OnExit+0x84>)
 8008b14:	6054      	str	r4, [r2, #4]
 8008b16:	601c      	str	r4, [r3, #0]
 8008b18:	6084      	str	r4, [r0, #8]
 8008b1a:	682b      	ldr	r3, [r5, #0]
 8008b1c:	4621      	mov	r1, r4
 8008b1e:	2218      	movs	r2, #24
 8008b20:	300c      	adds	r0, #12
 8008b22:	4798      	blx	r3
 8008b24:	4b13      	ldr	r3, [pc, #76]	; (8008b74 <_OnExit+0x88>)
 8008b26:	4814      	ldr	r0, [pc, #80]	; (8008b78 <_OnExit+0x8c>)
 8008b28:	601c      	str	r4, [r3, #0]
 8008b2a:	4b14      	ldr	r3, [pc, #80]	; (8008b7c <_OnExit+0x90>)
 8008b2c:	4621      	mov	r1, r4
 8008b2e:	601c      	str	r4, [r3, #0]
 8008b30:	605c      	str	r4, [r3, #4]
 8008b32:	2210      	movs	r2, #16
 8008b34:	682b      	ldr	r3, [r5, #0]
 8008b36:	4798      	blx	r3
 8008b38:	682b      	ldr	r3, [r5, #0]
 8008b3a:	4811      	ldr	r0, [pc, #68]	; (8008b80 <_OnExit+0x94>)
 8008b3c:	4621      	mov	r1, r4
 8008b3e:	2210      	movs	r2, #16
 8008b40:	4798      	blx	r3
 8008b42:	682b      	ldr	r3, [r5, #0]
 8008b44:	480f      	ldr	r0, [pc, #60]	; (8008b84 <_OnExit+0x98>)
 8008b46:	4621      	mov	r1, r4
 8008b48:	2210      	movs	r2, #16
 8008b4a:	e8bd 4070 	ldmia.w	sp!, {r4, r5, r6, lr}
 8008b4e:	4718      	bx	r3
 8008b50:	200291b8 	.word	0x200291b8
 8008b54:	20028f20 	.word	0x20028f20
 8008b58:	2002918c 	.word	0x2002918c
 8008b5c:	200291c0 	.word	0x200291c0
 8008b60:	200000a8 	.word	0x200000a8
 8008b64:	200291cc 	.word	0x200291cc
 8008b68:	20029178 	.word	0x20029178
 8008b6c:	200291ac 	.word	0x200291ac
 8008b70:	200291bc 	.word	0x200291bc
 8008b74:	20029188 	.word	0x20029188
 8008b78:	200291f0 	.word	0x200291f0
 8008b7c:	2002917c 	.word	0x2002917c
 8008b80:	200291e0 	.word	0x200291e0
 8008b84:	200291d0 	.word	0x200291d0

08008b88 <_Findy1>:
 8008b88:	b5f0      	push	{r4, r5, r6, r7, lr}
 8008b8a:	b085      	sub	sp, #20
 8008b8c:	4607      	mov	r7, r0
 8008b8e:	460c      	mov	r4, r1
 8008b90:	4616      	mov	r6, r2
 8008b92:	ad02      	add	r5, sp, #8
 8008b94:	2f00      	cmp	r7, #0
 8008b96:	d048      	beq.n	8008c2a <_Findy1+0xa2>
 8008b98:	4638      	mov	r0, r7
 8008b9a:	f7fc fc5f 	bl	800545c <GUI_ALLOC_LockH>
 8008b9e:	6a87      	ldr	r7, [r0, #40]	; 0x28
 8008ba0:	9001      	str	r0, [sp, #4]
 8008ba2:	07bb      	lsls	r3, r7, #30
 8008ba4:	4601      	mov	r1, r0
 8008ba6:	d53a      	bpl.n	8008c1e <_Findy1+0x96>
 8008ba8:	b126      	cbz	r6, 8008bb4 <_Findy1+0x2c>
 8008baa:	4632      	mov	r2, r6
 8008bac:	4628      	mov	r0, r5
 8008bae:	f7fd fd82 	bl	80066b6 <GUI__IntersectRects>
 8008bb2:	e002      	b.n	8008bba <_Findy1+0x32>
 8008bb4:	c803      	ldmia	r0, {r0, r1}
 8008bb6:	e885 0003 	stmia.w	r5, {r0, r1}
 8008bba:	4629      	mov	r1, r5
 8008bbc:	4620      	mov	r0, r4
 8008bbe:	f7fc feef 	bl	80059a0 <GUI_RectsIntersect>
 8008bc2:	b360      	cbz	r0, 8008c1e <_Findy1+0x96>
 8008bc4:	f017 0f01 	tst.w	r7, #1
 8008bc8:	9b01      	ldr	r3, [sp, #4]
 8008bca:	d11c      	bne.n	8008c06 <_Findy1+0x7e>
 8008bcc:	b13e      	cbz	r6, 8008bde <_Findy1+0x56>
 8008bce:	f9b3 2002 	ldrsh.w	r2, [r3, #2]
 8008bd2:	f9b6 3002 	ldrsh.w	r3, [r6, #2]
 8008bd6:	4293      	cmp	r3, r2
 8008bd8:	bfb8      	it	lt
 8008bda:	4613      	movlt	r3, r2
 8008bdc:	e001      	b.n	8008be2 <_Findy1+0x5a>
 8008bde:	f9b3 3002 	ldrsh.w	r3, [r3, #2]
 8008be2:	f9b4 2002 	ldrsh.w	r2, [r4, #2]
 8008be6:	4293      	cmp	r3, r2
 8008be8:	f9b4 2006 	ldrsh.w	r2, [r4, #6]
 8008bec:	dd05      	ble.n	8008bfa <_Findy1+0x72>
 8008bee:	f9bd 300a 	ldrsh.w	r3, [sp, #10]
 8008bf2:	429a      	cmp	r2, r3
 8008bf4:	db13      	blt.n	8008c1e <_Findy1+0x96>
 8008bf6:	3b01      	subs	r3, #1
 8008bf8:	e003      	b.n	8008c02 <_Findy1+0x7a>
 8008bfa:	f9bd 300e 	ldrsh.w	r3, [sp, #14]
 8008bfe:	429a      	cmp	r2, r3
 8008c00:	dd0d      	ble.n	8008c1e <_Findy1+0x96>
 8008c02:	80e3      	strh	r3, [r4, #6]
 8008c04:	e00b      	b.n	8008c1e <_Findy1+0x96>
 8008c06:	69df      	ldr	r7, [r3, #28]
 8008c08:	b14f      	cbz	r7, 8008c1e <_Findy1+0x96>
 8008c0a:	4638      	mov	r0, r7
 8008c0c:	462a      	mov	r2, r5
 8008c0e:	4621      	mov	r1, r4
 8008c10:	f7ff ffba 	bl	8008b88 <_Findy1>
 8008c14:	4638      	mov	r0, r7
 8008c16:	f7fc fc17 	bl	8005448 <GUI_ALLOC_h2p>
 8008c1a:	6a07      	ldr	r7, [r0, #32]
 8008c1c:	e7f4      	b.n	8008c08 <_Findy1+0x80>
 8008c1e:	9b01      	ldr	r3, [sp, #4]
 8008c20:	a801      	add	r0, sp, #4
 8008c22:	6a1f      	ldr	r7, [r3, #32]
 8008c24:	f7fc fc28 	bl	8005478 <GUI_ALLOC_UnlockH>
 8008c28:	e7b4      	b.n	8008b94 <_Findy1+0xc>
 8008c2a:	b005      	add	sp, #20
 8008c2c:	bdf0      	pop	{r4, r5, r6, r7, pc}

08008c2e <_Findx0>:
 8008c2e:	e92d 41ff 	stmdb	sp!, {r0, r1, r2, r3, r4, r5, r6, r7, r8, lr}
 8008c32:	4606      	mov	r6, r0
 8008c34:	460f      	mov	r7, r1
 8008c36:	4690      	mov	r8, r2
 8008c38:	2500      	movs	r5, #0
 8008c3a:	ac02      	add	r4, sp, #8
 8008c3c:	2e00      	cmp	r6, #0
 8008c3e:	d035      	beq.n	8008cac <_Findx0+0x7e>
 8008c40:	4630      	mov	r0, r6
 8008c42:	f7fc fc0b 	bl	800545c <GUI_ALLOC_LockH>
 8008c46:	6a86      	ldr	r6, [r0, #40]	; 0x28
 8008c48:	9001      	str	r0, [sp, #4]
 8008c4a:	07b2      	lsls	r2, r6, #30
 8008c4c:	4601      	mov	r1, r0
 8008c4e:	d527      	bpl.n	8008ca0 <_Findx0+0x72>
 8008c50:	f1b8 0f00 	cmp.w	r8, #0
 8008c54:	d004      	beq.n	8008c60 <_Findx0+0x32>
 8008c56:	4642      	mov	r2, r8
 8008c58:	4620      	mov	r0, r4
 8008c5a:	f7fd fd2c 	bl	80066b6 <GUI__IntersectRects>
 8008c5e:	e002      	b.n	8008c66 <_Findx0+0x38>
 8008c60:	c803      	ldmia	r0, {r0, r1}
 8008c62:	e884 0003 	stmia.w	r4, {r0, r1}
 8008c66:	4621      	mov	r1, r4
 8008c68:	4638      	mov	r0, r7
 8008c6a:	f7fc fe99 	bl	80059a0 <GUI_RectsIntersect>
 8008c6e:	b1b8      	cbz	r0, 8008ca0 <_Findx0+0x72>
 8008c70:	07f3      	lsls	r3, r6, #31
 8008c72:	d405      	bmi.n	8008c80 <_Findx0+0x52>
 8008c74:	f8bd 300c 	ldrh.w	r3, [sp, #12]
 8008c78:	3301      	adds	r3, #1
 8008c7a:	803b      	strh	r3, [r7, #0]
 8008c7c:	2501      	movs	r5, #1
 8008c7e:	e00f      	b.n	8008ca0 <_Findx0+0x72>
 8008c80:	9b01      	ldr	r3, [sp, #4]
 8008c82:	69de      	ldr	r6, [r3, #28]
 8008c84:	b166      	cbz	r6, 8008ca0 <_Findx0+0x72>
 8008c86:	4622      	mov	r2, r4
 8008c88:	4639      	mov	r1, r7
 8008c8a:	4630      	mov	r0, r6
 8008c8c:	f7ff ffcf 	bl	8008c2e <_Findx0>
 8008c90:	2800      	cmp	r0, #0
 8008c92:	4630      	mov	r0, r6
 8008c94:	bf18      	it	ne
 8008c96:	2501      	movne	r5, #1
 8008c98:	f7fc fbd6 	bl	8005448 <GUI_ALLOC_h2p>
 8008c9c:	6a06      	ldr	r6, [r0, #32]
 8008c9e:	e7f1      	b.n	8008c84 <_Findx0+0x56>
 8008ca0:	9b01      	ldr	r3, [sp, #4]
 8008ca2:	a801      	add	r0, sp, #4
 8008ca4:	6a1e      	ldr	r6, [r3, #32]
 8008ca6:	f7fc fbe7 	bl	8005478 <GUI_ALLOC_UnlockH>
 8008caa:	e7c7      	b.n	8008c3c <_Findx0+0xe>
 8008cac:	4628      	mov	r0, r5
 8008cae:	b004      	add	sp, #16
 8008cb0:	e8bd 81f0 	ldmia.w	sp!, {r4, r5, r6, r7, r8, pc}

08008cb4 <_Findx1>:
 8008cb4:	b5f0      	push	{r4, r5, r6, r7, lr}
 8008cb6:	b085      	sub	sp, #20
 8008cb8:	4605      	mov	r5, r0
 8008cba:	460e      	mov	r6, r1
 8008cbc:	4617      	mov	r7, r2
 8008cbe:	ac02      	add	r4, sp, #8
 8008cc0:	b37d      	cbz	r5, 8008d22 <_Findx1+0x6e>
 8008cc2:	4628      	mov	r0, r5
 8008cc4:	f7fc fbca 	bl	800545c <GUI_ALLOC_LockH>
 8008cc8:	6a85      	ldr	r5, [r0, #40]	; 0x28
 8008cca:	9001      	str	r0, [sp, #4]
 8008ccc:	07aa      	lsls	r2, r5, #30
 8008cce:	4601      	mov	r1, r0
 8008cd0:	d521      	bpl.n	8008d16 <_Findx1+0x62>
 8008cd2:	b127      	cbz	r7, 8008cde <_Findx1+0x2a>
 8008cd4:	463a      	mov	r2, r7
 8008cd6:	4620      	mov	r0, r4
 8008cd8:	f7fd fced 	bl	80066b6 <GUI__IntersectRects>
 8008cdc:	e002      	b.n	8008ce4 <_Findx1+0x30>
 8008cde:	c803      	ldmia	r0, {r0, r1}
 8008ce0:	e884 0003 	stmia.w	r4, {r0, r1}
 8008ce4:	4621      	mov	r1, r4
 8008ce6:	4630      	mov	r0, r6
 8008ce8:	f7fc fe5a 	bl	80059a0 <GUI_RectsIntersect>
 8008cec:	b198      	cbz	r0, 8008d16 <_Findx1+0x62>
 8008cee:	07eb      	lsls	r3, r5, #31
 8008cf0:	d404      	bmi.n	8008cfc <_Findx1+0x48>
 8008cf2:	f8bd 3008 	ldrh.w	r3, [sp, #8]
 8008cf6:	3b01      	subs	r3, #1
 8008cf8:	80b3      	strh	r3, [r6, #4]
 8008cfa:	e00c      	b.n	8008d16 <_Findx1+0x62>
 8008cfc:	9b01      	ldr	r3, [sp, #4]
 8008cfe:	69dd      	ldr	r5, [r3, #28]
 8008d00:	b14d      	cbz	r5, 8008d16 <_Findx1+0x62>
 8008d02:	4628      	mov	r0, r5
 8008d04:	4622      	mov	r2, r4
 8008d06:	4631      	mov	r1, r6
 8008d08:	f7ff ffd4 	bl	8008cb4 <_Findx1>
 8008d0c:	4628      	mov	r0, r5
 8008d0e:	f7fc fb9b 	bl	8005448 <GUI_ALLOC_h2p>
 8008d12:	6a05      	ldr	r5, [r0, #32]
 8008d14:	e7f4      	b.n	8008d00 <_Findx1+0x4c>
 8008d16:	9b01      	ldr	r3, [sp, #4]
 8008d18:	a801      	add	r0, sp, #4
 8008d1a:	6a1d      	ldr	r5, [r3, #32]
 8008d1c:	f7fc fbac 	bl	8005478 <GUI_ALLOC_UnlockH>
 8008d20:	e7ce      	b.n	8008cc0 <_Findx1+0xc>
 8008d22:	b005      	add	sp, #20
 8008d24:	bdf0      	pop	{r4, r5, r6, r7, pc}
	...

08008d28 <WM__ClipAtParentBorders>:
 8008d28:	b573      	push	{r0, r1, r4, r5, r6, lr}
 8008d2a:	4606      	mov	r6, r0
 8008d2c:	460d      	mov	r5, r1
 8008d2e:	4628      	mov	r0, r5
 8008d30:	f7fc fb94 	bl	800545c <GUI_ALLOC_LockH>
 8008d34:	6a83      	ldr	r3, [r0, #40]	; 0x28
 8008d36:	9001      	str	r0, [sp, #4]
 8008d38:	f013 0402 	ands.w	r4, r3, #2
 8008d3c:	4601      	mov	r1, r0
 8008d3e:	d104      	bne.n	8008d4a <WM__ClipAtParentBorders+0x22>
 8008d40:	a801      	add	r0, sp, #4
 8008d42:	f7fc fb99 	bl	8005478 <GUI_ALLOC_UnlockH>
 8008d46:	4620      	mov	r0, r4
 8008d48:	e016      	b.n	8008d78 <WM__ClipAtParentBorders+0x50>
 8008d4a:	4630      	mov	r0, r6
 8008d4c:	f7fd fc96 	bl	800667c <GUI__IntersectRect>
 8008d50:	9b01      	ldr	r3, [sp, #4]
 8008d52:	699c      	ldr	r4, [r3, #24]
 8008d54:	a801      	add	r0, sp, #4
 8008d56:	b954      	cbnz	r4, 8008d6e <WM__ClipAtParentBorders+0x46>
 8008d58:	f7fc fb8e 	bl	8005478 <GUI_ALLOC_UnlockH>
 8008d5c:	4b07      	ldr	r3, [pc, #28]	; (8008d7c <WM__ClipAtParentBorders+0x54>)
 8008d5e:	681a      	ldr	r2, [r3, #0]
 8008d60:	4295      	cmp	r5, r2
 8008d62:	d008      	beq.n	8008d76 <WM__ClipAtParentBorders+0x4e>
 8008d64:	6858      	ldr	r0, [r3, #4]
 8008d66:	1b43      	subs	r3, r0, r5
 8008d68:	4258      	negs	r0, r3
 8008d6a:	4158      	adcs	r0, r3
 8008d6c:	e004      	b.n	8008d78 <WM__ClipAtParentBorders+0x50>
 8008d6e:	f7fc fb83 	bl	8005478 <GUI_ALLOC_UnlockH>
 8008d72:	4625      	mov	r5, r4
 8008d74:	e7db      	b.n	8008d2e <WM__ClipAtParentBorders+0x6>
 8008d76:	2001      	movs	r0, #1
 8008d78:	b002      	add	sp, #8
 8008d7a:	bd70      	pop	{r4, r5, r6, pc}
 8008d7c:	2002917c 	.word	0x2002917c

08008d80 <WM__InsertWindowIntoList>:
 8008d80:	e92d 41ff 	stmdb	sp!, {r0, r1, r2, r3, r4, r5, r6, r7, r8, lr}
 8008d84:	4606      	mov	r6, r0
 8008d86:	460c      	mov	r4, r1
 8008d88:	2900      	cmp	r1, #0
 8008d8a:	d04c      	beq.n	8008e26 <WM__InsertWindowIntoList+0xa6>
 8008d8c:	f7fc fb66 	bl	800545c <GUI_ALLOC_LockH>
 8008d90:	2300      	movs	r3, #0
 8008d92:	6184      	str	r4, [r0, #24]
 8008d94:	9001      	str	r0, [sp, #4]
 8008d96:	6203      	str	r3, [r0, #32]
 8008d98:	4620      	mov	r0, r4
 8008d9a:	f7fc fb5f 	bl	800545c <GUI_ALLOC_LockH>
 8008d9e:	ac04      	add	r4, sp, #16
 8008da0:	69c7      	ldr	r7, [r0, #28]
 8008da2:	f844 0d08 	str.w	r0, [r4, #-8]!
 8008da6:	b92f      	cbnz	r7, 8008db4 <WM__InsertWindowIntoList+0x34>
 8008da8:	61c6      	str	r6, [r0, #28]
 8008daa:	a801      	add	r0, sp, #4
 8008dac:	f7fc fb64 	bl	8005478 <GUI_ALLOC_UnlockH>
 8008db0:	4620      	mov	r0, r4
 8008db2:	e036      	b.n	8008e22 <WM__InsertWindowIntoList+0xa2>
 8008db4:	9b01      	ldr	r3, [sp, #4]
 8008db6:	4638      	mov	r0, r7
 8008db8:	6a9d      	ldr	r5, [r3, #40]	; 0x28
 8008dba:	f7fc fb4f 	bl	800545c <GUI_ALLOC_LockH>
 8008dbe:	f10d 0810 	add.w	r8, sp, #16
 8008dc2:	f005 0508 	and.w	r5, r5, #8
 8008dc6:	f848 0d04 	str.w	r0, [r8, #-4]!
 8008dca:	b975      	cbnz	r5, 8008dea <WM__InsertWindowIntoList+0x6a>
 8008dcc:	6a83      	ldr	r3, [r0, #40]	; 0x28
 8008dce:	071a      	lsls	r2, r3, #28
 8008dd0:	d50b      	bpl.n	8008dea <WM__InsertWindowIntoList+0x6a>
 8008dd2:	9b01      	ldr	r3, [sp, #4]
 8008dd4:	621f      	str	r7, [r3, #32]
 8008dd6:	9b02      	ldr	r3, [sp, #8]
 8008dd8:	a801      	add	r0, sp, #4
 8008dda:	61de      	str	r6, [r3, #28]
 8008ddc:	f7fc fb4c 	bl	8005478 <GUI_ALLOC_UnlockH>
 8008de0:	4620      	mov	r0, r4
 8008de2:	f7fc fb49 	bl	8005478 <GUI_ALLOC_UnlockH>
 8008de6:	4640      	mov	r0, r8
 8008de8:	e01b      	b.n	8008e22 <WM__InsertWindowIntoList+0xa2>
 8008dea:	4620      	mov	r0, r4
 8008dec:	f7fc fb44 	bl	8005478 <GUI_ALLOC_UnlockH>
 8008df0:	4640      	mov	r0, r8
 8008df2:	f7fc fb41 	bl	8005478 <GUI_ALLOC_UnlockH>
 8008df6:	4638      	mov	r0, r7
 8008df8:	f7fc fb26 	bl	8005448 <GUI_ALLOC_h2p>
 8008dfc:	9003      	str	r0, [sp, #12]
 8008dfe:	9b03      	ldr	r3, [sp, #12]
 8008e00:	6a1c      	ldr	r4, [r3, #32]
 8008e02:	b90c      	cbnz	r4, 8008e08 <WM__InsertWindowIntoList+0x88>
 8008e04:	621e      	str	r6, [r3, #32]
 8008e06:	e00b      	b.n	8008e20 <WM__InsertWindowIntoList+0xa0>
 8008e08:	4620      	mov	r0, r4
 8008e0a:	f7fc fb1d 	bl	8005448 <GUI_ALLOC_h2p>
 8008e0e:	2d00      	cmp	r5, #0
 8008e10:	d1f4      	bne.n	8008dfc <WM__InsertWindowIntoList+0x7c>
 8008e12:	6a83      	ldr	r3, [r0, #40]	; 0x28
 8008e14:	071b      	lsls	r3, r3, #28
 8008e16:	d5f1      	bpl.n	8008dfc <WM__InsertWindowIntoList+0x7c>
 8008e18:	9b03      	ldr	r3, [sp, #12]
 8008e1a:	621e      	str	r6, [r3, #32]
 8008e1c:	9b01      	ldr	r3, [sp, #4]
 8008e1e:	621c      	str	r4, [r3, #32]
 8008e20:	a801      	add	r0, sp, #4
 8008e22:	f7fc fb29 	bl	8005478 <GUI_ALLOC_UnlockH>
 8008e26:	b004      	add	sp, #16
 8008e28:	e8bd 81f0 	ldmia.w	sp!, {r4, r5, r6, r7, r8, pc}

08008e2c <WM__Client2Screen>:
 8008e2c:	4603      	mov	r3, r0
 8008e2e:	4608      	mov	r0, r1
 8008e30:	f9b3 2002 	ldrsh.w	r2, [r3, #2]
 8008e34:	f9b3 1000 	ldrsh.w	r1, [r3]
 8008e38:	f7fc bd49 	b.w	80058ce <GUI_MoveRect>

08008e3c <_SetClipRectUserIntersect>:
 8008e3c:	4b11      	ldr	r3, [pc, #68]	; (8008e84 <_SetClipRectUserIntersect+0x48>)
 8008e3e:	b530      	push	{r4, r5, lr}
 8008e40:	681c      	ldr	r4, [r3, #0]
 8008e42:	6c62      	ldr	r2, [r4, #68]	; 0x44
 8008e44:	b085      	sub	sp, #20
 8008e46:	4605      	mov	r5, r0
 8008e48:	b1ba      	cbz	r2, 8008e7a <_SetClipRectUserIntersect+0x3e>
 8008e4a:	6810      	ldr	r0, [r2, #0]
 8008e4c:	6851      	ldr	r1, [r2, #4]
 8008e4e:	ab02      	add	r3, sp, #8
 8008e50:	c303      	stmia	r3!, {r0, r1}
 8008e52:	4b0d      	ldr	r3, [pc, #52]	; (8008e88 <_SetClipRectUserIntersect+0x4c>)
 8008e54:	6818      	ldr	r0, [r3, #0]
 8008e56:	b900      	cbnz	r0, 8008e5a <_SetClipRectUserIntersect+0x1e>
 8008e58:	6ca0      	ldr	r0, [r4, #72]	; 0x48
 8008e5a:	f7fc faff 	bl	800545c <GUI_ALLOC_LockH>
 8008e5e:	ac04      	add	r4, sp, #16
 8008e60:	a902      	add	r1, sp, #8
 8008e62:	f844 0d0c 	str.w	r0, [r4, #-12]!
 8008e66:	f7ff ffe1 	bl	8008e2c <WM__Client2Screen>
 8008e6a:	4620      	mov	r0, r4
 8008e6c:	f7fc fb04 	bl	8005478 <GUI_ALLOC_UnlockH>
 8008e70:	a802      	add	r0, sp, #8
 8008e72:	4629      	mov	r1, r5
 8008e74:	f7fd fc02 	bl	800667c <GUI__IntersectRect>
 8008e78:	a802      	add	r0, sp, #8
 8008e7a:	f002 f9a7 	bl	800b1cc <LCD_SetClipRectEx>
 8008e7e:	b005      	add	sp, #20
 8008e80:	bd30      	pop	{r4, r5, pc}
 8008e82:	bf00      	nop
 8008e84:	20000098 	.word	0x20000098
 8008e88:	20029178 	.word	0x20029178

08008e8c <WM__ActivateClipRect>:
 8008e8c:	b51f      	push	{r0, r1, r2, r3, r4, lr}
 8008e8e:	4b0e      	ldr	r3, [pc, #56]	; (8008ec8 <WM__ActivateClipRect+0x3c>)
 8008e90:	681b      	ldr	r3, [r3, #0]
 8008e92:	f893 2054 	ldrb.w	r2, [r3, #84]	; 0x54
 8008e96:	b10a      	cbz	r2, 8008e9c <WM__ActivateClipRect+0x10>
 8008e98:	480c      	ldr	r0, [pc, #48]	; (8008ecc <WM__ActivateClipRect+0x40>)
 8008e9a:	e011      	b.n	8008ec0 <WM__ActivateClipRect+0x34>
 8008e9c:	6c98      	ldr	r0, [r3, #72]	; 0x48
 8008e9e:	f7fc fadd 	bl	800545c <GUI_ALLOC_LockH>
 8008ea2:	9001      	str	r0, [sp, #4]
 8008ea4:	c803      	ldmia	r0, {r0, r1}
 8008ea6:	ac02      	add	r4, sp, #8
 8008ea8:	e884 0003 	stmia.w	r4, {r0, r1}
 8008eac:	a801      	add	r0, sp, #4
 8008eae:	f7fc fae3 	bl	8005478 <GUI_ALLOC_UnlockH>
 8008eb2:	4b07      	ldr	r3, [pc, #28]	; (8008ed0 <WM__ActivateClipRect+0x44>)
 8008eb4:	6819      	ldr	r1, [r3, #0]
 8008eb6:	b111      	cbz	r1, 8008ebe <WM__ActivateClipRect+0x32>
 8008eb8:	4620      	mov	r0, r4
 8008eba:	f7ff ff35 	bl	8008d28 <WM__ClipAtParentBorders>
 8008ebe:	4620      	mov	r0, r4
 8008ec0:	f7ff ffbc 	bl	8008e3c <_SetClipRectUserIntersect>
 8008ec4:	b004      	add	sp, #16
 8008ec6:	bd10      	pop	{r4, pc}
 8008ec8:	20000098 	.word	0x20000098
 8008ecc:	20028f34 	.word	0x20028f34
 8008ed0:	20029178 	.word	0x20029178

08008ed4 <WM__IsWindow>:
 8008ed4:	4b06      	ldr	r3, [pc, #24]	; (8008ef0 <WM__IsWindow+0x1c>)
 8008ed6:	b510      	push	{r4, lr}
 8008ed8:	4604      	mov	r4, r0
 8008eda:	6818      	ldr	r0, [r3, #0]
 8008edc:	b128      	cbz	r0, 8008eea <WM__IsWindow+0x16>
 8008ede:	42a0      	cmp	r0, r4
 8008ee0:	d004      	beq.n	8008eec <WM__IsWindow+0x18>
 8008ee2:	f7fc fab1 	bl	8005448 <GUI_ALLOC_h2p>
 8008ee6:	6940      	ldr	r0, [r0, #20]
 8008ee8:	e7f8      	b.n	8008edc <WM__IsWindow+0x8>
 8008eea:	bd10      	pop	{r4, pc}
 8008eec:	2001      	movs	r0, #1
 8008eee:	bd10      	pop	{r4, pc}
 8008ef0:	20029198 	.word	0x20029198

08008ef4 <WM__InvalidateDrawAndDescs>:
 8008ef4:	b513      	push	{r0, r1, r4, lr}
 8008ef6:	4604      	mov	r4, r0
 8008ef8:	b300      	cbz	r0, 8008f3c <WM__InvalidateDrawAndDescs+0x48>
 8008efa:	f7fc faaf 	bl	800545c <GUI_ALLOC_LockH>
 8008efe:	6a83      	ldr	r3, [r0, #40]	; 0x28
 8008f00:	9001      	str	r0, [sp, #4]
 8008f02:	079b      	lsls	r3, r3, #30
 8008f04:	d517      	bpl.n	8008f36 <WM__InvalidateDrawAndDescs+0x42>
 8008f06:	6a40      	ldr	r0, [r0, #36]	; 0x24
 8008f08:	b140      	cbz	r0, 8008f1c <WM__InvalidateDrawAndDescs+0x28>
 8008f0a:	4b0d      	ldr	r3, [pc, #52]	; (8008f40 <WM__InvalidateDrawAndDescs+0x4c>)
 8008f0c:	681b      	ldr	r3, [r3, #0]
 8008f0e:	429c      	cmp	r4, r3
 8008f10:	d004      	beq.n	8008f1c <WM__InvalidateDrawAndDescs+0x28>
 8008f12:	f002 f973 	bl	800b1fc <GUI_MEMDEV_Delete>
 8008f16:	9b01      	ldr	r3, [sp, #4]
 8008f18:	2200      	movs	r2, #0
 8008f1a:	625a      	str	r2, [r3, #36]	; 0x24
 8008f1c:	4620      	mov	r0, r4
 8008f1e:	f000 fc63 	bl	80097e8 <WM_GetFirstChild>
 8008f22:	4604      	mov	r4, r0
 8008f24:	b13c      	cbz	r4, 8008f36 <WM__InvalidateDrawAndDescs+0x42>
 8008f26:	4620      	mov	r0, r4
 8008f28:	f7ff ffe4 	bl	8008ef4 <WM__InvalidateDrawAndDescs>
 8008f2c:	4620      	mov	r0, r4
 8008f2e:	f7fc fa8b 	bl	8005448 <GUI_ALLOC_h2p>
 8008f32:	6a04      	ldr	r4, [r0, #32]
 8008f34:	e7f6      	b.n	8008f24 <WM__InvalidateDrawAndDescs+0x30>
 8008f36:	a801      	add	r0, sp, #4
 8008f38:	f7fc fa9e 	bl	8005478 <GUI_ALLOC_UnlockH>
 8008f3c:	b002      	add	sp, #8
 8008f3e:	bd10      	pop	{r4, pc}
 8008f40:	200291c8 	.word	0x200291c8

08008f44 <WM__RectIsNZ>:
 8008f44:	f9b0 2000 	ldrsh.w	r2, [r0]
 8008f48:	f9b0 3004 	ldrsh.w	r3, [r0, #4]
 8008f4c:	429a      	cmp	r2, r3
 8008f4e:	dc08      	bgt.n	8008f62 <WM__RectIsNZ+0x1e>
 8008f50:	f9b0 3002 	ldrsh.w	r3, [r0, #2]
 8008f54:	f9b0 0006 	ldrsh.w	r0, [r0, #6]
 8008f58:	4283      	cmp	r3, r0
 8008f5a:	bfcc      	ite	gt
 8008f5c:	2000      	movgt	r0, #0
 8008f5e:	2001      	movle	r0, #1
 8008f60:	4770      	bx	lr
 8008f62:	2000      	movs	r0, #0
 8008f64:	4770      	bx	lr

08008f66 <WM__SendMsgNoData>:
 8008f66:	b51f      	push	{r0, r1, r2, r3, r4, lr}
 8008f68:	ab04      	add	r3, sp, #16
 8008f6a:	9001      	str	r0, [sp, #4]
 8008f6c:	f843 1d10 	str.w	r1, [r3, #-16]!
 8008f70:	4619      	mov	r1, r3
 8008f72:	f000 ff05 	bl	8009d80 <WM__SendMessage>
 8008f76:	b005      	add	sp, #20
 8008f78:	f85d fb04 	ldr.w	pc, [sp], #4

08008f7c <WM__GetClientRectWin>:
 8008f7c:	2300      	movs	r3, #0
 8008f7e:	800b      	strh	r3, [r1, #0]
 8008f80:	8802      	ldrh	r2, [r0, #0]
 8008f82:	804b      	strh	r3, [r1, #2]
 8008f84:	8883      	ldrh	r3, [r0, #4]
 8008f86:	1a9b      	subs	r3, r3, r2
 8008f88:	808b      	strh	r3, [r1, #4]
 8008f8a:	8842      	ldrh	r2, [r0, #2]
 8008f8c:	88c3      	ldrh	r3, [r0, #6]
 8008f8e:	1a9b      	subs	r3, r3, r2
 8008f90:	80cb      	strh	r3, [r1, #6]
 8008f92:	4770      	bx	lr

08008f94 <WM__GetTopLevelLayer>:
 8008f94:	b510      	push	{r4, lr}
 8008f96:	4604      	mov	r4, r0
 8008f98:	f7fc fa56 	bl	8005448 <GUI_ALLOC_h2p>
 8008f9c:	6980      	ldr	r0, [r0, #24]
 8008f9e:	2800      	cmp	r0, #0
 8008fa0:	d1f9      	bne.n	8008f96 <WM__GetTopLevelLayer+0x2>
 8008fa2:	4b05      	ldr	r3, [pc, #20]	; (8008fb8 <WM__GetTopLevelLayer+0x24>)
 8008fa4:	681a      	ldr	r2, [r3, #0]
 8008fa6:	4294      	cmp	r4, r2
 8008fa8:	d005      	beq.n	8008fb6 <WM__GetTopLevelLayer+0x22>
 8008faa:	6858      	ldr	r0, [r3, #4]
 8008fac:	4284      	cmp	r4, r0
 8008fae:	bf0c      	ite	eq
 8008fb0:	2001      	moveq	r0, #1
 8008fb2:	f04f 30ff 	movne.w	r0, #4294967295	; 0xffffffff
 8008fb6:	bd10      	pop	{r4, pc}
 8008fb8:	2002917c 	.word	0x2002917c

08008fbc <_Invalidate1Abs>:
 8008fbc:	b5f0      	push	{r4, r5, r6, r7, lr}
 8008fbe:	b085      	sub	sp, #20
 8008fc0:	460d      	mov	r5, r1
 8008fc2:	4606      	mov	r6, r0
 8008fc4:	4617      	mov	r7, r2
 8008fc6:	f7fc fa3f 	bl	8005448 <GUI_ALLOC_h2p>
 8008fca:	6a81      	ldr	r1, [r0, #40]	; 0x28
 8008fcc:	9001      	str	r0, [sp, #4]
 8008fce:	078b      	lsls	r3, r1, #30
 8008fd0:	d53e      	bpl.n	8009050 <_Invalidate1Abs+0x94>
 8008fd2:	4628      	mov	r0, r5
 8008fd4:	f7ff ffb6 	bl	8008f44 <WM__RectIsNZ>
 8008fd8:	2800      	cmp	r0, #0
 8008fda:	d039      	beq.n	8009050 <_Invalidate1Abs+0x94>
 8008fdc:	f640 0301 	movw	r3, #2049	; 0x801
 8008fe0:	400b      	ands	r3, r1
 8008fe2:	2b01      	cmp	r3, #1
 8008fe4:	d034      	beq.n	8009050 <_Invalidate1Abs+0x94>
 8008fe6:	4630      	mov	r0, r6
 8008fe8:	f7fc fa38 	bl	800545c <GUI_ALLOC_LockH>
 8008fec:	ac02      	add	r4, sp, #8
 8008fee:	4602      	mov	r2, r0
 8008ff0:	9001      	str	r0, [sp, #4]
 8008ff2:	4629      	mov	r1, r5
 8008ff4:	4620      	mov	r0, r4
 8008ff6:	f7fd fb5e 	bl	80066b6 <GUI__IntersectRects>
 8008ffa:	4620      	mov	r0, r4
 8008ffc:	f7ff ffa2 	bl	8008f44 <WM__RectIsNZ>
 8009000:	b318      	cbz	r0, 800904a <_Invalidate1Abs+0x8e>
 8009002:	9b01      	ldr	r3, [sp, #4]
 8009004:	6a9a      	ldr	r2, [r3, #40]	; 0x28
 8009006:	f244 0120 	movw	r1, #16416	; 0x4020
 800900a:	4011      	ands	r1, r2
 800900c:	f103 0508 	add.w	r5, r3, #8
 8009010:	b129      	cbz	r1, 800901e <_Invalidate1Abs+0x62>
 8009012:	4622      	mov	r2, r4
 8009014:	4629      	mov	r1, r5
 8009016:	4628      	mov	r0, r5
 8009018:	f7fc fc2e 	bl	8005878 <GUI_MergeRect>
 800901c:	e015      	b.n	800904a <_Invalidate1Abs+0x8e>
 800901e:	e894 0003 	ldmia.w	r4, {r0, r1}
 8009022:	433a      	orrs	r2, r7
 8009024:	e885 0003 	stmia.w	r5, {r0, r1}
 8009028:	629a      	str	r2, [r3, #40]	; 0x28
 800902a:	4a0a      	ldr	r2, [pc, #40]	; (8009054 <_Invalidate1Abs+0x98>)
 800902c:	8813      	ldrh	r3, [r2, #0]
 800902e:	4630      	mov	r0, r6
 8009030:	3301      	adds	r3, #1
 8009032:	8013      	strh	r3, [r2, #0]
 8009034:	f7ff ffae 	bl	8008f94 <WM__GetTopLevelLayer>
 8009038:	4a07      	ldr	r2, [pc, #28]	; (8009058 <_Invalidate1Abs+0x9c>)
 800903a:	2301      	movs	r3, #1
 800903c:	fa03 f000 	lsl.w	r0, r3, r0
 8009040:	6813      	ldr	r3, [r2, #0]
 8009042:	4303      	orrs	r3, r0
 8009044:	6013      	str	r3, [r2, #0]
 8009046:	f7fd f863 	bl	8006110 <GUI_SignalEvent>
 800904a:	a801      	add	r0, sp, #4
 800904c:	f7fc fa14 	bl	8005478 <GUI_ALLOC_UnlockH>
 8009050:	b005      	add	sp, #20
 8009052:	bdf0      	pop	{r4, r5, r6, r7, pc}
 8009054:	20029194 	.word	0x20029194
 8009058:	200291a4 	.word	0x200291a4

0800905c <WM__Invalidate1Abs>:
 800905c:	2220      	movs	r2, #32
 800905e:	f7ff bfad 	b.w	8008fbc <_Invalidate1Abs>

08009062 <WM_InvalidateWindowAndDescsEx>:
 8009062:	b5f0      	push	{r4, r5, r6, r7, lr}
 8009064:	460f      	mov	r7, r1
 8009066:	b085      	sub	sp, #20
 8009068:	4615      	mov	r5, r2
 800906a:	4606      	mov	r6, r0
 800906c:	b348      	cbz	r0, 80090c2 <WM_InvalidateWindowAndDescsEx+0x60>
 800906e:	f7fc f9f5 	bl	800545c <GUI_ALLOC_LockH>
 8009072:	6a83      	ldr	r3, [r0, #40]	; 0x28
 8009074:	ac04      	add	r4, sp, #16
 8009076:	079b      	lsls	r3, r3, #30
 8009078:	4602      	mov	r2, r0
 800907a:	f844 0d0c 	str.w	r0, [r4, #-12]!
 800907e:	d403      	bmi.n	8009088 <WM_InvalidateWindowAndDescsEx+0x26>
 8009080:	4620      	mov	r0, r4
 8009082:	f7fc f9f9 	bl	8005478 <GUI_ALLOC_UnlockH>
 8009086:	e01c      	b.n	80090c2 <WM_InvalidateWindowAndDescsEx+0x60>
 8009088:	4639      	mov	r1, r7
 800908a:	a802      	add	r0, sp, #8
 800908c:	f7fd fb13 	bl	80066b6 <GUI__IntersectRects>
 8009090:	2800      	cmp	r0, #0
 8009092:	d0f5      	beq.n	8009080 <WM_InvalidateWindowAndDescsEx+0x1e>
 8009094:	4620      	mov	r0, r4
 8009096:	f7fc f9ef 	bl	8005478 <GUI_ALLOC_UnlockH>
 800909a:	462a      	mov	r2, r5
 800909c:	a902      	add	r1, sp, #8
 800909e:	4630      	mov	r0, r6
 80090a0:	f7ff ff8c 	bl	8008fbc <_Invalidate1Abs>
 80090a4:	4630      	mov	r0, r6
 80090a6:	f000 fb9f 	bl	80097e8 <WM_GetFirstChild>
 80090aa:	4604      	mov	r4, r0
 80090ac:	b14c      	cbz	r4, 80090c2 <WM_InvalidateWindowAndDescsEx+0x60>
 80090ae:	4620      	mov	r0, r4
 80090b0:	462a      	mov	r2, r5
 80090b2:	a902      	add	r1, sp, #8
 80090b4:	f7ff ffd5 	bl	8009062 <WM_InvalidateWindowAndDescsEx>
 80090b8:	4620      	mov	r0, r4
 80090ba:	f7fc f9c5 	bl	8005448 <GUI_ALLOC_h2p>
 80090be:	6a04      	ldr	r4, [r0, #32]
 80090c0:	e7f4      	b.n	80090ac <WM_InvalidateWindowAndDescsEx+0x4a>
 80090c2:	b005      	add	sp, #20
 80090c4:	bdf0      	pop	{r4, r5, r6, r7, pc}

080090c6 <WM__InvalidateRect>:
 80090c6:	e92d 41ff 	stmdb	sp!, {r0, r1, r2, r3, r4, r5, r6, r7, r8, lr}
 80090ca:	4680      	mov	r8, r0
 80090cc:	4617      	mov	r7, r2
 80090ce:	461d      	mov	r5, r3
 80090d0:	460c      	mov	r4, r1
 80090d2:	b381      	cbz	r1, 8009136 <WM__InvalidateRect+0x70>
 80090d4:	4608      	mov	r0, r1
 80090d6:	f7fc f9c1 	bl	800545c <GUI_ALLOC_LockH>
 80090da:	6a86      	ldr	r6, [r0, #40]	; 0x28
 80090dc:	9001      	str	r0, [sp, #4]
 80090de:	07b3      	lsls	r3, r6, #30
 80090e0:	4602      	mov	r2, r0
 80090e2:	d525      	bpl.n	8009130 <WM__InvalidateRect+0x6a>
 80090e4:	4641      	mov	r1, r8
 80090e6:	a802      	add	r0, sp, #8
 80090e8:	f7fd fae5 	bl	80066b6 <GUI__IntersectRects>
 80090ec:	b300      	cbz	r0, 8009130 <WM__InvalidateRect+0x6a>
 80090ee:	f640 0301 	movw	r3, #2049	; 0x801
 80090f2:	4033      	ands	r3, r6
 80090f4:	2b01      	cmp	r3, #1
 80090f6:	d107      	bne.n	8009108 <WM__InvalidateRect+0x42>
 80090f8:	9901      	ldr	r1, [sp, #4]
 80090fa:	462b      	mov	r3, r5
 80090fc:	6a0a      	ldr	r2, [r1, #32]
 80090fe:	6989      	ldr	r1, [r1, #24]
 8009100:	a802      	add	r0, sp, #8
 8009102:	f7ff ffe0 	bl	80090c6 <WM__InvalidateRect>
 8009106:	e004      	b.n	8009112 <WM__InvalidateRect+0x4c>
 8009108:	462a      	mov	r2, r5
 800910a:	a902      	add	r1, sp, #8
 800910c:	4620      	mov	r0, r4
 800910e:	f7ff ff55 	bl	8008fbc <_Invalidate1Abs>
 8009112:	9b01      	ldr	r3, [sp, #4]
 8009114:	69dc      	ldr	r4, [r3, #28]
 8009116:	b15c      	cbz	r4, 8009130 <WM__InvalidateRect+0x6a>
 8009118:	42bc      	cmp	r4, r7
 800911a:	d009      	beq.n	8009130 <WM__InvalidateRect+0x6a>
 800911c:	4620      	mov	r0, r4
 800911e:	462a      	mov	r2, r5
 8009120:	a902      	add	r1, sp, #8
 8009122:	f7ff ff9e 	bl	8009062 <WM_InvalidateWindowAndDescsEx>
 8009126:	4620      	mov	r0, r4
 8009128:	f7fc f98e 	bl	8005448 <GUI_ALLOC_h2p>
 800912c:	6a04      	ldr	r4, [r0, #32]
 800912e:	e7f2      	b.n	8009116 <WM__InvalidateRect+0x50>
 8009130:	a801      	add	r0, sp, #4
 8009132:	f7fc f9a1 	bl	8005478 <GUI_ALLOC_UnlockH>
 8009136:	b004      	add	sp, #16
 8009138:	e8bd 81f0 	ldmia.w	sp!, {r4, r5, r6, r7, r8, pc}

0800913c <WM__InvalidateRectEx>:
 800913c:	2320      	movs	r3, #32
 800913e:	f7ff bfc2 	b.w	80090c6 <WM__InvalidateRect>

08009142 <WM_InvalidateRect>:
 8009142:	b5f0      	push	{r4, r5, r6, r7, lr}
 8009144:	460f      	mov	r7, r1
 8009146:	b087      	sub	sp, #28
 8009148:	4605      	mov	r5, r0
 800914a:	2800      	cmp	r0, #0
 800914c:	d033      	beq.n	80091b6 <WM_InvalidateRect+0x74>
 800914e:	f7fc f985 	bl	800545c <GUI_ALLOC_LockH>
 8009152:	6a86      	ldr	r6, [r0, #40]	; 0x28
 8009154:	9001      	str	r0, [sp, #4]
 8009156:	07b2      	lsls	r2, r6, #30
 8009158:	d52a      	bpl.n	80091b0 <WM_InvalidateRect+0x6e>
 800915a:	c803      	ldmia	r0, {r0, r1}
 800915c:	ac04      	add	r4, sp, #16
 800915e:	03f3      	lsls	r3, r6, #15
 8009160:	e884 0003 	stmia.w	r4, {r0, r1}
 8009164:	d502      	bpl.n	800916c <WM_InvalidateRect+0x2a>
 8009166:	4628      	mov	r0, r5
 8009168:	f7ff fec4 	bl	8008ef4 <WM__InvalidateDrawAndDescs>
 800916c:	b15f      	cbz	r7, 8009186 <WM_InvalidateRect+0x44>
 800916e:	6838      	ldr	r0, [r7, #0]
 8009170:	6879      	ldr	r1, [r7, #4]
 8009172:	ab02      	add	r3, sp, #8
 8009174:	c303      	stmia	r3!, {r0, r1}
 8009176:	a902      	add	r1, sp, #8
 8009178:	9801      	ldr	r0, [sp, #4]
 800917a:	f7ff fe57 	bl	8008e2c <WM__Client2Screen>
 800917e:	a902      	add	r1, sp, #8
 8009180:	4620      	mov	r0, r4
 8009182:	f7fd fa7b 	bl	800667c <GUI__IntersectRect>
 8009186:	4629      	mov	r1, r5
 8009188:	4620      	mov	r0, r4
 800918a:	f7ff fdcd 	bl	8008d28 <WM__ClipAtParentBorders>
 800918e:	b178      	cbz	r0, 80091b0 <WM_InvalidateRect+0x6e>
 8009190:	f640 0301 	movw	r3, #2049	; 0x801
 8009194:	4033      	ands	r3, r6
 8009196:	2b01      	cmp	r3, #1
 8009198:	d106      	bne.n	80091a8 <WM_InvalidateRect+0x66>
 800919a:	9b01      	ldr	r3, [sp, #4]
 800919c:	4620      	mov	r0, r4
 800919e:	6a1a      	ldr	r2, [r3, #32]
 80091a0:	6999      	ldr	r1, [r3, #24]
 80091a2:	f7ff ffcb 	bl	800913c <WM__InvalidateRectEx>
 80091a6:	e003      	b.n	80091b0 <WM_InvalidateRect+0x6e>
 80091a8:	4621      	mov	r1, r4
 80091aa:	4628      	mov	r0, r5
 80091ac:	f7ff ff56 	bl	800905c <WM__Invalidate1Abs>
 80091b0:	a801      	add	r0, sp, #4
 80091b2:	f7fc f961 	bl	8005478 <GUI_ALLOC_UnlockH>
 80091b6:	b007      	add	sp, #28
 80091b8:	bdf0      	pop	{r4, r5, r6, r7, pc}

080091ba <WM_InvalidateWindow>:
 80091ba:	2100      	movs	r1, #0
 80091bc:	f7ff bfc1 	b.w	8009142 <WM_InvalidateRect>

080091c0 <WM__SelectTopLevelLayer>:
 80091c0:	b508      	push	{r3, lr}
 80091c2:	f7ff fee7 	bl	8008f94 <WM__GetTopLevelLayer>
 80091c6:	2800      	cmp	r0, #0
 80091c8:	db03      	blt.n	80091d2 <WM__SelectTopLevelLayer+0x12>
 80091ca:	e8bd 4008 	ldmia.w	sp!, {r3, lr}
 80091ce:	f7fc bf2f 	b.w	8006030 <GUI_SelectLayer>
 80091d2:	bd08      	pop	{r3, pc}

080091d4 <WM_SelectWindow>:
 80091d4:	4b0d      	ldr	r3, [pc, #52]	; (800920c <WM_SelectWindow+0x38>)
 80091d6:	681a      	ldr	r2, [r3, #0]
 80091d8:	b570      	push	{r4, r5, r6, lr}
 80091da:	6c96      	ldr	r6, [r2, #72]	; 0x48
 80091dc:	4604      	mov	r4, r0
 80091de:	461d      	mov	r5, r3
 80091e0:	b908      	cbnz	r0, 80091e6 <WM_SelectWindow+0x12>
 80091e2:	4b0b      	ldr	r3, [pc, #44]	; (8009210 <WM_SelectWindow+0x3c>)
 80091e4:	681c      	ldr	r4, [r3, #0]
 80091e6:	6494      	str	r4, [r2, #72]	; 0x48
 80091e8:	4620      	mov	r0, r4
 80091ea:	f7ff ffe9 	bl	80091c0 <WM__SelectTopLevelLayer>
 80091ee:	f7fd fc6d 	bl	8006acc <LCD_SetClipRectMax>
 80091f2:	4620      	mov	r0, r4
 80091f4:	f7fc f928 	bl	8005448 <GUI_ALLOC_h2p>
 80091f8:	682b      	ldr	r3, [r5, #0]
 80091fa:	f9b0 2000 	ldrsh.w	r2, [r0]
 80091fe:	64da      	str	r2, [r3, #76]	; 0x4c
 8009200:	f9b0 2002 	ldrsh.w	r2, [r0, #2]
 8009204:	651a      	str	r2, [r3, #80]	; 0x50
 8009206:	4630      	mov	r0, r6
 8009208:	bd70      	pop	{r4, r5, r6, pc}
 800920a:	bf00      	nop
 800920c:	20000098 	.word	0x20000098
 8009210:	20029198 	.word	0x20029198

08009214 <WM_CreateWindowAsChild>:
 8009214:	e92d 4ff7 	stmdb	sp!, {r0, r1, r2, r4, r5, r6, r7, r8, r9, sl, fp, lr}
 8009218:	f8dd a030 	ldr.w	sl, [sp, #48]	; 0x30
 800921c:	4698      	mov	r8, r3
 800921e:	4b4e      	ldr	r3, [pc, #312]	; (8009358 <WM_CreateWindowAsChild+0x144>)
 8009220:	4605      	mov	r5, r0
 8009222:	460e      	mov	r6, r1
 8009224:	4617      	mov	r7, r2
 8009226:	f8d3 9000 	ldr.w	r9, [r3]
 800922a:	f1ba 0f00 	cmp.w	sl, #0
 800922e:	d128      	bne.n	8009282 <WM_CreateWindowAsChild+0x6e>
 8009230:	4b4a      	ldr	r3, [pc, #296]	; (800935c <WM_CreateWindowAsChild+0x148>)
 8009232:	881b      	ldrh	r3, [r3, #0]
 8009234:	b353      	cbz	r3, 800928c <WM_CreateWindowAsChild+0x78>
 8009236:	4b4a      	ldr	r3, [pc, #296]	; (8009360 <WM_CreateWindowAsChild+0x14c>)
 8009238:	681b      	ldr	r3, [r3, #0]
 800923a:	7c5a      	ldrb	r2, [r3, #17]
 800923c:	4b49      	ldr	r3, [pc, #292]	; (8009364 <WM_CreateWindowAsChild+0x150>)
 800923e:	f853 3022 	ldr.w	r3, [r3, r2, lsl #2]
 8009242:	1c5a      	adds	r2, r3, #1
 8009244:	2a01      	cmp	r2, #1
 8009246:	d921      	bls.n	800928c <WM_CreateWindowAsChild+0x78>
 8009248:	469a      	mov	sl, r3
 800924a:	4650      	mov	r0, sl
 800924c:	f7fc f906 	bl	800545c <GUI_ALLOC_LockH>
 8009250:	f9b0 1000 	ldrsh.w	r1, [r0]
 8009254:	f9b0 2002 	ldrsh.w	r2, [r0, #2]
 8009258:	9001      	str	r0, [sp, #4]
 800925a:	440d      	add	r5, r1
 800925c:	4416      	add	r6, r2
 800925e:	b91f      	cbnz	r7, 8009268 <WM_CreateWindowAsChild+0x54>
 8009260:	f9b0 3004 	ldrsh.w	r3, [r0, #4]
 8009264:	1a5f      	subs	r7, r3, r1
 8009266:	3701      	adds	r7, #1
 8009268:	f1b8 0f00 	cmp.w	r8, #0
 800926c:	d105      	bne.n	800927a <WM_CreateWindowAsChild+0x66>
 800926e:	f9b0 3006 	ldrsh.w	r3, [r0, #6]
 8009272:	ebc2 0803 	rsb	r8, r2, r3
 8009276:	f108 0801 	add.w	r8, r8, #1
 800927a:	a801      	add	r0, sp, #4
 800927c:	f7fc f8fc 	bl	8005478 <GUI_ALLOC_UnlockH>
 8009280:	e004      	b.n	800928c <WM_CreateWindowAsChild+0x78>
 8009282:	f1ba 3fff 	cmp.w	sl, #4294967295	; 0xffffffff
 8009286:	d1e0      	bne.n	800924a <WM_CreateWindowAsChild+0x36>
 8009288:	f04f 0a00 	mov.w	sl, #0
 800928c:	980f      	ldr	r0, [sp, #60]	; 0x3c
 800928e:	302c      	adds	r0, #44	; 0x2c
 8009290:	f7fc fa94 	bl	80057bc <GUI_ALLOC_AllocZero>
 8009294:	4604      	mov	r4, r0
 8009296:	2800      	cmp	r0, #0
 8009298:	d059      	beq.n	800934e <WM_CreateWindowAsChild+0x13a>
 800929a:	4a30      	ldr	r2, [pc, #192]	; (800935c <WM_CreateWindowAsChild+0x148>)
 800929c:	9b0d      	ldr	r3, [sp, #52]	; 0x34
 800929e:	ea49 0903 	orr.w	r9, r9, r3
 80092a2:	8813      	ldrh	r3, [r2, #0]
 80092a4:	3301      	adds	r3, #1
 80092a6:	8013      	strh	r3, [r2, #0]
 80092a8:	f7fc f8d8 	bl	800545c <GUI_ALLOC_LockH>
 80092ac:	9b0e      	ldr	r3, [sp, #56]	; 0x38
 80092ae:	6103      	str	r3, [r0, #16]
 80092b0:	f10d 0b08 	add.w	fp, sp, #8
 80092b4:	4b2c      	ldr	r3, [pc, #176]	; (8009368 <WM_CreateWindowAsChild+0x154>)
 80092b6:	6a82      	ldr	r2, [r0, #40]	; 0x28
 80092b8:	f84b 0d08 	str.w	r0, [fp, #-8]!
 80092bc:	ea09 0303 	and.w	r3, r9, r3
 80092c0:	8005      	strh	r5, [r0, #0]
 80092c2:	8046      	strh	r6, [r0, #2]
 80092c4:	443d      	add	r5, r7
 80092c6:	4446      	add	r6, r8
 80092c8:	4313      	orrs	r3, r2
 80092ca:	3d01      	subs	r5, #1
 80092cc:	3e01      	subs	r6, #1
 80092ce:	6283      	str	r3, [r0, #40]	; 0x28
 80092d0:	8085      	strh	r5, [r0, #4]
 80092d2:	80c6      	strh	r6, [r0, #6]
 80092d4:	4658      	mov	r0, fp
 80092d6:	f7fc f8cf 	bl	8005478 <GUI_ALLOC_UnlockH>
 80092da:	4b24      	ldr	r3, [pc, #144]	; (800936c <WM_CreateWindowAsChild+0x158>)
 80092dc:	6818      	ldr	r0, [r3, #0]
 80092de:	b148      	cbz	r0, 80092f4 <WM_CreateWindowAsChild+0xe0>
 80092e0:	f7fc f8b2 	bl	8005448 <GUI_ALLOC_h2p>
 80092e4:	4605      	mov	r5, r0
 80092e6:	4620      	mov	r0, r4
 80092e8:	f7fc f8ae 	bl	8005448 <GUI_ALLOC_h2p>
 80092ec:	696b      	ldr	r3, [r5, #20]
 80092ee:	6143      	str	r3, [r0, #20]
 80092f0:	616c      	str	r4, [r5, #20]
 80092f2:	e000      	b.n	80092f6 <WM_CreateWindowAsChild+0xe2>
 80092f4:	601c      	str	r4, [r3, #0]
 80092f6:	4651      	mov	r1, sl
 80092f8:	4620      	mov	r0, r4
 80092fa:	f7ff fd41 	bl	8008d80 <WM__InsertWindowIntoList>
 80092fe:	f019 0f20 	tst.w	r9, #32
 8009302:	d002      	beq.n	800930a <WM_CreateWindowAsChild+0xf6>
 8009304:	4620      	mov	r0, r4
 8009306:	f7ff ff65 	bl	80091d4 <WM_SelectWindow>
 800930a:	f019 0f01 	tst.w	r9, #1
 800930e:	bf1f      	itttt	ne
 8009310:	4a17      	ldrne	r2, [pc, #92]	; (8009370 <WM_CreateWindowAsChild+0x15c>)
 8009312:	6813      	ldrne	r3, [r2, #0]
 8009314:	3301      	addne	r3, #1
 8009316:	6013      	strne	r3, [r2, #0]
 8009318:	f019 0f40 	tst.w	r9, #64	; 0x40
 800931c:	d002      	beq.n	8009324 <WM_CreateWindowAsChild+0x110>
 800931e:	4620      	mov	r0, r4
 8009320:	f000 fa72 	bl	8009808 <WM_BringToBottom>
 8009324:	f019 0f02 	tst.w	r9, #2
 8009328:	d00d      	beq.n	8009346 <WM_CreateWindowAsChild+0x132>
 800932a:	4620      	mov	r0, r4
 800932c:	f7fc f896 	bl	800545c <GUI_ALLOC_LockH>
 8009330:	6a83      	ldr	r3, [r0, #40]	; 0x28
 8009332:	9000      	str	r0, [sp, #0]
 8009334:	f043 0302 	orr.w	r3, r3, #2
 8009338:	6283      	str	r3, [r0, #40]	; 0x28
 800933a:	4658      	mov	r0, fp
 800933c:	f7fc f89c 	bl	8005478 <GUI_ALLOC_UnlockH>
 8009340:	4620      	mov	r0, r4
 8009342:	f7ff ff3a 	bl	80091ba <WM_InvalidateWindow>
 8009346:	2101      	movs	r1, #1
 8009348:	4620      	mov	r0, r4
 800934a:	f7ff fe0c 	bl	8008f66 <WM__SendMsgNoData>
 800934e:	4620      	mov	r0, r4
 8009350:	b003      	add	sp, #12
 8009352:	e8bd 8ff0 	ldmia.w	sp!, {r4, r5, r6, r7, r8, r9, sl, fp, pc}
 8009356:	bf00      	nop
 8009358:	200291ac 	.word	0x200291ac
 800935c:	20029174 	.word	0x20029174
 8009360:	20000098 	.word	0x20000098
 8009364:	2002917c 	.word	0x2002917c
 8009368:	003f3f9f 	.word	0x003f3f9f
 800936c:	20029198 	.word	0x20029198
 8009370:	200291cc 	.word	0x200291cc

08009374 <WM__GetNextIVR>:
 8009374:	e92d 41ff 	stmdb	sp!, {r0, r1, r2, r3, r4, r5, r6, r7, r8, lr}
 8009378:	4f5d      	ldr	r7, [pc, #372]	; (80094f0 <WM__GetNextIVR+0x17c>)
 800937a:	683b      	ldr	r3, [r7, #0]
 800937c:	f893 0054 	ldrb.w	r0, [r3, #84]	; 0x54
 8009380:	2800      	cmp	r0, #0
 8009382:	f000 80b1 	beq.w	80094e8 <WM__GetNextIVR+0x174>
 8009386:	4a5b      	ldr	r2, [pc, #364]	; (80094f4 <WM__GetNextIVR+0x180>)
 8009388:	6a13      	ldr	r3, [r2, #32]
 800938a:	2b01      	cmp	r3, #1
 800938c:	4614      	mov	r4, r2
 800938e:	dd03      	ble.n	8009398 <WM__GetNextIVR+0x24>
 8009390:	3b01      	subs	r3, #1
 8009392:	6213      	str	r3, [r2, #32]
 8009394:	2000      	movs	r0, #0
 8009396:	e0a7      	b.n	80094e8 <WM__GetNextIVR+0x174>
 8009398:	f102 0614 	add.w	r6, r2, #20
 800939c:	69d3      	ldr	r3, [r2, #28]
 800939e:	e896 0003 	ldmia.w	r6, {r0, r1}
 80093a2:	3301      	adds	r3, #1
 80093a4:	ad02      	add	r5, sp, #8
 80093a6:	61d3      	str	r3, [r2, #28]
 80093a8:	e885 0003 	stmia.w	r5, {r0, r1}
 80093ac:	b923      	cbnz	r3, 80093b8 <WM__GetNextIVR+0x44>
 80093ae:	8993      	ldrh	r3, [r2, #12]
 80093b0:	f8ad 3008 	strh.w	r3, [sp, #8]
 80093b4:	89d3      	ldrh	r3, [r2, #14]
 80093b6:	e010      	b.n	80093da <WM__GetNextIVR+0x66>
 80093b8:	8b13      	ldrh	r3, [r2, #24]
 80093ba:	8ad2      	ldrh	r2, [r2, #22]
 80093bc:	f8ad 200a 	strh.w	r2, [sp, #10]
 80093c0:	3301      	adds	r3, #1
 80093c2:	f9b4 2010 	ldrsh.w	r2, [r4, #16]
 80093c6:	b21b      	sxth	r3, r3
 80093c8:	429a      	cmp	r2, r3
 80093ca:	f8ad 3008 	strh.w	r3, [sp, #8]
 80093ce:	da06      	bge.n	80093de <WM__GetNextIVR+0x6a>
 80093d0:	89a3      	ldrh	r3, [r4, #12]
 80093d2:	f8ad 3008 	strh.w	r3, [sp, #8]
 80093d6:	8b63      	ldrh	r3, [r4, #26]
 80093d8:	3301      	adds	r3, #1
 80093da:	f8ad 300a 	strh.w	r3, [sp, #10]
 80093de:	f9bd 200a 	ldrsh.w	r2, [sp, #10]
 80093e2:	f9b4 3012 	ldrsh.w	r3, [r4, #18]
 80093e6:	f8df 810c 	ldr.w	r8, [pc, #268]	; 80094f4 <WM__GetNextIVR+0x180>
 80093ea:	429a      	cmp	r2, r3
 80093ec:	dd04      	ble.n	80093f8 <WM__GetNextIVR+0x84>
 80093ee:	6a23      	ldr	r3, [r4, #32]
 80093f0:	3b01      	subs	r3, #1
 80093f2:	2000      	movs	r0, #0
 80093f4:	6223      	str	r3, [r4, #32]
 80093f6:	e077      	b.n	80094e8 <WM__GetNextIVR+0x174>
 80093f8:	683b      	ldr	r3, [r7, #0]
 80093fa:	6c98      	ldr	r0, [r3, #72]	; 0x48
 80093fc:	f7fc f82e 	bl	800545c <GUI_ALLOC_LockH>
 8009400:	f9bd 2008 	ldrsh.w	r2, [sp, #8]
 8009404:	f9b8 300c 	ldrsh.w	r3, [r8, #12]
 8009408:	9001      	str	r0, [sp, #4]
 800940a:	429a      	cmp	r2, r3
 800940c:	d11c      	bne.n	8009448 <WM__GetNextIVR+0xd4>
 800940e:	f8b8 3012 	ldrh.w	r3, [r8, #18]
 8009412:	f8ad 300e 	strh.w	r3, [sp, #14]
 8009416:	f8b8 3010 	ldrh.w	r3, [r8, #16]
 800941a:	f8ad 300c 	strh.w	r3, [sp, #12]
 800941e:	4b34      	ldr	r3, [pc, #208]	; (80094f0 <WM__GetNextIVR+0x17c>)
 8009420:	681b      	ldr	r3, [r3, #0]
 8009422:	6c9a      	ldr	r2, [r3, #72]	; 0x48
 8009424:	b15a      	cbz	r2, 800943e <WM__GetNextIVR+0xca>
 8009426:	4610      	mov	r0, r2
 8009428:	f7fc f80e 	bl	8005448 <GUI_ALLOC_h2p>
 800942c:	4680      	mov	r8, r0
 800942e:	2200      	movs	r2, #0
 8009430:	4629      	mov	r1, r5
 8009432:	6a00      	ldr	r0, [r0, #32]
 8009434:	f7ff fba8 	bl	8008b88 <_Findy1>
 8009438:	f8d8 2018 	ldr.w	r2, [r8, #24]
 800943c:	e7f2      	b.n	8009424 <WM__GetNextIVR+0xb0>
 800943e:	9b01      	ldr	r3, [sp, #4]
 8009440:	4629      	mov	r1, r5
 8009442:	69d8      	ldr	r0, [r3, #28]
 8009444:	f7ff fba0 	bl	8008b88 <_Findy1>
 8009448:	f8bd 3008 	ldrh.w	r3, [sp, #8]
 800944c:	f8ad 300c 	strh.w	r3, [sp, #12]
 8009450:	683b      	ldr	r3, [r7, #0]
 8009452:	6c9a      	ldr	r2, [r3, #72]	; 0x48
 8009454:	b16a      	cbz	r2, 8009472 <WM__GetNextIVR+0xfe>
 8009456:	4610      	mov	r0, r2
 8009458:	f7fb fff6 	bl	8005448 <GUI_ALLOC_h2p>
 800945c:	2200      	movs	r2, #0
 800945e:	4680      	mov	r8, r0
 8009460:	4629      	mov	r1, r5
 8009462:	6a00      	ldr	r0, [r0, #32]
 8009464:	f7ff fbe3 	bl	8008c2e <_Findx0>
 8009468:	2800      	cmp	r0, #0
 800946a:	d1ed      	bne.n	8009448 <WM__GetNextIVR+0xd4>
 800946c:	f8d8 2018 	ldr.w	r2, [r8, #24]
 8009470:	e7f0      	b.n	8009454 <WM__GetNextIVR+0xe0>
 8009472:	9b01      	ldr	r3, [sp, #4]
 8009474:	4629      	mov	r1, r5
 8009476:	69d8      	ldr	r0, [r3, #28]
 8009478:	f7ff fbd9 	bl	8008c2e <_Findx0>
 800947c:	2800      	cmp	r0, #0
 800947e:	d1e3      	bne.n	8009448 <WM__GetNextIVR+0xd4>
 8009480:	f9b4 3010 	ldrsh.w	r3, [r4, #16]
 8009484:	f9bd 2008 	ldrsh.w	r2, [sp, #8]
 8009488:	f8ad 300c 	strh.w	r3, [sp, #12]
 800948c:	429a      	cmp	r2, r3
 800948e:	dd07      	ble.n	80094a0 <WM__GetNextIVR+0x12c>
 8009490:	e895 0003 	ldmia.w	r5, {r0, r1}
 8009494:	e886 0003 	stmia.w	r6, {r0, r1}
 8009498:	a801      	add	r0, sp, #4
 800949a:	f7fb ffed 	bl	8005478 <GUI_ALLOC_UnlockH>
 800949e:	e797      	b.n	80093d0 <WM__GetNextIVR+0x5c>
 80094a0:	683b      	ldr	r3, [r7, #0]
 80094a2:	6c9a      	ldr	r2, [r3, #72]	; 0x48
 80094a4:	b152      	cbz	r2, 80094bc <WM__GetNextIVR+0x148>
 80094a6:	4610      	mov	r0, r2
 80094a8:	f7fb ffce 	bl	8005448 <GUI_ALLOC_h2p>
 80094ac:	4607      	mov	r7, r0
 80094ae:	2200      	movs	r2, #0
 80094b0:	4629      	mov	r1, r5
 80094b2:	6a00      	ldr	r0, [r0, #32]
 80094b4:	f7ff fbfe 	bl	8008cb4 <_Findx1>
 80094b8:	69ba      	ldr	r2, [r7, #24]
 80094ba:	e7f3      	b.n	80094a4 <WM__GetNextIVR+0x130>
 80094bc:	af04      	add	r7, sp, #16
 80094be:	4629      	mov	r1, r5
 80094c0:	f857 3d0c 	ldr.w	r3, [r7, #-12]!
 80094c4:	69d8      	ldr	r0, [r3, #28]
 80094c6:	f7ff fbf5 	bl	8008cb4 <_Findx1>
 80094ca:	4638      	mov	r0, r7
 80094cc:	f7fb ffd4 	bl	8005478 <GUI_ALLOC_UnlockH>
 80094d0:	69e2      	ldr	r2, [r4, #28]
 80094d2:	f644 6320 	movw	r3, #20000	; 0x4e20
 80094d6:	429a      	cmp	r2, r3
 80094d8:	dc89      	bgt.n	80093ee <WM__GetNextIVR+0x7a>
 80094da:	e895 0003 	ldmia.w	r5, {r0, r1}
 80094de:	e886 0003 	stmia.w	r6, {r0, r1}
 80094e2:	f7ff fcd3 	bl	8008e8c <WM__ActivateClipRect>
 80094e6:	2001      	movs	r0, #1
 80094e8:	b004      	add	sp, #16
 80094ea:	e8bd 81f0 	ldmia.w	sp!, {r4, r5, r6, r7, r8, pc}
 80094ee:	bf00      	nop
 80094f0:	20000098 	.word	0x20000098
 80094f4:	20028f20 	.word	0x20028f20

080094f8 <WM__InitIVRSearch>:
 80094f8:	e92d 41f0 	stmdb	sp!, {r4, r5, r6, r7, r8, lr}
 80094fc:	4e39      	ldr	r6, [pc, #228]	; (80095e4 <WM__InitIVRSearch+0xec>)
 80094fe:	6832      	ldr	r2, [r6, #0]
 8009500:	f892 3054 	ldrb.w	r3, [r2, #84]	; 0x54
 8009504:	b086      	sub	sp, #24
 8009506:	4680      	mov	r8, r0
 8009508:	b913      	cbnz	r3, 8009510 <WM__InitIVRSearch+0x18>
 800950a:	f7ff fcbf 	bl	8008e8c <WM__ActivateClipRect>
 800950e:	e064      	b.n	80095da <WM__InitIVRSearch+0xe2>
 8009510:	4f35      	ldr	r7, [pc, #212]	; (80095e8 <WM__InitIVRSearch+0xf0>)
 8009512:	6a3b      	ldr	r3, [r7, #32]
 8009514:	3301      	adds	r3, #1
 8009516:	2b01      	cmp	r3, #1
 8009518:	623b      	str	r3, [r7, #32]
 800951a:	463d      	mov	r5, r7
 800951c:	dc5d      	bgt.n	80095da <WM__InitIVRSearch+0xe2>
 800951e:	6c90      	ldr	r0, [r2, #72]	; 0x48
 8009520:	f7fb ff9c 	bl	800545c <GUI_ALLOC_LockH>
 8009524:	f04f 33ff 	mov.w	r3, #4294967295	; 0xffffffff
 8009528:	61fb      	str	r3, [r7, #28]
 800952a:	4b30      	ldr	r3, [pc, #192]	; (80095ec <WM__InitIVRSearch+0xf4>)
 800952c:	9000      	str	r0, [sp, #0]
 800952e:	781b      	ldrb	r3, [r3, #0]
 8009530:	b113      	cbz	r3, 8009538 <WM__InitIVRSearch+0x40>
 8009532:	ab02      	add	r3, sp, #8
 8009534:	3008      	adds	r0, #8
 8009536:	e004      	b.n	8009542 <WM__InitIVRSearch+0x4a>
 8009538:	6a83      	ldr	r3, [r0, #40]	; 0x28
 800953a:	f013 0402 	ands.w	r4, r3, #2
 800953e:	d00c      	beq.n	800955a <WM__InitIVRSearch+0x62>
 8009540:	ab02      	add	r3, sp, #8
 8009542:	c803      	ldmia	r0, {r0, r1}
 8009544:	ac02      	add	r4, sp, #8
 8009546:	e883 0003 	stmia.w	r3, {r0, r1}
 800954a:	f1b8 0f00 	cmp.w	r8, #0
 800954e:	d00c      	beq.n	800956a <WM__InitIVRSearch+0x72>
 8009550:	4641      	mov	r1, r8
 8009552:	4620      	mov	r0, r4
 8009554:	f7fd f892 	bl	800667c <GUI__IntersectRect>
 8009558:	e007      	b.n	800956a <WM__InitIVRSearch+0x72>
 800955a:	6a3b      	ldr	r3, [r7, #32]
 800955c:	4668      	mov	r0, sp
 800955e:	3b01      	subs	r3, #1
 8009560:	623b      	str	r3, [r7, #32]
 8009562:	f7fb ff89 	bl	8005478 <GUI_ALLOC_UnlockH>
 8009566:	4620      	mov	r0, r4
 8009568:	e038      	b.n	80095dc <WM__InitIVRSearch+0xe4>
 800956a:	6833      	ldr	r3, [r6, #0]
 800956c:	4f20      	ldr	r7, [pc, #128]	; (80095f0 <WM__InitIVRSearch+0xf8>)
 800956e:	6c5a      	ldr	r2, [r3, #68]	; 0x44
 8009570:	b1c2      	cbz	r2, 80095a4 <WM__InitIVRSearch+0xac>
 8009572:	9b00      	ldr	r3, [sp, #0]
 8009574:	6810      	ldr	r0, [r2, #0]
 8009576:	6851      	ldr	r1, [r2, #4]
 8009578:	9301      	str	r3, [sp, #4]
 800957a:	ab04      	add	r3, sp, #16
 800957c:	c303      	stmia	r3!, {r0, r1}
 800957e:	683b      	ldr	r3, [r7, #0]
 8009580:	b133      	cbz	r3, 8009590 <WM__InitIVRSearch+0x98>
 8009582:	a801      	add	r0, sp, #4
 8009584:	f7fb ff78 	bl	8005478 <GUI_ALLOC_UnlockH>
 8009588:	6838      	ldr	r0, [r7, #0]
 800958a:	f7fb ff67 	bl	800545c <GUI_ALLOC_LockH>
 800958e:	9001      	str	r0, [sp, #4]
 8009590:	a904      	add	r1, sp, #16
 8009592:	9801      	ldr	r0, [sp, #4]
 8009594:	f7ff fc4a 	bl	8008e2c <WM__Client2Screen>
 8009598:	4620      	mov	r0, r4
 800959a:	a904      	add	r1, sp, #16
 800959c:	f7fd f86e 	bl	800667c <GUI__IntersectRect>
 80095a0:	a801      	add	r0, sp, #4
 80095a2:	e000      	b.n	80095a6 <WM__InitIVRSearch+0xae>
 80095a4:	4668      	mov	r0, sp
 80095a6:	f7fb ff67 	bl	8005478 <GUI_ALLOC_UnlockH>
 80095aa:	6839      	ldr	r1, [r7, #0]
 80095ac:	b119      	cbz	r1, 80095b6 <WM__InitIVRSearch+0xbe>
 80095ae:	4620      	mov	r0, r4
 80095b0:	f7ff fbba 	bl	8008d28 <WM__ClipAtParentBorders>
 80095b4:	b128      	cbz	r0, 80095c2 <WM__InitIVRSearch+0xca>
 80095b6:	6833      	ldr	r3, [r6, #0]
 80095b8:	4620      	mov	r0, r4
 80095ba:	6c99      	ldr	r1, [r3, #72]	; 0x48
 80095bc:	f7ff fbb4 	bl	8008d28 <WM__ClipAtParentBorders>
 80095c0:	b918      	cbnz	r0, 80095ca <WM__InitIVRSearch+0xd2>
 80095c2:	6a2b      	ldr	r3, [r5, #32]
 80095c4:	3b01      	subs	r3, #1
 80095c6:	622b      	str	r3, [r5, #32]
 80095c8:	e008      	b.n	80095dc <WM__InitIVRSearch+0xe4>
 80095ca:	e894 0003 	ldmia.w	r4, {r0, r1}
 80095ce:	4b09      	ldr	r3, [pc, #36]	; (80095f4 <WM__InitIVRSearch+0xfc>)
 80095d0:	e883 0003 	stmia.w	r3, {r0, r1}
 80095d4:	f7ff fece 	bl	8009374 <WM__GetNextIVR>
 80095d8:	e000      	b.n	80095dc <WM__InitIVRSearch+0xe4>
 80095da:	2001      	movs	r0, #1
 80095dc:	b006      	add	sp, #24
 80095de:	e8bd 81f0 	ldmia.w	sp!, {r4, r5, r6, r7, r8, pc}
 80095e2:	bf00      	nop
 80095e4:	20000098 	.word	0x20000098
 80095e8:	20028f20 	.word	0x20028f20
 80095ec:	200291a8 	.word	0x200291a8
 80095f0:	20029178 	.word	0x20029178
 80095f4:	20028f2c 	.word	0x20028f2c

080095f8 <WM_Activate>:
 80095f8:	4b02      	ldr	r3, [pc, #8]	; (8009604 <WM_Activate+0xc>)
 80095fa:	681b      	ldr	r3, [r3, #0]
 80095fc:	2201      	movs	r2, #1
 80095fe:	f883 2054 	strb.w	r2, [r3, #84]	; 0x54
 8009602:	4770      	bx	lr
 8009604:	20000098 	.word	0x20000098

08009608 <WM_Deactivate>:
 8009608:	4b03      	ldr	r3, [pc, #12]	; (8009618 <WM_Deactivate+0x10>)
 800960a:	681b      	ldr	r3, [r3, #0]
 800960c:	2200      	movs	r2, #0
 800960e:	f883 2054 	strb.w	r2, [r3, #84]	; 0x54
 8009612:	f7fd ba5b 	b.w	8006acc <LCD_SetClipRectMax>
 8009616:	bf00      	nop
 8009618:	20000098 	.word	0x20000098

0800961c <WM_DefaultProc>:
 800961c:	b510      	push	{r4, lr}
 800961e:	4604      	mov	r4, r0
 8009620:	6840      	ldr	r0, [r0, #4]
 8009622:	6823      	ldr	r3, [r4, #0]
 8009624:	2b17      	cmp	r3, #23
 8009626:	d010      	beq.n	800964a <WM_DefaultProc+0x2e>
 8009628:	dc07      	bgt.n	800963a <WM_DefaultProc+0x1e>
 800962a:	2b0e      	cmp	r3, #14
 800962c:	d00f      	beq.n	800964e <WM_DefaultProc+0x32>
 800962e:	2b14      	cmp	r3, #20
 8009630:	d115      	bne.n	800965e <WM_DefaultProc+0x42>
 8009632:	68e1      	ldr	r1, [r4, #12]
 8009634:	f000 fbee 	bl	8009e14 <WM__GetClientRectEx>
 8009638:	e011      	b.n	800965e <WM_DefaultProc+0x42>
 800963a:	2b22      	cmp	r3, #34	; 0x22
 800963c:	d00c      	beq.n	8009658 <WM_DefaultProc+0x3c>
 800963e:	2b28      	cmp	r3, #40	; 0x28
 8009640:	d10d      	bne.n	800965e <WM_DefaultProc+0x42>
 8009642:	e8bd 4010 	ldmia.w	sp!, {r4, lr}
 8009646:	f7ff bdb8 	b.w	80091ba <WM_InvalidateWindow>
 800964a:	60e0      	str	r0, [r4, #12]
 800964c:	bd10      	pop	{r4, pc}
 800964e:	4621      	mov	r1, r4
 8009650:	e8bd 4010 	ldmia.w	sp!, {r4, lr}
 8009654:	f000 b91d 	b.w	8009892 <WM_SendToParent>
 8009658:	f06f 4370 	mvn.w	r3, #4026531840	; 0xf0000000
 800965c:	e000      	b.n	8009660 <WM_DefaultProc+0x44>
 800965e:	2300      	movs	r3, #0
 8009660:	60e3      	str	r3, [r4, #12]
 8009662:	bd10      	pop	{r4, pc}

08009664 <_cbBackWin>:
 8009664:	6803      	ldr	r3, [r0, #0]
 8009666:	2b0e      	cmp	r3, #14
 8009668:	b510      	push	{r4, lr}
 800966a:	4604      	mov	r4, r0
 800966c:	d002      	beq.n	8009674 <_cbBackWin+0x10>
 800966e:	2b0f      	cmp	r3, #15
 8009670:	d009      	beq.n	8009686 <_cbBackWin+0x22>
 8009672:	e020      	b.n	80096b6 <_cbBackWin+0x52>
 8009674:	68c3      	ldr	r3, [r0, #12]
 8009676:	685a      	ldr	r2, [r3, #4]
 8009678:	2a01      	cmp	r2, #1
 800967a:	d121      	bne.n	80096c0 <_cbBackWin+0x5c>
 800967c:	6818      	ldr	r0, [r3, #0]
 800967e:	e8bd 4010 	ldmia.w	sp!, {r4, lr}
 8009682:	f7fc bcb9 	b.w	8005ff8 <GUI_StoreKey>
 8009686:	4a0f      	ldr	r2, [pc, #60]	; (80096c4 <_cbBackWin+0x60>)
 8009688:	6843      	ldr	r3, [r0, #4]
 800968a:	6811      	ldr	r1, [r2, #0]
 800968c:	428b      	cmp	r3, r1
 800968e:	d006      	beq.n	800969e <_cbBackWin+0x3a>
 8009690:	6852      	ldr	r2, [r2, #4]
 8009692:	4293      	cmp	r3, r2
 8009694:	bf0c      	ite	eq
 8009696:	2301      	moveq	r3, #1
 8009698:	f04f 33ff 	movne.w	r3, #4294967295	; 0xffffffff
 800969c:	e000      	b.n	80096a0 <_cbBackWin+0x3c>
 800969e:	2300      	movs	r3, #0
 80096a0:	4a09      	ldr	r2, [pc, #36]	; (80096c8 <_cbBackWin+0x64>)
 80096a2:	f852 0023 	ldr.w	r0, [r2, r3, lsl #2]
 80096a6:	f06f 4370 	mvn.w	r3, #4026531840	; 0xf0000000
 80096aa:	4298      	cmp	r0, r3
 80096ac:	d003      	beq.n	80096b6 <_cbBackWin+0x52>
 80096ae:	f7fc f99d 	bl	80059ec <GUI_SetBkColor>
 80096b2:	f7fc fa69 	bl	8005b88 <GUI_Clear>
 80096b6:	4620      	mov	r0, r4
 80096b8:	e8bd 4010 	ldmia.w	sp!, {r4, lr}
 80096bc:	f7ff bfae 	b.w	800961c <WM_DefaultProc>
 80096c0:	bd10      	pop	{r4, pc}
 80096c2:	bf00      	nop
 80096c4:	2002917c 	.word	0x2002917c
 80096c8:	200291b0 	.word	0x200291b0

080096cc <WM_Init>:
 80096cc:	e92d 41ff 	stmdb	sp!, {r0, r1, r2, r3, r4, r5, r6, r7, r8, lr}
 80096d0:	4d2a      	ldr	r5, [pc, #168]	; (800977c <WM_Init+0xb0>)
 80096d2:	7828      	ldrb	r0, [r5, #0]
 80096d4:	2800      	cmp	r0, #0
 80096d6:	d14d      	bne.n	8009774 <WM_Init+0xa8>
 80096d8:	4b29      	ldr	r3, [pc, #164]	; (8009780 <WM_Init+0xb4>)
 80096da:	4e2a      	ldr	r6, [pc, #168]	; (8009784 <WM_Init+0xb8>)
 80096dc:	6018      	str	r0, [r3, #0]
 80096de:	4b2a      	ldr	r3, [pc, #168]	; (8009788 <WM_Init+0xbc>)
 80096e0:	4f2a      	ldr	r7, [pc, #168]	; (800978c <WM_Init+0xc0>)
 80096e2:	681b      	ldr	r3, [r3, #0]
 80096e4:	f8df 80d0 	ldr.w	r8, [pc, #208]	; 80097b8 <WM_Init+0xec>
 80096e8:	6458      	str	r0, [r3, #68]	; 0x44
 80096ea:	4b29      	ldr	r3, [pc, #164]	; (8009790 <WM_Init+0xc4>)
 80096ec:	60a8      	str	r0, [r5, #8]
 80096ee:	8018      	strh	r0, [r3, #0]
 80096f0:	4b28      	ldr	r3, [pc, #160]	; (8009794 <WM_Init+0xc8>)
 80096f2:	4604      	mov	r4, r0
 80096f4:	8018      	strh	r0, [r3, #0]
 80096f6:	4620      	mov	r0, r4
 80096f8:	f7fc fb30 	bl	8005d5c <GUI_DEVICE__GetpDriver>
 80096fc:	b1a8      	cbz	r0, 800972a <WM_Init+0x5e>
 80096fe:	f04f 32ff 	mov.w	r2, #4294967295	; 0xffffffff
 8009702:	2302      	movs	r3, #2
 8009704:	2100      	movs	r1, #0
 8009706:	e88d 000c 	stmia.w	sp, {r2, r3}
 800970a:	f643 73ff 	movw	r3, #16383	; 0x3fff
 800970e:	461a      	mov	r2, r3
 8009710:	9103      	str	r1, [sp, #12]
 8009712:	9602      	str	r6, [sp, #8]
 8009714:	4608      	mov	r0, r1
 8009716:	f7ff fd7d 	bl	8009214 <WM_CreateWindowAsChild>
 800971a:	f06f 4370 	mvn.w	r3, #4026531840	; 0xf0000000
 800971e:	f847 0024 	str.w	r0, [r7, r4, lsl #2]
 8009722:	f848 3024 	str.w	r3, [r8, r4, lsl #2]
 8009726:	f7ff fd48 	bl	80091ba <WM_InvalidateWindow>
 800972a:	3401      	adds	r4, #1
 800972c:	2c02      	cmp	r4, #2
 800972e:	d1e2      	bne.n	80096f6 <WM_Init+0x2a>
 8009730:	4819      	ldr	r0, [pc, #100]	; (8009798 <WM_Init+0xcc>)
 8009732:	f000 fb51 	bl	8009dd8 <WM__AddCriticalHandle>
 8009736:	4819      	ldr	r0, [pc, #100]	; (800979c <WM_Init+0xd0>)
 8009738:	f000 fb4e 	bl	8009dd8 <WM__AddCriticalHandle>
 800973c:	4818      	ldr	r0, [pc, #96]	; (80097a0 <WM_Init+0xd4>)
 800973e:	f000 fb4b 	bl	8009dd8 <WM__AddCriticalHandle>
 8009742:	4818      	ldr	r0, [pc, #96]	; (80097a4 <WM_Init+0xd8>)
 8009744:	f000 fb48 	bl	8009dd8 <WM__AddCriticalHandle>
 8009748:	4817      	ldr	r0, [pc, #92]	; (80097a8 <WM_Init+0xdc>)
 800974a:	f000 fb45 	bl	8009dd8 <WM__AddCriticalHandle>
 800974e:	4817      	ldr	r0, [pc, #92]	; (80097ac <WM_Init+0xe0>)
 8009750:	f000 fb42 	bl	8009dd8 <WM__AddCriticalHandle>
 8009754:	4b0d      	ldr	r3, [pc, #52]	; (800978c <WM_Init+0xc0>)
 8009756:	6818      	ldr	r0, [r3, #0]
 8009758:	f7ff fd3c 	bl	80091d4 <WM_SelectWindow>
 800975c:	f7ff ff4c 	bl	80095f8 <WM_Activate>
 8009760:	2301      	movs	r3, #1
 8009762:	702b      	strb	r3, [r5, #0]
 8009764:	4812      	ldr	r0, [pc, #72]	; (80097b0 <WM_Init+0xe4>)
 8009766:	4b13      	ldr	r3, [pc, #76]	; (80097b4 <WM_Init+0xe8>)
 8009768:	626b      	str	r3, [r5, #36]	; 0x24
 800976a:	b004      	add	sp, #16
 800976c:	e8bd 41f0 	ldmia.w	sp!, {r4, r5, r6, r7, r8, lr}
 8009770:	f7fc bae0 	b.w	8005d34 <GUI__RegisterExit>
 8009774:	b004      	add	sp, #16
 8009776:	e8bd 81f0 	ldmia.w	sp!, {r4, r5, r6, r7, r8, pc}
 800977a:	bf00      	nop
 800977c:	20028f20 	.word	0x20028f20
 8009780:	20029198 	.word	0x20029198
 8009784:	08009665 	.word	0x08009665
 8009788:	20000098 	.word	0x20000098
 800978c:	2002917c 	.word	0x2002917c
 8009790:	20029194 	.word	0x20029194
 8009794:	20029174 	.word	0x20029174
 8009798:	200291f0 	.word	0x200291f0
 800979c:	200291e0 	.word	0x200291e0
 80097a0:	200291d0 	.word	0x200291d0
 80097a4:	200291f8 	.word	0x200291f8
 80097a8:	200291e8 	.word	0x200291e8
 80097ac:	200291d8 	.word	0x200291d8
 80097b0:	20028f44 	.word	0x20028f44
 80097b4:	08008aed 	.word	0x08008aed
 80097b8:	200291b0 	.word	0x200291b0

080097bc <WM_GetDesktopWindow>:
 80097bc:	4b03      	ldr	r3, [pc, #12]	; (80097cc <WM_GetDesktopWindow+0x10>)
 80097be:	681b      	ldr	r3, [r3, #0]
 80097c0:	7c5a      	ldrb	r2, [r3, #17]
 80097c2:	4b03      	ldr	r3, [pc, #12]	; (80097d0 <WM_GetDesktopWindow+0x14>)
 80097c4:	f853 0022 	ldr.w	r0, [r3, r2, lsl #2]
 80097c8:	4770      	bx	lr
 80097ca:	bf00      	nop
 80097cc:	20000098 	.word	0x20000098
 80097d0:	2002917c 	.word	0x2002917c

080097d4 <WM_GetDesktopWindowEx>:
 80097d4:	2801      	cmp	r0, #1
 80097d6:	bf9a      	itte	ls
 80097d8:	4b02      	ldrls	r3, [pc, #8]	; (80097e4 <WM_GetDesktopWindowEx+0x10>)
 80097da:	f853 0020 	ldrls.w	r0, [r3, r0, lsl #2]
 80097de:	2000      	movhi	r0, #0
 80097e0:	4770      	bx	lr
 80097e2:	bf00      	nop
 80097e4:	2002917c 	.word	0x2002917c

080097e8 <WM_GetFirstChild>:
 80097e8:	b508      	push	{r3, lr}
 80097ea:	4603      	mov	r3, r0
 80097ec:	b110      	cbz	r0, 80097f4 <WM_GetFirstChild+0xc>
 80097ee:	f7fb fe2b 	bl	8005448 <GUI_ALLOC_h2p>
 80097f2:	69c3      	ldr	r3, [r0, #28]
 80097f4:	4618      	mov	r0, r3
 80097f6:	bd08      	pop	{r3, pc}

080097f8 <WM_GetParent>:
 80097f8:	b508      	push	{r3, lr}
 80097fa:	4603      	mov	r3, r0
 80097fc:	b110      	cbz	r0, 8009804 <WM_GetParent+0xc>
 80097fe:	f7fb fe23 	bl	8005448 <GUI_ALLOC_h2p>
 8009802:	6983      	ldr	r3, [r0, #24]
 8009804:	4618      	mov	r0, r3
 8009806:	bd08      	pop	{r3, pc}

08009808 <WM_BringToBottom>:
 8009808:	e92d 43f0 	stmdb	sp!, {r4, r5, r6, r7, r8, r9, lr}
 800980c:	4604      	mov	r4, r0
 800980e:	b087      	sub	sp, #28
 8009810:	2800      	cmp	r0, #0
 8009812:	d039      	beq.n	8009888 <WM_BringToBottom+0x80>
 8009814:	f7fb fe22 	bl	800545c <GUI_ALLOC_LockH>
 8009818:	4603      	mov	r3, r0
 800981a:	9001      	str	r0, [sp, #4]
 800981c:	c803      	ldmia	r0, {r0, r1}
 800981e:	ad04      	add	r5, sp, #16
 8009820:	e885 0003 	stmia.w	r5, {r0, r1}
 8009824:	a801      	add	r0, sp, #4
 8009826:	6a1e      	ldr	r6, [r3, #32]
 8009828:	f8d3 9028 	ldr.w	r9, [r3, #40]	; 0x28
 800982c:	f7fb fe24 	bl	8005478 <GUI_ALLOC_UnlockH>
 8009830:	4620      	mov	r0, r4
 8009832:	f000 fa78 	bl	8009d26 <WM__GetPrevSibling>
 8009836:	4607      	mov	r7, r0
 8009838:	b330      	cbz	r0, 8009888 <WM_BringToBottom+0x80>
 800983a:	4620      	mov	r0, r4
 800983c:	f7ff ffdc 	bl	80097f8 <WM_GetParent>
 8009840:	f019 0f02 	tst.w	r9, #2
 8009844:	4680      	mov	r8, r0
 8009846:	d004      	beq.n	8009852 <WM_BringToBottom+0x4a>
 8009848:	4601      	mov	r1, r0
 800984a:	4632      	mov	r2, r6
 800984c:	4628      	mov	r0, r5
 800984e:	f7ff fc75 	bl	800913c <WM__InvalidateRectEx>
 8009852:	4620      	mov	r0, r4
 8009854:	f7fb fe02 	bl	800545c <GUI_ALLOC_LockH>
 8009858:	9001      	str	r0, [sp, #4]
 800985a:	4640      	mov	r0, r8
 800985c:	f7fb fdfe 	bl	800545c <GUI_ALLOC_LockH>
 8009860:	9003      	str	r0, [sp, #12]
 8009862:	4638      	mov	r0, r7
 8009864:	f7fb fdfa 	bl	800545c <GUI_ALLOC_LockH>
 8009868:	9b03      	ldr	r3, [sp, #12]
 800986a:	9a01      	ldr	r2, [sp, #4]
 800986c:	69d9      	ldr	r1, [r3, #28]
 800986e:	6206      	str	r6, [r0, #32]
 8009870:	9002      	str	r0, [sp, #8]
 8009872:	6211      	str	r1, [r2, #32]
 8009874:	a801      	add	r0, sp, #4
 8009876:	61dc      	str	r4, [r3, #28]
 8009878:	f7fb fdfe 	bl	8005478 <GUI_ALLOC_UnlockH>
 800987c:	a803      	add	r0, sp, #12
 800987e:	f7fb fdfb 	bl	8005478 <GUI_ALLOC_UnlockH>
 8009882:	a802      	add	r0, sp, #8
 8009884:	f7fb fdf8 	bl	8005478 <GUI_ALLOC_UnlockH>
 8009888:	b007      	add	sp, #28
 800988a:	e8bd 83f0 	ldmia.w	sp!, {r4, r5, r6, r7, r8, r9, pc}

0800988e <WM_IsWindow>:
 800988e:	f7ff bb21 	b.w	8008ed4 <WM__IsWindow>

08009892 <WM_SendToParent>:
 8009892:	b538      	push	{r3, r4, r5, lr}
 8009894:	4605      	mov	r5, r0
 8009896:	460c      	mov	r4, r1
 8009898:	b141      	cbz	r1, 80098ac <WM_SendToParent+0x1a>
 800989a:	f7ff ffad 	bl	80097f8 <WM_GetParent>
 800989e:	b128      	cbz	r0, 80098ac <WM_SendToParent+0x1a>
 80098a0:	60a5      	str	r5, [r4, #8]
 80098a2:	4621      	mov	r1, r4
 80098a4:	e8bd 4038 	ldmia.w	sp!, {r3, r4, r5, lr}
 80098a8:	f000 ba6a 	b.w	8009d80 <WM__SendMessage>
 80098ac:	bd38      	pop	{r3, r4, r5, pc}
	...

080098b0 <WM_SetCreateFlags>:
 80098b0:	4b02      	ldr	r3, [pc, #8]	; (80098bc <WM_SetCreateFlags+0xc>)
 80098b2:	681a      	ldr	r2, [r3, #0]
 80098b4:	6018      	str	r0, [r3, #0]
 80098b6:	4610      	mov	r0, r2
 80098b8:	4770      	bx	lr
 80098ba:	bf00      	nop
 80098bc:	200291ac 	.word	0x200291ac

080098c0 <WM__IsInModalArea>:
 80098c0:	b570      	push	{r4, r5, r6, lr}
 80098c2:	4604      	mov	r4, r0
 80098c4:	b908      	cbnz	r0, 80098ca <WM__IsInModalArea+0xa>
 80098c6:	2000      	movs	r0, #0
 80098c8:	bd70      	pop	{r4, r5, r6, pc}
 80098ca:	4b11      	ldr	r3, [pc, #68]	; (8009910 <WM__IsInModalArea+0x50>)
 80098cc:	681b      	ldr	r3, [r3, #0]
 80098ce:	2b00      	cmp	r3, #0
 80098d0:	da0f      	bge.n	80098f2 <WM__IsInModalArea+0x32>
 80098d2:	4e10      	ldr	r6, [pc, #64]	; (8009914 <WM__IsInModalArea+0x54>)
 80098d4:	4d10      	ldr	r5, [pc, #64]	; (8009918 <WM__IsInModalArea+0x58>)
 80098d6:	6833      	ldr	r3, [r6, #0]
 80098d8:	eb05 03c3 	add.w	r3, r5, r3, lsl #3
 80098dc:	4620      	mov	r0, r4
 80098de:	6859      	ldr	r1, [r3, #4]
 80098e0:	f000 fa34 	bl	8009d4c <WM__IsAncestor>
 80098e4:	6833      	ldr	r3, [r6, #0]
 80098e6:	eb05 05c3 	add.w	r5, r5, r3, lsl #3
 80098ea:	686a      	ldr	r2, [r5, #4]
 80098ec:	686b      	ldr	r3, [r5, #4]
 80098ee:	b942      	cbnz	r2, 8009902 <WM__IsInModalArea+0x42>
 80098f0:	e00c      	b.n	800990c <WM__IsInModalArea+0x4c>
 80098f2:	4a0a      	ldr	r2, [pc, #40]	; (800991c <WM__IsInModalArea+0x5c>)
 80098f4:	f852 1023 	ldr.w	r1, [r2, r3, lsl #2]
 80098f8:	f000 fa28 	bl	8009d4c <WM__IsAncestor>
 80098fc:	2800      	cmp	r0, #0
 80098fe:	d1e8      	bne.n	80098d2 <WM__IsInModalArea+0x12>
 8009900:	e7e1      	b.n	80098c6 <WM__IsInModalArea+0x6>
 8009902:	b918      	cbnz	r0, 800990c <WM__IsInModalArea+0x4c>
 8009904:	1ae3      	subs	r3, r4, r3
 8009906:	4258      	negs	r0, r3
 8009908:	4158      	adcs	r0, r3
 800990a:	bd70      	pop	{r4, r5, r6, pc}
 800990c:	2001      	movs	r0, #1
 800990e:	bd70      	pop	{r4, r5, r6, pc}
 8009910:	200000b4 	.word	0x200000b4
 8009914:	2002919c 	.word	0x2002919c
 8009918:	200291f0 	.word	0x200291f0
 800991c:	2002917c 	.word	0x2002917c

08009920 <WM__SendPIDMessage>:
 8009920:	b5f0      	push	{r4, r5, r6, r7, lr}
 8009922:	4606      	mov	r6, r0
 8009924:	460c      	mov	r4, r1
 8009926:	c90f      	ldmia	r1, {r0, r1, r2, r3}
 8009928:	b085      	sub	sp, #20
 800992a:	e88d 000f 	stmia.w	sp, {r0, r1, r2, r3}
 800992e:	230d      	movs	r3, #13
 8009930:	466d      	mov	r5, sp
 8009932:	9602      	str	r6, [sp, #8]
 8009934:	9300      	str	r3, [sp, #0]
 8009936:	4637      	mov	r7, r6
 8009938:	4638      	mov	r0, r7
 800993a:	f7ff ffa8 	bl	800988e <WM_IsWindow>
 800993e:	b150      	cbz	r0, 8009956 <WM__SendPIDMessage+0x36>
 8009940:	4638      	mov	r0, r7
 8009942:	f7ff ff59 	bl	80097f8 <WM_GetParent>
 8009946:	4607      	mov	r7, r0
 8009948:	2800      	cmp	r0, #0
 800994a:	d0f5      	beq.n	8009938 <WM__SendPIDMessage+0x18>
 800994c:	4629      	mov	r1, r5
 800994e:	9403      	str	r4, [sp, #12]
 8009950:	f000 fa34 	bl	8009dbc <WM__SendMessageIfEnabled>
 8009954:	e7f0      	b.n	8009938 <WM__SendPIDMessage+0x18>
 8009956:	4621      	mov	r1, r4
 8009958:	4630      	mov	r0, r6
 800995a:	f000 fa2f 	bl	8009dbc <WM__SendMessageIfEnabled>
 800995e:	b005      	add	sp, #20
 8009960:	bdf0      	pop	{r4, r5, r6, r7, pc}

08009962 <WM__SendTouchMessage>:
 8009962:	b573      	push	{r0, r1, r4, r5, r6, lr}
 8009964:	68cc      	ldr	r4, [r1, #12]
 8009966:	4606      	mov	r6, r0
 8009968:	460d      	mov	r5, r1
 800996a:	b18c      	cbz	r4, 8009990 <WM__SendTouchMessage+0x2e>
 800996c:	f7fb fd76 	bl	800545c <GUI_ALLOC_LockH>
 8009970:	6822      	ldr	r2, [r4, #0]
 8009972:	f9b0 1000 	ldrsh.w	r1, [r0]
 8009976:	ab02      	add	r3, sp, #8
 8009978:	1a52      	subs	r2, r2, r1
 800997a:	f843 0d04 	str.w	r0, [r3, #-4]!
 800997e:	f9b0 1002 	ldrsh.w	r1, [r0, #2]
 8009982:	6022      	str	r2, [r4, #0]
 8009984:	6862      	ldr	r2, [r4, #4]
 8009986:	1a52      	subs	r2, r2, r1
 8009988:	6062      	str	r2, [r4, #4]
 800998a:	4618      	mov	r0, r3
 800998c:	f7fb fd74 	bl	8005478 <GUI_ALLOC_UnlockH>
 8009990:	4629      	mov	r1, r5
 8009992:	4630      	mov	r0, r6
 8009994:	f7ff ffc4 	bl	8009920 <WM__SendPIDMessage>
 8009998:	b002      	add	sp, #8
 800999a:	bd70      	pop	{r4, r5, r6, pc}

0800999c <WM_HandlePID>:
 800999c:	e92d 4ff0 	stmdb	sp!, {r4, r5, r6, r7, r8, r9, sl, fp, lr}
 80099a0:	b097      	sub	sp, #92	; 0x5c
 80099a2:	ad06      	add	r5, sp, #24
 80099a4:	2300      	movs	r3, #0
 80099a6:	9306      	str	r3, [sp, #24]
 80099a8:	606b      	str	r3, [r5, #4]
 80099aa:	60ab      	str	r3, [r5, #8]
 80099ac:	f000 fe5c 	bl	800a668 <GUI_PID_IsEmpty>
 80099b0:	b108      	cbz	r0, 80099b6 <WM_HandlePID+0x1a>
 80099b2:	2000      	movs	r0, #0
 80099b4:	e1a9      	b.n	8009d0a <WM_HandlePID+0x36e>
 80099b6:	ac09      	add	r4, sp, #36	; 0x24
 80099b8:	4620      	mov	r0, r4
 80099ba:	f000 fdd1 	bl	800a560 <GUI_PID_GetState>
 80099be:	9b09      	ldr	r3, [sp, #36]	; 0x24
 80099c0:	4ead      	ldr	r6, [pc, #692]	; (8009c78 <WM_HandlePID+0x2dc>)
 80099c2:	1c5a      	adds	r2, r3, #1
 80099c4:	d111      	bne.n	80099ea <WM_HandlePID+0x4e>
 80099c6:	9b0a      	ldr	r3, [sp, #40]	; 0x28
 80099c8:	3301      	adds	r3, #1
 80099ca:	d11d      	bne.n	8009a08 <WM_HandlePID+0x6c>
 80099cc:	6832      	ldr	r2, [r6, #0]
 80099ce:	4bab      	ldr	r3, [pc, #684]	; (8009c7c <WM_HandlePID+0x2e0>)
 80099d0:	210c      	movs	r1, #12
 80099d2:	fb01 3302 	mla	r3, r1, r2, r3
 80099d6:	f89d 202c 	ldrb.w	r2, [sp, #44]	; 0x2c
 80099da:	7e19      	ldrb	r1, [r3, #24]
 80099dc:	4291      	cmp	r1, r2
 80099de:	d0e8      	beq.n	80099b2 <WM_HandlePID+0x16>
 80099e0:	691a      	ldr	r2, [r3, #16]
 80099e2:	695b      	ldr	r3, [r3, #20]
 80099e4:	9209      	str	r2, [sp, #36]	; 0x24
 80099e6:	930a      	str	r3, [sp, #40]	; 0x28
 80099e8:	e00e      	b.n	8009a08 <WM_HandlePID+0x6c>
 80099ea:	2b00      	cmp	r3, #0
 80099ec:	db0c      	blt.n	8009a08 <WM_HandlePID+0x6c>
 80099ee:	9a0a      	ldr	r2, [sp, #40]	; 0x28
 80099f0:	2a00      	cmp	r2, #0
 80099f2:	db09      	blt.n	8009a08 <WM_HandlePID+0x6c>
 80099f4:	49a2      	ldr	r1, [pc, #648]	; (8009c80 <WM_HandlePID+0x2e4>)
 80099f6:	f9b1 1000 	ldrsh.w	r1, [r1]
 80099fa:	440b      	add	r3, r1
 80099fc:	9309      	str	r3, [sp, #36]	; 0x24
 80099fe:	4ba1      	ldr	r3, [pc, #644]	; (8009c84 <WM_HandlePID+0x2e8>)
 8009a00:	f9b3 3000 	ldrsh.w	r3, [r3]
 8009a04:	441a      	add	r2, r3
 8009a06:	920a      	str	r2, [sp, #40]	; 0x28
 8009a08:	f89d 302d 	ldrb.w	r3, [sp, #45]	; 0x2d
 8009a0c:	4f9a      	ldr	r7, [pc, #616]	; (8009c78 <WM_HandlePID+0x2dc>)
 8009a0e:	2b01      	cmp	r3, #1
 8009a10:	bf98      	it	ls
 8009a12:	6033      	strls	r3, [r6, #0]
 8009a14:	6830      	ldr	r0, [r6, #0]
 8009a16:	f7fc f9a1 	bl	8005d5c <GUI_DEVICE__GetpDriver>
 8009a1a:	2800      	cmp	r0, #0
 8009a1c:	d0c9      	beq.n	80099b2 <WM_HandlePID+0x16>
 8009a1e:	aa02      	add	r2, sp, #8
 8009a20:	a901      	add	r1, sp, #4
 8009a22:	6838      	ldr	r0, [r7, #0]
 8009a24:	f7fc fafa 	bl	800601c <GUI_GetLayerPosEx>
 8009a28:	a804      	add	r0, sp, #16
 8009a2a:	f000 f9d5 	bl	8009dd8 <WM__AddCriticalHandle>
 8009a2e:	9b01      	ldr	r3, [sp, #4]
 8009a30:	9809      	ldr	r0, [sp, #36]	; 0x24
 8009a32:	990a      	ldr	r1, [sp, #40]	; 0x28
 8009a34:	1ac0      	subs	r0, r0, r3
 8009a36:	9b02      	ldr	r3, [sp, #8]
 8009a38:	9009      	str	r0, [sp, #36]	; 0x24
 8009a3a:	1ac9      	subs	r1, r1, r3
 8009a3c:	683b      	ldr	r3, [r7, #0]
 8009a3e:	4f8f      	ldr	r7, [pc, #572]	; (8009c7c <WM_HandlePID+0x2e0>)
 8009a40:	910a      	str	r1, [sp, #40]	; 0x28
 8009a42:	220c      	movs	r2, #12
 8009a44:	fb02 7303 	mla	r3, r2, r3, r7
 8009a48:	691a      	ldr	r2, [r3, #16]
 8009a4a:	4290      	cmp	r0, r2
 8009a4c:	d108      	bne.n	8009a60 <WM_HandlePID+0xc4>
 8009a4e:	695a      	ldr	r2, [r3, #20]
 8009a50:	4291      	cmp	r1, r2
 8009a52:	d105      	bne.n	8009a60 <WM_HandlePID+0xc4>
 8009a54:	7e1a      	ldrb	r2, [r3, #24]
 8009a56:	f89d 302c 	ldrb.w	r3, [sp, #44]	; 0x2c
 8009a5a:	429a      	cmp	r2, r3
 8009a5c:	f000 8150 	beq.w	8009d00 <WM_HandlePID+0x364>
 8009a60:	f89d 202d 	ldrb.w	r2, [sp, #45]	; 0x2d
 8009a64:	f000 fd3e 	bl	800a4e4 <GUI_CURSOR_SetPositionEx>
 8009a68:	683b      	ldr	r3, [r7, #0]
 8009a6a:	b113      	cbz	r3, 8009a72 <WM_HandlePID+0xd6>
 8009a6c:	2100      	movs	r1, #0
 8009a6e:	4620      	mov	r0, r4
 8009a70:	4798      	blx	r3
 8009a72:	6832      	ldr	r2, [r6, #0]
 8009a74:	4b84      	ldr	r3, [pc, #528]	; (8009c88 <WM_HandlePID+0x2ec>)
 8009a76:	f853 0022 	ldr.w	r0, [r3, r2, lsl #2]
 8009a7a:	b918      	cbnz	r0, 8009a84 <WM_HandlePID+0xe8>
 8009a7c:	990a      	ldr	r1, [sp, #40]	; 0x28
 8009a7e:	9809      	ldr	r0, [sp, #36]	; 0x24
 8009a80:	f001 fc6a 	bl	800b358 <WM_Screen2hWin>
 8009a84:	687b      	ldr	r3, [r7, #4]
 8009a86:	9005      	str	r0, [sp, #20]
 8009a88:	b113      	cbz	r3, 8009a90 <WM_HandlePID+0xf4>
 8009a8a:	9905      	ldr	r1, [sp, #20]
 8009a8c:	4620      	mov	r0, r4
 8009a8e:	4798      	blx	r3
 8009a90:	497e      	ldr	r1, [pc, #504]	; (8009c8c <WM_HandlePID+0x2f0>)
 8009a92:	6833      	ldr	r3, [r6, #0]
 8009a94:	f8df 91e0 	ldr.w	r9, [pc, #480]	; 8009c78 <WM_HandlePID+0x2dc>
 8009a98:	eb01 03c3 	add.w	r3, r1, r3, lsl #3
 8009a9c:	4688      	mov	r8, r1
 8009a9e:	685a      	ldr	r2, [r3, #4]
 8009aa0:	9805      	ldr	r0, [sp, #20]
 8009aa2:	b312      	cbz	r2, 8009aea <WM_HandlePID+0x14e>
 8009aa4:	4282      	cmp	r2, r0
 8009aa6:	d020      	beq.n	8009aea <WM_HandlePID+0x14e>
 8009aa8:	6858      	ldr	r0, [r3, #4]
 8009aaa:	f7ff ff09 	bl	80098c0 <WM__IsInModalArea>
 8009aae:	b1e0      	cbz	r0, 8009aea <WM_HandlePID+0x14e>
 8009ab0:	f8d9 3000 	ldr.w	r3, [r9]
 8009ab4:	eb08 03c3 	add.w	r3, r8, r3, lsl #3
 8009ab8:	6858      	ldr	r0, [r3, #4]
 8009aba:	f000 f958 	bl	8009d6e <WM__IsEnabled>
 8009abe:	b1a0      	cbz	r0, 8009aea <WM_HandlePID+0x14e>
 8009ac0:	2312      	movs	r3, #18
 8009ac2:	e894 0007 	ldmia.w	r4, {r0, r1, r2}
 8009ac6:	9312      	str	r3, [sp, #72]	; 0x48
 8009ac8:	f8d9 3000 	ldr.w	r3, [r9]
 8009acc:	9515      	str	r5, [sp, #84]	; 0x54
 8009ace:	eb08 03c3 	add.w	r3, r8, r3, lsl #3
 8009ad2:	e885 0007 	stmia.w	r5, {r0, r1, r2}
 8009ad6:	6858      	ldr	r0, [r3, #4]
 8009ad8:	a912      	add	r1, sp, #72	; 0x48
 8009ada:	f7ff ff42 	bl	8009962 <WM__SendTouchMessage>
 8009ade:	f8d9 3000 	ldr.w	r3, [r9]
 8009ae2:	eb08 03c3 	add.w	r3, r8, r3, lsl #3
 8009ae6:	2200      	movs	r2, #0
 8009ae8:	605a      	str	r2, [r3, #4]
 8009aea:	9805      	ldr	r0, [sp, #20]
 8009aec:	f7ff fee8 	bl	80098c0 <WM__IsInModalArea>
 8009af0:	b908      	cbnz	r0, 8009af6 <WM_HandlePID+0x15a>
 8009af2:	2500      	movs	r5, #0
 8009af4:	e0f6      	b.n	8009ce4 <WM_HandlePID+0x348>
 8009af6:	6833      	ldr	r3, [r6, #0]
 8009af8:	9a05      	ldr	r2, [sp, #20]
 8009afa:	f8df a17c 	ldr.w	sl, [pc, #380]	; 8009c78 <WM_HandlePID+0x2dc>
 8009afe:	f8df 917c 	ldr.w	r9, [pc, #380]	; 8009c7c <WM_HandlePID+0x2e0>
 8009b02:	eb08 08c3 	add.w	r8, r8, r3, lsl #3
 8009b06:	f8c8 2004 	str.w	r2, [r8, #4]
 8009b0a:	f04f 080c 	mov.w	r8, #12
 8009b0e:	fb08 7303 	mla	r3, r8, r3, r7
 8009b12:	7e1a      	ldrb	r2, [r3, #24]
 8009b14:	f89d 302c 	ldrb.w	r3, [sp, #44]	; 0x2c
 8009b18:	429a      	cmp	r2, r3
 8009b1a:	d063      	beq.n	8009be4 <WM_HandlePID+0x248>
 8009b1c:	9b05      	ldr	r3, [sp, #20]
 8009b1e:	2b00      	cmp	r3, #0
 8009b20:	d060      	beq.n	8009be4 <WM_HandlePID+0x248>
 8009b22:	9805      	ldr	r0, [sp, #20]
 8009b24:	f7fb fc9a 	bl	800545c <GUI_ALLOC_LockH>
 8009b28:	f89d 302c 	ldrb.w	r3, [sp, #44]	; 0x2c
 8009b2c:	f88d 3044 	strb.w	r3, [sp, #68]	; 0x44
 8009b30:	f8da 3000 	ldr.w	r3, [sl]
 8009b34:	9003      	str	r0, [sp, #12]
 8009b36:	fb08 9303 	mla	r3, r8, r3, r9
 8009b3a:	7e1b      	ldrb	r3, [r3, #24]
 8009b3c:	f88d 3045 	strb.w	r3, [sp, #69]	; 0x45
 8009b40:	f9b0 2000 	ldrsh.w	r2, [r0]
 8009b44:	9b09      	ldr	r3, [sp, #36]	; 0x24
 8009b46:	1a9b      	subs	r3, r3, r2
 8009b48:	930f      	str	r3, [sp, #60]	; 0x3c
 8009b4a:	f9b0 2002 	ldrsh.w	r2, [r0, #2]
 8009b4e:	9b0a      	ldr	r3, [sp, #40]	; 0x28
 8009b50:	eb0d 0008 	add.w	r0, sp, r8
 8009b54:	1a9b      	subs	r3, r3, r2
 8009b56:	9310      	str	r3, [sp, #64]	; 0x40
 8009b58:	f7fb fc8e 	bl	8005478 <GUI_ALLOC_UnlockH>
 8009b5c:	ab0f      	add	r3, sp, #60	; 0x3c
 8009b5e:	9315      	str	r3, [sp, #84]	; 0x54
 8009b60:	2311      	movs	r3, #17
 8009b62:	9312      	str	r3, [sp, #72]	; 0x48
 8009b64:	f8da 3000 	ldr.w	r3, [sl]
 8009b68:	fb08 9e03 	mla	lr, r8, r3, r9
 8009b6c:	f10e 0210 	add.w	r2, lr, #16
 8009b70:	ca07      	ldmia	r2, {r0, r1, r2}
 8009b72:	f10d 0a30 	add.w	sl, sp, #48	; 0x30
 8009b76:	e88a 0007 	stmia.w	sl, {r0, r1, r2}
 8009b7a:	f89d 202c 	ldrb.w	r2, [sp, #44]	; 0x2c
 8009b7e:	f88e 2018 	strb.w	r2, [lr, #24]
 8009b82:	f89d 2020 	ldrb.w	r2, [sp, #32]
 8009b86:	f8df 9108 	ldr.w	r9, [pc, #264]	; 8009c90 <WM_HandlePID+0x2f4>
 8009b8a:	00db      	lsls	r3, r3, #3
 8009b8c:	b132      	cbz	r2, 8009b9c <WM_HandlePID+0x200>
 8009b8e:	eb09 0203 	add.w	r2, r9, r3
 8009b92:	f8d2 8004 	ldr.w	r8, [r2, #4]
 8009b96:	9905      	ldr	r1, [sp, #20]
 8009b98:	6051      	str	r1, [r2, #4]
 8009b9a:	e000      	b.n	8009b9e <WM_HandlePID+0x202>
 8009b9c:	4690      	mov	r8, r2
 8009b9e:	444b      	add	r3, r9
 8009ba0:	a912      	add	r1, sp, #72	; 0x48
 8009ba2:	f8d3 b004 	ldr.w	fp, [r3, #4]
 8009ba6:	9805      	ldr	r0, [sp, #20]
 8009ba8:	f000 f908 	bl	8009dbc <WM__SendMessageIfEnabled>
 8009bac:	6833      	ldr	r3, [r6, #0]
 8009bae:	eb09 02c3 	add.w	r2, r9, r3, lsl #3
 8009bb2:	6851      	ldr	r1, [r2, #4]
 8009bb4:	458b      	cmp	fp, r1
 8009bb6:	bf1c      	itt	ne
 8009bb8:	6852      	ldrne	r2, [r2, #4]
 8009bba:	9205      	strne	r2, [sp, #20]
 8009bbc:	220c      	movs	r2, #12
 8009bbe:	fb02 7303 	mla	r3, r2, r3, r7
 8009bc2:	e89a 0007 	ldmia.w	sl, {r0, r1, r2}
 8009bc6:	3310      	adds	r3, #16
 8009bc8:	e883 0007 	stmia.w	r3, {r0, r1, r2}
 8009bcc:	f1b8 0f00 	cmp.w	r8, #0
 8009bd0:	d008      	beq.n	8009be4 <WM_HandlePID+0x248>
 8009bd2:	4640      	mov	r0, r8
 8009bd4:	f7ff fe5b 	bl	800988e <WM_IsWindow>
 8009bd8:	b120      	cbz	r0, 8009be4 <WM_HandlePID+0x248>
 8009bda:	6833      	ldr	r3, [r6, #0]
 8009bdc:	eb09 09c3 	add.w	r9, r9, r3, lsl #3
 8009be0:	f8c9 8004 	str.w	r8, [r9, #4]
 8009be4:	6833      	ldr	r3, [r6, #0]
 8009be6:	f89d 002c 	ldrb.w	r0, [sp, #44]	; 0x2c
 8009bea:	f04f 0e0c 	mov.w	lr, #12
 8009bee:	fb0e 7e03 	mla	lr, lr, r3, r7
 8009bf2:	f89e 2018 	ldrb.w	r2, [lr, #24]
 8009bf6:	ea50 0802 	orrs.w	r8, r0, r2
 8009bfa:	d05c      	beq.n	8009cb6 <WM_HandlePID+0x31a>
 8009bfc:	4924      	ldr	r1, [pc, #144]	; (8009c90 <WM_HandlePID+0x2f4>)
 8009bfe:	f44f 7210 	mov.w	r2, #576	; 0x240
 8009c02:	00db      	lsls	r3, r3, #3
 8009c04:	9212      	str	r2, [sp, #72]	; 0x48
 8009c06:	18ca      	adds	r2, r1, r3
 8009c08:	f8d2 8004 	ldr.w	r8, [r2, #4]
 8009c0c:	f8dd c014 	ldr.w	ip, [sp, #20]
 8009c10:	45e0      	cmp	r8, ip
 8009c12:	4688      	mov	r8, r1
 8009c14:	d018      	beq.n	8009c48 <WM_HandlePID+0x2ac>
 8009c16:	6852      	ldr	r2, [r2, #4]
 8009c18:	b1b2      	cbz	r2, 8009c48 <WM_HandlePID+0x2ac>
 8009c1a:	b110      	cbz	r0, 8009c22 <WM_HandlePID+0x286>
 8009c1c:	2200      	movs	r2, #0
 8009c1e:	9215      	str	r2, [sp, #84]	; 0x54
 8009c20:	e008      	b.n	8009c34 <WM_HandlePID+0x298>
 8009c22:	f8de 2010 	ldr.w	r2, [lr, #16]
 8009c26:	9206      	str	r2, [sp, #24]
 8009c28:	f8de 2014 	ldr.w	r2, [lr, #20]
 8009c2c:	9207      	str	r2, [sp, #28]
 8009c2e:	f88d 0020 	strb.w	r0, [sp, #32]
 8009c32:	9515      	str	r5, [sp, #84]	; 0x54
 8009c34:	4443      	add	r3, r8
 8009c36:	a912      	add	r1, sp, #72	; 0x48
 8009c38:	6858      	ldr	r0, [r3, #4]
 8009c3a:	f7ff fe92 	bl	8009962 <WM__SendTouchMessage>
 8009c3e:	6833      	ldr	r3, [r6, #0]
 8009c40:	eb08 03c3 	add.w	r3, r8, r3, lsl #3
 8009c44:	2200      	movs	r2, #0
 8009c46:	605a      	str	r2, [r3, #4]
 8009c48:	6833      	ldr	r3, [r6, #0]
 8009c4a:	f89d e02c 	ldrb.w	lr, [sp, #44]	; 0x2c
 8009c4e:	220c      	movs	r2, #12
 8009c50:	fb02 7203 	mla	r2, r2, r3, r7
 8009c54:	f882 e018 	strb.w	lr, [r2, #24]
 8009c58:	9a05      	ldr	r2, [sp, #20]
 8009c5a:	2a00      	cmp	r2, #0
 8009c5c:	d041      	beq.n	8009ce2 <WM_HandlePID+0x346>
 8009c5e:	e894 0007 	ldmia.w	r4, {r0, r1, r2}
 8009c62:	e885 0007 	stmia.w	r5, {r0, r1, r2}
 8009c66:	f1be 0f00 	cmp.w	lr, #0
 8009c6a:	d013      	beq.n	8009c94 <WM_HandlePID+0x2f8>
 8009c6c:	eb08 08c3 	add.w	r8, r8, r3, lsl #3
 8009c70:	9a05      	ldr	r2, [sp, #20]
 8009c72:	f8c8 2004 	str.w	r2, [r8, #4]
 8009c76:	e018      	b.n	8009caa <WM_HandlePID+0x30e>
 8009c78:	2002919c 	.word	0x2002919c
 8009c7c:	20028f50 	.word	0x20028f50
 8009c80:	20029138 	.word	0x20029138
 8009c84:	20029128 	.word	0x20029128
 8009c88:	200291c0 	.word	0x200291c0
 8009c8c:	200291d0 	.word	0x200291d0
 8009c90:	200291e0 	.word	0x200291e0
 8009c94:	4b1e      	ldr	r3, [pc, #120]	; (8009d10 <WM_HandlePID+0x374>)
 8009c96:	781b      	ldrb	r3, [r3, #0]
 8009c98:	b10b      	cbz	r3, 8009c9e <WM_HandlePID+0x302>
 8009c9a:	f001 fb85 	bl	800b3a8 <WM_ReleaseCapture>
 8009c9e:	6833      	ldr	r3, [r6, #0]
 8009ca0:	eb08 08c3 	add.w	r8, r8, r3, lsl #3
 8009ca4:	2300      	movs	r3, #0
 8009ca6:	f8c8 3004 	str.w	r3, [r8, #4]
 8009caa:	9805      	ldr	r0, [sp, #20]
 8009cac:	9515      	str	r5, [sp, #84]	; 0x54
 8009cae:	a912      	add	r1, sp, #72	; 0x48
 8009cb0:	f7ff fe57 	bl	8009962 <WM__SendTouchMessage>
 8009cb4:	e015      	b.n	8009ce2 <WM_HandlePID+0x346>
 8009cb6:	9b05      	ldr	r3, [sp, #20]
 8009cb8:	2b00      	cmp	r3, #0
 8009cba:	f43f af1a 	beq.w	8009af2 <WM_HandlePID+0x156>
 8009cbe:	9805      	ldr	r0, [sp, #20]
 8009cc0:	f000 f855 	bl	8009d6e <WM__IsEnabled>
 8009cc4:	2800      	cmp	r0, #0
 8009cc6:	f43f af14 	beq.w	8009af2 <WM_HandlePID+0x156>
 8009cca:	e894 0007 	ldmia.w	r4, {r0, r1, r2}
 8009cce:	2310      	movs	r3, #16
 8009cd0:	e885 0007 	stmia.w	r5, {r0, r1, r2}
 8009cd4:	9805      	ldr	r0, [sp, #20]
 8009cd6:	9312      	str	r3, [sp, #72]	; 0x48
 8009cd8:	a912      	add	r1, sp, #72	; 0x48
 8009cda:	9515      	str	r5, [sp, #84]	; 0x54
 8009cdc:	f7ff fe41 	bl	8009962 <WM__SendTouchMessage>
 8009ce0:	e707      	b.n	8009af2 <WM_HandlePID+0x156>
 8009ce2:	2501      	movs	r5, #1
 8009ce4:	e894 0007 	ldmia.w	r4, {r0, r1, r2}
 8009ce8:	6836      	ldr	r6, [r6, #0]
 8009cea:	230c      	movs	r3, #12
 8009cec:	fb03 7706 	mla	r7, r3, r6, r7
 8009cf0:	3710      	adds	r7, #16
 8009cf2:	e887 0007 	stmia.w	r7, {r0, r1, r2}
 8009cf6:	4631      	mov	r1, r6
 8009cf8:	4620      	mov	r0, r4
 8009cfa:	f001 fad7 	bl	800b2ac <WM_PID__SetPrevState>
 8009cfe:	e000      	b.n	8009d02 <WM_HandlePID+0x366>
 8009d00:	2500      	movs	r5, #0
 8009d02:	a804      	add	r0, sp, #16
 8009d04:	f000 f870 	bl	8009de8 <WM__RemoveCriticalHandle>
 8009d08:	4628      	mov	r0, r5
 8009d0a:	b017      	add	sp, #92	; 0x5c
 8009d0c:	e8bd 8ff0 	ldmia.w	sp!, {r4, r5, r6, r7, r8, r9, sl, fp, pc}
 8009d10:	200291a0 	.word	0x200291a0

08009d14 <WM__GetFirstSibling>:
 8009d14:	b508      	push	{r3, lr}
 8009d16:	f7ff fd6f 	bl	80097f8 <WM_GetParent>
 8009d1a:	b118      	cbz	r0, 8009d24 <WM__GetFirstSibling+0x10>
 8009d1c:	f7fb fb94 	bl	8005448 <GUI_ALLOC_h2p>
 8009d20:	69c0      	ldr	r0, [r0, #28]
 8009d22:	bd08      	pop	{r3, pc}
 8009d24:	bd08      	pop	{r3, pc}

08009d26 <WM__GetPrevSibling>:
 8009d26:	b538      	push	{r3, r4, r5, lr}
 8009d28:	4605      	mov	r5, r0
 8009d2a:	f7ff fff3 	bl	8009d14 <WM__GetFirstSibling>
 8009d2e:	4604      	mov	r4, r0
 8009d30:	b154      	cbz	r4, 8009d48 <WM__GetPrevSibling+0x22>
 8009d32:	42ac      	cmp	r4, r5
 8009d34:	d007      	beq.n	8009d46 <WM__GetPrevSibling+0x20>
 8009d36:	4620      	mov	r0, r4
 8009d38:	f7fb fb86 	bl	8005448 <GUI_ALLOC_h2p>
 8009d3c:	6a03      	ldr	r3, [r0, #32]
 8009d3e:	429d      	cmp	r5, r3
 8009d40:	d002      	beq.n	8009d48 <WM__GetPrevSibling+0x22>
 8009d42:	461c      	mov	r4, r3
 8009d44:	e7f4      	b.n	8009d30 <WM__GetPrevSibling+0xa>
 8009d46:	2400      	movs	r4, #0
 8009d48:	4620      	mov	r0, r4
 8009d4a:	bd38      	pop	{r3, r4, r5, pc}

08009d4c <WM__IsAncestor>:
 8009d4c:	b510      	push	{r4, lr}
 8009d4e:	460c      	mov	r4, r1
 8009d50:	b908      	cbnz	r0, 8009d56 <WM__IsAncestor+0xa>
 8009d52:	2000      	movs	r0, #0
 8009d54:	bd10      	pop	{r4, pc}
 8009d56:	2900      	cmp	r1, #0
 8009d58:	d0fb      	beq.n	8009d52 <WM__IsAncestor+0x6>
 8009d5a:	f7fb fb75 	bl	8005448 <GUI_ALLOC_h2p>
 8009d5e:	6980      	ldr	r0, [r0, #24]
 8009d60:	4284      	cmp	r4, r0
 8009d62:	d002      	beq.n	8009d6a <WM__IsAncestor+0x1e>
 8009d64:	2800      	cmp	r0, #0
 8009d66:	d1f8      	bne.n	8009d5a <WM__IsAncestor+0xe>
 8009d68:	e7f3      	b.n	8009d52 <WM__IsAncestor+0x6>
 8009d6a:	2001      	movs	r0, #1
 8009d6c:	bd10      	pop	{r4, pc}

08009d6e <WM__IsEnabled>:
 8009d6e:	b508      	push	{r3, lr}
 8009d70:	f7fb fb6a 	bl	8005448 <GUI_ALLOC_h2p>
 8009d74:	6a80      	ldr	r0, [r0, #40]	; 0x28
 8009d76:	f080 0010 	eor.w	r0, r0, #16
 8009d7a:	f3c0 1000 	ubfx	r0, r0, #4, #1
 8009d7e:	bd08      	pop	{r3, pc}

08009d80 <WM__SendMessage>:
 8009d80:	b570      	push	{r4, r5, r6, lr}
 8009d82:	4c0d      	ldr	r4, [pc, #52]	; (8009db8 <WM__SendMessage+0x38>)
 8009d84:	6823      	ldr	r3, [r4, #0]
 8009d86:	2b13      	cmp	r3, #19
 8009d88:	4606      	mov	r6, r0
 8009d8a:	460d      	mov	r5, r1
 8009d8c:	dc12      	bgt.n	8009db4 <WM__SendMessage+0x34>
 8009d8e:	f7fb fb5b 	bl	8005448 <GUI_ALLOC_h2p>
 8009d92:	6902      	ldr	r2, [r0, #16]
 8009d94:	606e      	str	r6, [r5, #4]
 8009d96:	b142      	cbz	r2, 8009daa <WM__SendMessage+0x2a>
 8009d98:	6823      	ldr	r3, [r4, #0]
 8009d9a:	4628      	mov	r0, r5
 8009d9c:	3301      	adds	r3, #1
 8009d9e:	6023      	str	r3, [r4, #0]
 8009da0:	4790      	blx	r2
 8009da2:	6823      	ldr	r3, [r4, #0]
 8009da4:	3b01      	subs	r3, #1
 8009da6:	6023      	str	r3, [r4, #0]
 8009da8:	bd70      	pop	{r4, r5, r6, pc}
 8009daa:	4628      	mov	r0, r5
 8009dac:	e8bd 4070 	ldmia.w	sp!, {r4, r5, r6, lr}
 8009db0:	f7ff bc34 	b.w	800961c <WM_DefaultProc>
 8009db4:	bd70      	pop	{r4, r5, r6, pc}
 8009db6:	bf00      	nop
 8009db8:	20028f78 	.word	0x20028f78

08009dbc <WM__SendMessageIfEnabled>:
 8009dbc:	b538      	push	{r3, r4, r5, lr}
 8009dbe:	4604      	mov	r4, r0
 8009dc0:	460d      	mov	r5, r1
 8009dc2:	f7ff ffd4 	bl	8009d6e <WM__IsEnabled>
 8009dc6:	b128      	cbz	r0, 8009dd4 <WM__SendMessageIfEnabled+0x18>
 8009dc8:	4629      	mov	r1, r5
 8009dca:	4620      	mov	r0, r4
 8009dcc:	e8bd 4038 	ldmia.w	sp!, {r3, r4, r5, lr}
 8009dd0:	f7ff bfd6 	b.w	8009d80 <WM__SendMessage>
 8009dd4:	bd38      	pop	{r3, r4, r5, pc}
	...

08009dd8 <WM__AddCriticalHandle>:
 8009dd8:	4b02      	ldr	r3, [pc, #8]	; (8009de4 <WM__AddCriticalHandle+0xc>)
 8009dda:	681a      	ldr	r2, [r3, #0]
 8009ddc:	6002      	str	r2, [r0, #0]
 8009dde:	6018      	str	r0, [r3, #0]
 8009de0:	4770      	bx	lr
 8009de2:	bf00      	nop
 8009de4:	200291b8 	.word	0x200291b8

08009de8 <WM__RemoveCriticalHandle>:
 8009de8:	4a09      	ldr	r2, [pc, #36]	; (8009e10 <WM__RemoveCriticalHandle+0x28>)
 8009dea:	6813      	ldr	r3, [r2, #0]
 8009dec:	b510      	push	{r4, lr}
 8009dee:	b16b      	cbz	r3, 8009e0c <WM__RemoveCriticalHandle+0x24>
 8009df0:	2100      	movs	r1, #0
 8009df2:	4298      	cmp	r0, r3
 8009df4:	d105      	bne.n	8009e02 <WM__RemoveCriticalHandle+0x1a>
 8009df6:	6803      	ldr	r3, [r0, #0]
 8009df8:	b109      	cbz	r1, 8009dfe <WM__RemoveCriticalHandle+0x16>
 8009dfa:	600b      	str	r3, [r1, #0]
 8009dfc:	bd10      	pop	{r4, pc}
 8009dfe:	6013      	str	r3, [r2, #0]
 8009e00:	bd10      	pop	{r4, pc}
 8009e02:	681c      	ldr	r4, [r3, #0]
 8009e04:	4619      	mov	r1, r3
 8009e06:	b10c      	cbz	r4, 8009e0c <WM__RemoveCriticalHandle+0x24>
 8009e08:	4623      	mov	r3, r4
 8009e0a:	e7f2      	b.n	8009df2 <WM__RemoveCriticalHandle+0xa>
 8009e0c:	bd10      	pop	{r4, pc}
 8009e0e:	bf00      	nop
 8009e10:	200291b8 	.word	0x200291b8

08009e14 <WM__GetClientRectEx>:
 8009e14:	b537      	push	{r0, r1, r2, r4, r5, lr}
 8009e16:	460d      	mov	r5, r1
 8009e18:	b158      	cbz	r0, 8009e32 <WM__GetClientRectEx+0x1e>
 8009e1a:	b151      	cbz	r1, 8009e32 <WM__GetClientRectEx+0x1e>
 8009e1c:	f7fb fb1e 	bl	800545c <GUI_ALLOC_LockH>
 8009e20:	ac02      	add	r4, sp, #8
 8009e22:	4629      	mov	r1, r5
 8009e24:	f844 0d04 	str.w	r0, [r4, #-4]!
 8009e28:	f7ff f8a8 	bl	8008f7c <WM__GetClientRectWin>
 8009e2c:	4620      	mov	r0, r4
 8009e2e:	f7fb fb23 	bl	8005478 <GUI_ALLOC_UnlockH>
 8009e32:	b003      	add	sp, #12
 8009e34:	bd30      	pop	{r4, r5, pc}

08009e36 <_Color2Index_16>:
 8009e36:	b5f0      	push	{r4, r5, r6, r7, lr}
 8009e38:	b2c4      	uxtb	r4, r0
 8009e3a:	f3c0 2507 	ubfx	r5, r0, #8, #8
 8009e3e:	f104 0e01 	add.w	lr, r4, #1
 8009e42:	f3c0 4207 	ubfx	r2, r0, #16, #8
 8009e46:	f1be 0f54 	cmp.w	lr, #84	; 0x54
 8009e4a:	f105 0701 	add.w	r7, r5, #1
 8009e4e:	bf94      	ite	ls
 8009e50:	f04f 0c00 	movls.w	ip, #0
 8009e54:	f04f 0c01 	movhi.w	ip, #1
 8009e58:	1c56      	adds	r6, r2, #1
 8009e5a:	2f54      	cmp	r7, #84	; 0x54
 8009e5c:	bf94      	ite	ls
 8009e5e:	2000      	movls	r0, #0
 8009e60:	2001      	movhi	r0, #1
 8009e62:	2e54      	cmp	r6, #84	; 0x54
 8009e64:	bf94      	ite	ls
 8009e66:	2300      	movls	r3, #0
 8009e68:	2301      	movhi	r3, #1
 8009e6a:	18c1      	adds	r1, r0, r3
 8009e6c:	00db      	lsls	r3, r3, #3
 8009e6e:	eb03 0380 	add.w	r3, r3, r0, lsl #2
 8009e72:	f1be 0f54 	cmp.w	lr, #84	; 0x54
 8009e76:	4461      	add	r1, ip
 8009e78:	eb03 004c 	add.w	r0, r3, ip, lsl #1
 8009e7c:	d803      	bhi.n	8009e86 <_Color2Index_16+0x50>
 8009e7e:	2f54      	cmp	r7, #84	; 0x54
 8009e80:	d801      	bhi.n	8009e86 <_Color2Index_16+0x50>
 8009e82:	2e54      	cmp	r6, #84	; 0x54
 8009e84:	d90a      	bls.n	8009e9c <_Color2Index_16+0x66>
 8009e86:	442a      	add	r2, r5
 8009e88:	ebc1 1381 	rsb	r3, r1, r1, lsl #6
 8009e8c:	4422      	add	r2, r4
 8009e8e:	441a      	add	r2, r3
 8009e90:	ebc1 11c1 	rsb	r1, r1, r1, lsl #7
 8009e94:	fbb2 f1f1 	udiv	r1, r2, r1
 8009e98:	eb00 0051 	add.w	r0, r0, r1, lsr #1
 8009e9c:	bdf0      	pop	{r4, r5, r6, r7, pc}

08009e9e <_Index2Color_16>:
 8009e9e:	b570      	push	{r4, r5, r6, lr}
 8009ea0:	f3c0 0680 	ubfx	r6, r0, #2, #1
 8009ea4:	ea00 0106 	and.w	r1, r0, r6
 8009ea8:	f3c0 0440 	ubfx	r4, r0, #1, #1
 8009eac:	f3c0 03c0 	ubfx	r3, r0, #3, #1
 8009eb0:	01ca      	lsls	r2, r1, #7
 8009eb2:	ea00 0504 	and.w	r5, r0, r4
 8009eb6:	1a52      	subs	r2, r2, r1
 8009eb8:	4018      	ands	r0, r3
 8009eba:	eb02 11c6 	add.w	r1, r2, r6, lsl #7
 8009ebe:	01c2      	lsls	r2, r0, #7
 8009ec0:	1a12      	subs	r2, r2, r0
 8009ec2:	eb02 13c3 	add.w	r3, r2, r3, lsl #7
 8009ec6:	01ea      	lsls	r2, r5, #7
 8009ec8:	1b50      	subs	r0, r2, r5
 8009eca:	041b      	lsls	r3, r3, #16
 8009ecc:	ea43 2301 	orr.w	r3, r3, r1, lsl #8
 8009ed0:	eb00 10c4 	add.w	r0, r0, r4, lsl #7
 8009ed4:	4318      	orrs	r0, r3
 8009ed6:	bd70      	pop	{r4, r5, r6, pc}

08009ed8 <_GetIndexMask_16>:
 8009ed8:	200f      	movs	r0, #15
 8009eda:	4770      	bx	lr

08009edc <_GetIndexMask_0>:
 8009edc:	b508      	push	{r3, lr}
 8009ede:	f7fc ffb5 	bl	8006e4c <LCD_GetNumColors>
 8009ee2:	f5b0 7f80 	cmp.w	r0, #256	; 0x100
 8009ee6:	d010      	beq.n	8009f0a <_GetIndexMask_0+0x2e>
 8009ee8:	287f      	cmp	r0, #127	; 0x7f
 8009eea:	d810      	bhi.n	8009f0e <_GetIndexMask_0+0x32>
 8009eec:	283f      	cmp	r0, #63	; 0x3f
 8009eee:	d810      	bhi.n	8009f12 <_GetIndexMask_0+0x36>
 8009ef0:	281f      	cmp	r0, #31
 8009ef2:	d810      	bhi.n	8009f16 <_GetIndexMask_0+0x3a>
 8009ef4:	280f      	cmp	r0, #15
 8009ef6:	d810      	bhi.n	8009f1a <_GetIndexMask_0+0x3e>
 8009ef8:	2807      	cmp	r0, #7
 8009efa:	d810      	bhi.n	8009f1e <_GetIndexMask_0+0x42>
 8009efc:	2803      	cmp	r0, #3
 8009efe:	d810      	bhi.n	8009f22 <_GetIndexMask_0+0x46>
 8009f00:	2801      	cmp	r0, #1
 8009f02:	bf94      	ite	ls
 8009f04:	2000      	movls	r0, #0
 8009f06:	2001      	movhi	r0, #1
 8009f08:	e00c      	b.n	8009f24 <_GetIndexMask_0+0x48>
 8009f0a:	2008      	movs	r0, #8
 8009f0c:	e00a      	b.n	8009f24 <_GetIndexMask_0+0x48>
 8009f0e:	2007      	movs	r0, #7
 8009f10:	e008      	b.n	8009f24 <_GetIndexMask_0+0x48>
 8009f12:	2006      	movs	r0, #6
 8009f14:	e006      	b.n	8009f24 <_GetIndexMask_0+0x48>
 8009f16:	2005      	movs	r0, #5
 8009f18:	e004      	b.n	8009f24 <_GetIndexMask_0+0x48>
 8009f1a:	2004      	movs	r0, #4
 8009f1c:	e002      	b.n	8009f24 <_GetIndexMask_0+0x48>
 8009f1e:	2003      	movs	r0, #3
 8009f20:	e000      	b.n	8009f24 <_GetIndexMask_0+0x48>
 8009f22:	2002      	movs	r0, #2
 8009f24:	2301      	movs	r3, #1
 8009f26:	fa03 f000 	lsl.w	r0, r3, r0
 8009f2a:	3801      	subs	r0, #1
 8009f2c:	bd08      	pop	{r3, pc}

08009f2e <_Index2Color_0>:
 8009f2e:	b538      	push	{r3, r4, r5, lr}
 8009f30:	4604      	mov	r4, r0
 8009f32:	f7fc ff8b 	bl	8006e4c <LCD_GetNumColors>
 8009f36:	4605      	mov	r5, r0
 8009f38:	f7fc ffb0 	bl	8006e9c <LCD_GetPalette>
 8009f3c:	42a5      	cmp	r5, r4
 8009f3e:	d903      	bls.n	8009f48 <_Index2Color_0+0x1a>
 8009f40:	b118      	cbz	r0, 8009f4a <_Index2Color_0+0x1c>
 8009f42:	f850 0024 	ldr.w	r0, [r0, r4, lsl #2]
 8009f46:	bd38      	pop	{r3, r4, r5, pc}
 8009f48:	2000      	movs	r0, #0
 8009f4a:	bd38      	pop	{r3, r4, r5, pc}

08009f4c <_Color2Index_0>:
 8009f4c:	e92d 43f8 	stmdb	sp!, {r3, r4, r5, r6, r7, r8, r9, lr}
 8009f50:	4681      	mov	r9, r0
 8009f52:	f7fc ff7b 	bl	8006e4c <LCD_GetNumColors>
 8009f56:	4607      	mov	r7, r0
 8009f58:	f7fc ffa0 	bl	8006e9c <LCD_GetPalette>
 8009f5c:	4606      	mov	r6, r0
 8009f5e:	b1e0      	cbz	r0, 8009f9a <_Color2Index_0+0x4e>
 8009f60:	2000      	movs	r0, #0
 8009f62:	f856 3020 	ldr.w	r3, [r6, r0, lsl #2]
 8009f66:	454b      	cmp	r3, r9
 8009f68:	d017      	beq.n	8009f9a <_Color2Index_0+0x4e>
 8009f6a:	3001      	adds	r0, #1
 8009f6c:	4287      	cmp	r7, r0
 8009f6e:	dcf8      	bgt.n	8009f62 <_Color2Index_0+0x16>
 8009f70:	2400      	movs	r4, #0
 8009f72:	f06f 487f 	mvn.w	r8, #4278190080	; 0xff000000
 8009f76:	4625      	mov	r5, r4
 8009f78:	f856 1025 	ldr.w	r1, [r6, r5, lsl #2]
 8009f7c:	4648      	mov	r0, r9
 8009f7e:	f7fb fc35 	bl	80057ec <GUI_CalcColorDist>
 8009f82:	4580      	cmp	r8, r0
 8009f84:	bf88      	it	hi
 8009f86:	462c      	movhi	r4, r5
 8009f88:	f105 0501 	add.w	r5, r5, #1
 8009f8c:	bf88      	it	hi
 8009f8e:	4680      	movhi	r8, r0
 8009f90:	42af      	cmp	r7, r5
 8009f92:	dcf1      	bgt.n	8009f78 <_Color2Index_0+0x2c>
 8009f94:	4620      	mov	r0, r4
 8009f96:	e8bd 83f8 	ldmia.w	sp!, {r3, r4, r5, r6, r7, r8, r9, pc}
 8009f9a:	e8bd 83f8 	ldmia.w	sp!, {r3, r4, r5, r6, r7, r8, r9, pc}

08009f9e <LCD_Index2Color_8888>:
 8009f9e:	4770      	bx	lr

08009fa0 <LCD_Index2Color_888>:
 8009fa0:	4770      	bx	lr
	...

08009fa4 <GUI_GetYAdjust>:
 8009fa4:	4b0a      	ldr	r3, [pc, #40]	; (8009fd0 <GUI_GetYAdjust+0x2c>)
 8009fa6:	681a      	ldr	r2, [r3, #0]
 8009fa8:	8d93      	ldrh	r3, [r2, #44]	; 0x2c
 8009faa:	f003 030c 	and.w	r3, r3, #12
 8009fae:	2b08      	cmp	r3, #8
 8009fb0:	d007      	beq.n	8009fc2 <GUI_GetYAdjust+0x1e>
 8009fb2:	2b0c      	cmp	r3, #12
 8009fb4:	d005      	beq.n	8009fc2 <GUI_GetYAdjust+0x1e>
 8009fb6:	2b04      	cmp	r3, #4
 8009fb8:	d107      	bne.n	8009fca <GUI_GetYAdjust+0x26>
 8009fba:	69d3      	ldr	r3, [r2, #28]
 8009fbc:	7e18      	ldrb	r0, [r3, #24]
 8009fbe:	3801      	subs	r0, #1
 8009fc0:	4770      	bx	lr
 8009fc2:	69d3      	ldr	r3, [r2, #28]
 8009fc4:	7e18      	ldrb	r0, [r3, #24]
 8009fc6:	0840      	lsrs	r0, r0, #1
 8009fc8:	4770      	bx	lr
 8009fca:	2000      	movs	r0, #0
 8009fcc:	4770      	bx	lr
 8009fce:	bf00      	nop
 8009fd0:	20000098 	.word	0x20000098

08009fd4 <GUI_GetFontDistY>:
 8009fd4:	4b02      	ldr	r3, [pc, #8]	; (8009fe0 <GUI_GetFontDistY+0xc>)
 8009fd6:	681b      	ldr	r3, [r3, #0]
 8009fd8:	69db      	ldr	r3, [r3, #28]
 8009fda:	7e58      	ldrb	r0, [r3, #25]
 8009fdc:	4770      	bx	lr
 8009fde:	bf00      	nop
 8009fe0:	20000098 	.word	0x20000098

08009fe4 <GUI_GetCharDistX>:
 8009fe4:	4b02      	ldr	r3, [pc, #8]	; (8009ff0 <GUI_GetCharDistX+0xc>)
 8009fe6:	681b      	ldr	r3, [r3, #0]
 8009fe8:	69db      	ldr	r3, [r3, #28]
 8009fea:	2100      	movs	r1, #0
 8009fec:	685b      	ldr	r3, [r3, #4]
 8009fee:	4718      	bx	r3
 8009ff0:	20000098 	.word	0x20000098

08009ff4 <GUI_GetCharDistXEx>:
 8009ff4:	4b02      	ldr	r3, [pc, #8]	; (800a000 <GUI_GetCharDistXEx+0xc>)
 8009ff6:	681b      	ldr	r3, [r3, #0]
 8009ff8:	69db      	ldr	r3, [r3, #28]
 8009ffa:	685b      	ldr	r3, [r3, #4]
 8009ffc:	4718      	bx	r3
 8009ffe:	bf00      	nop
 800a000:	20000098 	.word	0x20000098

0800a004 <_Log2VisBuffered>:
 800a004:	4770      	bx	lr
	...

0800a008 <_DispLine>:
 800a008:	b573      	push	{r0, r1, r4, r5, r6, lr}
 800a00a:	ab02      	add	r3, sp, #8
 800a00c:	4615      	mov	r5, r2
 800a00e:	f843 1d08 	str.w	r1, [r3, #-8]!
 800a012:	4a20      	ldr	r2, [pc, #128]	; (800a094 <_DispLine+0x8c>)
 800a014:	9001      	str	r0, [sp, #4]
 800a016:	4619      	mov	r1, r3
 800a018:	6812      	ldr	r2, [r2, #0]
 800a01a:	4c1f      	ldr	r4, [pc, #124]	; (800a098 <_DispLine+0x90>)
 800a01c:	4790      	blx	r2
 800a01e:	6823      	ldr	r3, [r4, #0]
 800a020:	9001      	str	r0, [sp, #4]
 800a022:	6958      	ldr	r0, [r3, #20]
 800a024:	b940      	cbnz	r0, 800a038 <_DispLine+0x30>
 800a026:	2001      	movs	r0, #1
 800a028:	f001 f8c8 	bl	800b1bc <GUI__ManageCache>
 800a02c:	6822      	ldr	r2, [r4, #0]
 800a02e:	69d3      	ldr	r3, [r2, #28]
 800a030:	695b      	ldr	r3, [r3, #20]
 800a032:	b93b      	cbnz	r3, 800a044 <_DispLine+0x3c>
 800a034:	4d19      	ldr	r5, [pc, #100]	; (800a09c <_DispLine+0x94>)
 800a036:	e022      	b.n	800a07e <_DispLine+0x76>
 800a038:	4629      	mov	r1, r5
 800a03a:	f7fb fcb1 	bl	80059a0 <GUI_RectsIntersect>
 800a03e:	2800      	cmp	r0, #0
 800a040:	d1f1      	bne.n	800a026 <_DispLine+0x1e>
 800a042:	e024      	b.n	800a08e <_DispLine+0x86>
 800a044:	4c16      	ldr	r4, [pc, #88]	; (800a0a0 <_DispLine+0x98>)
 800a046:	689b      	ldr	r3, [r3, #8]
 800a048:	6821      	ldr	r1, [r4, #0]
 800a04a:	b141      	cbz	r1, 800a05e <_DispLine+0x56>
 800a04c:	f9b2 5022 	ldrsh.w	r5, [r2, #34]	; 0x22
 800a050:	9801      	ldr	r0, [sp, #4]
 800a052:	9900      	ldr	r1, [sp, #0]
 800a054:	4798      	blx	r3
 800a056:	6823      	ldr	r3, [r4, #0]
 800a058:	4628      	mov	r0, r5
 800a05a:	4798      	blx	r3
 800a05c:	e014      	b.n	800a088 <_DispLine+0x80>
 800a05e:	9900      	ldr	r1, [sp, #0]
 800a060:	9801      	ldr	r0, [sp, #4]
 800a062:	4798      	blx	r3
 800a064:	e010      	b.n	800a088 <_DispLine+0x80>
 800a066:	a801      	add	r0, sp, #4
 800a068:	f7fc f822 	bl	80060b0 <GUI_UC__GetCharCodeInc>
 800a06c:	6823      	ldr	r3, [r4, #0]
 800a06e:	69db      	ldr	r3, [r3, #28]
 800a070:	681b      	ldr	r3, [r3, #0]
 800a072:	4606      	mov	r6, r0
 800a074:	4798      	blx	r3
 800a076:	682b      	ldr	r3, [r5, #0]
 800a078:	b10b      	cbz	r3, 800a07e <_DispLine+0x76>
 800a07a:	4630      	mov	r0, r6
 800a07c:	4798      	blx	r3
 800a07e:	9b00      	ldr	r3, [sp, #0]
 800a080:	3b01      	subs	r3, #1
 800a082:	2b00      	cmp	r3, #0
 800a084:	9300      	str	r3, [sp, #0]
 800a086:	daee      	bge.n	800a066 <_DispLine+0x5e>
 800a088:	2000      	movs	r0, #0
 800a08a:	f001 f897 	bl	800b1bc <GUI__ManageCache>
 800a08e:	b002      	add	sp, #8
 800a090:	bd70      	pop	{r4, r5, r6, pc}
 800a092:	bf00      	nop
 800a094:	200000b8 	.word	0x200000b8
 800a098:	20000098 	.word	0x20000098
 800a09c:	2002913c 	.word	0x2002913c
 800a0a0:	20029130 	.word	0x20029130

0800a0a4 <GUI__GetLineNumChars>:
 800a0a4:	b537      	push	{r0, r1, r2, r4, r5, lr}
 800a0a6:	460d      	mov	r5, r1
 800a0a8:	9001      	str	r0, [sp, #4]
 800a0aa:	4604      	mov	r4, r0
 800a0ac:	b188      	cbz	r0, 800a0d2 <GUI__GetLineNumChars+0x2e>
 800a0ae:	4b0a      	ldr	r3, [pc, #40]	; (800a0d8 <GUI__GetLineNumChars+0x34>)
 800a0b0:	681b      	ldr	r3, [r3, #0]
 800a0b2:	69db      	ldr	r3, [r3, #28]
 800a0b4:	695c      	ldr	r4, [r3, #20]
 800a0b6:	b154      	cbz	r4, 800a0ce <GUI__GetLineNumChars+0x2a>
 800a0b8:	6864      	ldr	r4, [r4, #4]
 800a0ba:	b144      	cbz	r4, 800a0ce <GUI__GetLineNumChars+0x2a>
 800a0bc:	47a0      	blx	r4
 800a0be:	e009      	b.n	800a0d4 <GUI__GetLineNumChars+0x30>
 800a0c0:	a801      	add	r0, sp, #4
 800a0c2:	f7fb fff5 	bl	80060b0 <GUI_UC__GetCharCodeInc>
 800a0c6:	b120      	cbz	r0, 800a0d2 <GUI__GetLineNumChars+0x2e>
 800a0c8:	280a      	cmp	r0, #10
 800a0ca:	d002      	beq.n	800a0d2 <GUI__GetLineNumChars+0x2e>
 800a0cc:	3401      	adds	r4, #1
 800a0ce:	42ac      	cmp	r4, r5
 800a0d0:	dbf6      	blt.n	800a0c0 <GUI__GetLineNumChars+0x1c>
 800a0d2:	4620      	mov	r0, r4
 800a0d4:	b003      	add	sp, #12
 800a0d6:	bd30      	pop	{r4, r5, pc}
 800a0d8:	20000098 	.word	0x20000098

0800a0dc <GUI__GetOverlap>:
 800a0dc:	b513      	push	{r0, r1, r4, lr}
 800a0de:	a902      	add	r1, sp, #8
 800a0e0:	2400      	movs	r4, #0
 800a0e2:	f841 4d04 	str.w	r4, [r1, #-4]!
 800a0e6:	f7ff ff85 	bl	8009ff4 <GUI_GetCharDistXEx>
 800a0ea:	9b01      	ldr	r3, [sp, #4]
 800a0ec:	4298      	cmp	r0, r3
 800a0ee:	bfb4      	ite	lt
 800a0f0:	1a18      	sublt	r0, r3, r0
 800a0f2:	4620      	movge	r0, r4
 800a0f4:	b002      	add	sp, #8
 800a0f6:	bd10      	pop	{r4, pc}

0800a0f8 <GUI__GetLineDistX>:
 800a0f8:	b537      	push	{r0, r1, r2, r4, r5, lr}
 800a0fa:	ab02      	add	r3, sp, #8
 800a0fc:	4a14      	ldr	r2, [pc, #80]	; (800a150 <GUI__GetLineDistX+0x58>)
 800a0fe:	f843 1d08 	str.w	r1, [r3, #-8]!
 800a102:	9001      	str	r0, [sp, #4]
 800a104:	6812      	ldr	r2, [r2, #0]
 800a106:	4619      	mov	r1, r3
 800a108:	4790      	blx	r2
 800a10a:	9001      	str	r0, [sp, #4]
 800a10c:	b1e8      	cbz	r0, 800a14a <GUI__GetLineDistX+0x52>
 800a10e:	4b11      	ldr	r3, [pc, #68]	; (800a154 <GUI__GetLineDistX+0x5c>)
 800a110:	681b      	ldr	r3, [r3, #0]
 800a112:	69db      	ldr	r3, [r3, #28]
 800a114:	695c      	ldr	r4, [r3, #20]
 800a116:	b10c      	cbz	r4, 800a11c <GUI__GetLineDistX+0x24>
 800a118:	6824      	ldr	r4, [r4, #0]
 800a11a:	b90c      	cbnz	r4, 800a120 <GUI__GetLineDistX+0x28>
 800a11c:	4625      	mov	r5, r4
 800a11e:	e002      	b.n	800a126 <GUI__GetLineDistX+0x2e>
 800a120:	9900      	ldr	r1, [sp, #0]
 800a122:	47a0      	blx	r4
 800a124:	e011      	b.n	800a14a <GUI__GetLineDistX+0x52>
 800a126:	9b00      	ldr	r3, [sp, #0]
 800a128:	3b01      	subs	r3, #1
 800a12a:	2b00      	cmp	r3, #0
 800a12c:	9300      	str	r3, [sp, #0]
 800a12e:	db07      	blt.n	800a140 <GUI__GetLineDistX+0x48>
 800a130:	a801      	add	r0, sp, #4
 800a132:	f7fb ffbd 	bl	80060b0 <GUI_UC__GetCharCodeInc>
 800a136:	4604      	mov	r4, r0
 800a138:	f7ff ff54 	bl	8009fe4 <GUI_GetCharDistX>
 800a13c:	4405      	add	r5, r0
 800a13e:	e7f2      	b.n	800a126 <GUI__GetLineDistX+0x2e>
 800a140:	4620      	mov	r0, r4
 800a142:	f7ff ffcb 	bl	800a0dc <GUI__GetOverlap>
 800a146:	4428      	add	r0, r5
 800a148:	e7ff      	b.n	800a14a <GUI__GetLineDistX+0x52>
 800a14a:	b003      	add	sp, #12
 800a14c:	bd30      	pop	{r4, r5, pc}
 800a14e:	bf00      	nop
 800a150:	200000b8 	.word	0x200000b8
 800a154:	20000098 	.word	0x20000098

0800a158 <GUI__DispLine>:
 800a158:	4b27      	ldr	r3, [pc, #156]	; (800a1f8 <GUI__DispLine+0xa0>)
 800a15a:	681b      	ldr	r3, [r3, #0]
 800a15c:	b5f7      	push	{r0, r1, r2, r4, r5, r6, r7, lr}
 800a15e:	4605      	mov	r5, r0
 800a160:	460e      	mov	r6, r1
 800a162:	b163      	cbz	r3, 800a17e <GUI__DispLine+0x26>
 800a164:	2000      	movs	r0, #0
 800a166:	f7ff f9c7 	bl	80094f8 <WM__InitIVRSearch>
 800a16a:	2800      	cmp	r0, #0
 800a16c:	d041      	beq.n	800a1f2 <GUI__DispLine+0x9a>
 800a16e:	466a      	mov	r2, sp
 800a170:	4631      	mov	r1, r6
 800a172:	4628      	mov	r0, r5
 800a174:	f7ff ff48 	bl	800a008 <_DispLine>
 800a178:	f7ff f8fc 	bl	8009374 <WM__GetNextIVR>
 800a17c:	e7f5      	b.n	800a16a <GUI__DispLine+0x12>
 800a17e:	6810      	ldr	r0, [r2, #0]
 800a180:	6851      	ldr	r1, [r2, #4]
 800a182:	4c1e      	ldr	r4, [pc, #120]	; (800a1fc <GUI__DispLine+0xa4>)
 800a184:	466b      	mov	r3, sp
 800a186:	c303      	stmia	r3!, {r0, r1}
 800a188:	6822      	ldr	r2, [r4, #0]
 800a18a:	f8bd 3000 	ldrh.w	r3, [sp]
 800a18e:	f8b2 704c 	ldrh.w	r7, [r2, #76]	; 0x4c
 800a192:	f8b2 0050 	ldrh.w	r0, [r2, #80]	; 0x50
 800a196:	f8bd 1002 	ldrh.w	r1, [sp, #2]
 800a19a:	f8bd 2004 	ldrh.w	r2, [sp, #4]
 800a19e:	443b      	add	r3, r7
 800a1a0:	f8ad 3000 	strh.w	r3, [sp]
 800a1a4:	f8bd 3006 	ldrh.w	r3, [sp, #6]
 800a1a8:	4401      	add	r1, r0
 800a1aa:	4403      	add	r3, r0
 800a1ac:	443a      	add	r2, r7
 800a1ae:	4668      	mov	r0, sp
 800a1b0:	f8ad 1002 	strh.w	r1, [sp, #2]
 800a1b4:	f8ad 2004 	strh.w	r2, [sp, #4]
 800a1b8:	f8ad 3006 	strh.w	r3, [sp, #6]
 800a1bc:	f7ff f99c 	bl	80094f8 <WM__InitIVRSearch>
 800a1c0:	6823      	ldr	r3, [r4, #0]
 800a1c2:	b940      	cbnz	r0, 800a1d6 <GUI__DispLine+0x7e>
 800a1c4:	6cd9      	ldr	r1, [r3, #76]	; 0x4c
 800a1c6:	8c5a      	ldrh	r2, [r3, #34]	; 0x22
 800a1c8:	1a52      	subs	r2, r2, r1
 800a1ca:	845a      	strh	r2, [r3, #34]	; 0x22
 800a1cc:	6d19      	ldr	r1, [r3, #80]	; 0x50
 800a1ce:	8c9a      	ldrh	r2, [r3, #36]	; 0x24
 800a1d0:	1a52      	subs	r2, r2, r1
 800a1d2:	849a      	strh	r2, [r3, #36]	; 0x24
 800a1d4:	e00d      	b.n	800a1f2 <GUI__DispLine+0x9a>
 800a1d6:	f8bd 2000 	ldrh.w	r2, [sp]
 800a1da:	845a      	strh	r2, [r3, #34]	; 0x22
 800a1dc:	f8bd 2002 	ldrh.w	r2, [sp, #2]
 800a1e0:	849a      	strh	r2, [r3, #36]	; 0x24
 800a1e2:	4631      	mov	r1, r6
 800a1e4:	466a      	mov	r2, sp
 800a1e6:	4628      	mov	r0, r5
 800a1e8:	f7ff ff0e 	bl	800a008 <_DispLine>
 800a1ec:	f7ff f8c2 	bl	8009374 <WM__GetNextIVR>
 800a1f0:	e7e6      	b.n	800a1c0 <GUI__DispLine+0x68>
 800a1f2:	b003      	add	sp, #12
 800a1f4:	bdf0      	pop	{r4, r5, r6, r7, pc}
 800a1f6:	bf00      	nop
 800a1f8:	2002911c 	.word	0x2002911c
 800a1fc:	20000098 	.word	0x20000098

0800a200 <GUIMONO_DispChar>:
 800a200:	4b4d      	ldr	r3, [pc, #308]	; (800a338 <GUIMONO_DispChar+0x138>)
 800a202:	e92d 4ff0 	stmdb	sp!, {r4, r5, r6, r7, r8, r9, sl, fp, lr}
 800a206:	681a      	ldr	r2, [r3, #0]
 800a208:	69d1      	ldr	r1, [r2, #28]
 800a20a:	69cc      	ldr	r4, [r1, #28]
 800a20c:	89a3      	ldrh	r3, [r4, #12]
 800a20e:	4283      	cmp	r3, r0
 800a210:	b08b      	sub	sp, #44	; 0x2c
 800a212:	d808      	bhi.n	800a226 <GUIMONO_DispChar+0x26>
 800a214:	89e5      	ldrh	r5, [r4, #14]
 800a216:	4285      	cmp	r5, r0
 800a218:	d305      	bcc.n	800a226 <GUIMONO_DispChar+0x26>
 800a21a:	6825      	ldr	r5, [r4, #0]
 800a21c:	9506      	str	r5, [sp, #24]
 800a21e:	1ac3      	subs	r3, r0, r3
 800a220:	f04f 36ff 	mov.w	r6, #4294967295	; 0xffffffff
 800a224:	e013      	b.n	800a24e <GUIMONO_DispChar+0x4e>
 800a226:	68a3      	ldr	r3, [r4, #8]
 800a228:	2b00      	cmp	r3, #0
 800a22a:	d07c      	beq.n	800a326 <GUIMONO_DispChar+0x126>
 800a22c:	881d      	ldrh	r5, [r3, #0]
 800a22e:	42a8      	cmp	r0, r5
 800a230:	d379      	bcc.n	800a326 <GUIMONO_DispChar+0x126>
 800a232:	885e      	ldrh	r6, [r3, #2]
 800a234:	4286      	cmp	r6, r0
 800a236:	d376      	bcc.n	800a326 <GUIMONO_DispChar+0x126>
 800a238:	685b      	ldr	r3, [r3, #4]
 800a23a:	6866      	ldr	r6, [r4, #4]
 800a23c:	9606      	str	r6, [sp, #24]
 800a23e:	1b40      	subs	r0, r0, r5
 800a240:	b280      	uxth	r0, r0
 800a242:	eb03 0580 	add.w	r5, r3, r0, lsl #2
 800a246:	f933 3020 	ldrsh.w	r3, [r3, r0, lsl #2]
 800a24a:	f9b5 6002 	ldrsh.w	r6, [r5, #2]
 800a24e:	9309      	str	r3, [sp, #36]	; 0x24
 800a250:	1c58      	adds	r0, r3, #1
 800a252:	d068      	beq.n	800a326 <GUIMONO_DispChar+0x126>
 800a254:	f891 b018 	ldrb.w	fp, [r1, #24]
 800a258:	f9b2 902a 	ldrsh.w	r9, [r2, #42]	; 0x2a
 800a25c:	7ca1      	ldrb	r1, [r4, #18]
 800a25e:	4d36      	ldr	r5, [pc, #216]	; (800a338 <GUIMONO_DispChar+0x138>)
 800a260:	f9b2 7022 	ldrsh.w	r7, [r2, #34]	; 0x22
 800a264:	f9b2 8024 	ldrsh.w	r8, [r2, #36]	; 0x24
 800a268:	f894 a010 	ldrb.w	sl, [r4, #16]
 800a26c:	fb1b f301 	smulbb	r3, fp, r1
 800a270:	4648      	mov	r0, r9
 800a272:	9307      	str	r3, [sp, #28]
 800a274:	f7fc fa8e 	bl	8006794 <LCD_SetDrawMode>
 800a278:	6829      	ldr	r1, [r5, #0]
 800a27a:	9b07      	ldr	r3, [sp, #28]
 800a27c:	69ca      	ldr	r2, [r1, #28]
 800a27e:	6b89      	ldr	r1, [r1, #56]	; 0x38
 800a280:	9105      	str	r1, [sp, #20]
 800a282:	9008      	str	r0, [sp, #32]
 800a284:	9906      	ldr	r1, [sp, #24]
 800a286:	4618      	mov	r0, r3
 800a288:	9b09      	ldr	r3, [sp, #36]	; 0x24
 800a28a:	fb00 1003 	mla	r0, r0, r3, r1
 800a28e:	9004      	str	r0, [sp, #16]
 800a290:	7ca3      	ldrb	r3, [r4, #18]
 800a292:	9303      	str	r3, [sp, #12]
 800a294:	2301      	movs	r3, #1
 800a296:	9302      	str	r3, [sp, #8]
 800a298:	7ed3      	ldrb	r3, [r2, #27]
 800a29a:	9301      	str	r3, [sp, #4]
 800a29c:	7e93      	ldrb	r3, [r2, #26]
 800a29e:	9300      	str	r3, [sp, #0]
 800a2a0:	4652      	mov	r2, sl
 800a2a2:	465b      	mov	r3, fp
 800a2a4:	4641      	mov	r1, r8
 800a2a6:	4638      	mov	r0, r7
 800a2a8:	f7fc fafe 	bl	80068a8 <LCD_DrawBitmap>
 800a2ac:	1c73      	adds	r3, r6, #1
 800a2ae:	d01a      	beq.n	800a2e6 <GUIMONO_DispChar+0xe6>
 800a2b0:	f049 0002 	orr.w	r0, r9, #2
 800a2b4:	f7fc fa6e 	bl	8006794 <LCD_SetDrawMode>
 800a2b8:	682a      	ldr	r2, [r5, #0]
 800a2ba:	9906      	ldr	r1, [sp, #24]
 800a2bc:	69d3      	ldr	r3, [r2, #28]
 800a2be:	6b92      	ldr	r2, [r2, #56]	; 0x38
 800a2c0:	9205      	str	r2, [sp, #20]
 800a2c2:	9a07      	ldr	r2, [sp, #28]
 800a2c4:	fb02 1606 	mla	r6, r2, r6, r1
 800a2c8:	9604      	str	r6, [sp, #16]
 800a2ca:	7ca2      	ldrb	r2, [r4, #18]
 800a2cc:	9203      	str	r2, [sp, #12]
 800a2ce:	2201      	movs	r2, #1
 800a2d0:	9202      	str	r2, [sp, #8]
 800a2d2:	7eda      	ldrb	r2, [r3, #27]
 800a2d4:	9201      	str	r2, [sp, #4]
 800a2d6:	7e9b      	ldrb	r3, [r3, #26]
 800a2d8:	9300      	str	r3, [sp, #0]
 800a2da:	4652      	mov	r2, sl
 800a2dc:	465b      	mov	r3, fp
 800a2de:	4641      	mov	r1, r8
 800a2e0:	4638      	mov	r0, r7
 800a2e2:	f7fc fae1 	bl	80068a8 <LCD_DrawBitmap>
 800a2e6:	682b      	ldr	r3, [r5, #0]
 800a2e8:	69db      	ldr	r3, [r3, #28]
 800a2ea:	7e5a      	ldrb	r2, [r3, #25]
 800a2ec:	7e1b      	ldrb	r3, [r3, #24]
 800a2ee:	429a      	cmp	r2, r3
 800a2f0:	d915      	bls.n	800a31e <GUIMONO_DispChar+0x11e>
 800a2f2:	f1b9 0f02 	cmp.w	r9, #2
 800a2f6:	d012      	beq.n	800a31e <GUIMONO_DispChar+0x11e>
 800a2f8:	f089 0004 	eor.w	r0, r9, #4
 800a2fc:	f7fc fa4a 	bl	8006794 <LCD_SetDrawMode>
 800a300:	4b0d      	ldr	r3, [pc, #52]	; (800a338 <GUIMONO_DispChar+0x138>)
 800a302:	681b      	ldr	r3, [r3, #0]
 800a304:	69db      	ldr	r3, [r3, #28]
 800a306:	7e18      	ldrb	r0, [r3, #24]
 800a308:	7ed9      	ldrb	r1, [r3, #27]
 800a30a:	7e9a      	ldrb	r2, [r3, #26]
 800a30c:	7e5b      	ldrb	r3, [r3, #25]
 800a30e:	fb00 8101 	mla	r1, r0, r1, r8
 800a312:	4443      	add	r3, r8
 800a314:	fb0a 7202 	mla	r2, sl, r2, r7
 800a318:	4638      	mov	r0, r7
 800a31a:	f7fc fa99 	bl	8006850 <LCD_FillRect>
 800a31e:	f89d 0020 	ldrb.w	r0, [sp, #32]
 800a322:	f7fc fa37 	bl	8006794 <LCD_SetDrawMode>
 800a326:	4b04      	ldr	r3, [pc, #16]	; (800a338 <GUIMONO_DispChar+0x138>)
 800a328:	7c61      	ldrb	r1, [r4, #17]
 800a32a:	681a      	ldr	r2, [r3, #0]
 800a32c:	8c53      	ldrh	r3, [r2, #34]	; 0x22
 800a32e:	440b      	add	r3, r1
 800a330:	8453      	strh	r3, [r2, #34]	; 0x22
 800a332:	b00b      	add	sp, #44	; 0x2c
 800a334:	e8bd 8ff0 	ldmia.w	sp!, {r4, r5, r6, r7, r8, r9, sl, fp, pc}
 800a338:	20000098 	.word	0x20000098

0800a33c <GUIMONO_GetCharDistX>:
 800a33c:	4b04      	ldr	r3, [pc, #16]	; (800a350 <GUIMONO_GetCharDistX+0x14>)
 800a33e:	681b      	ldr	r3, [r3, #0]
 800a340:	69db      	ldr	r3, [r3, #28]
 800a342:	69db      	ldr	r3, [r3, #28]
 800a344:	b109      	cbz	r1, 800a34a <GUIMONO_GetCharDistX+0xe>
 800a346:	7c1a      	ldrb	r2, [r3, #16]
 800a348:	600a      	str	r2, [r1, #0]
 800a34a:	7c58      	ldrb	r0, [r3, #17]
 800a34c:	4770      	bx	lr
 800a34e:	bf00      	nop
 800a350:	20000098 	.word	0x20000098

0800a354 <GUIMONO_GetFontInfo>:
 800a354:	2302      	movs	r3, #2
 800a356:	800b      	strh	r3, [r1, #0]
 800a358:	4770      	bx	lr

0800a35a <GUIMONO_IsInFont>:
 800a35a:	69c3      	ldr	r3, [r0, #28]
 800a35c:	899a      	ldrh	r2, [r3, #12]
 800a35e:	428a      	cmp	r2, r1
 800a360:	d802      	bhi.n	800a368 <GUIMONO_IsInFont+0xe>
 800a362:	89da      	ldrh	r2, [r3, #14]
 800a364:	428a      	cmp	r2, r1
 800a366:	d20f      	bcs.n	800a388 <GUIMONO_IsInFont+0x2e>
 800a368:	6898      	ldr	r0, [r3, #8]
 800a36a:	b180      	cbz	r0, 800a38e <GUIMONO_IsInFont+0x34>
 800a36c:	8803      	ldrh	r3, [r0, #0]
 800a36e:	4299      	cmp	r1, r3
 800a370:	d30c      	bcc.n	800a38c <GUIMONO_IsInFont+0x32>
 800a372:	8842      	ldrh	r2, [r0, #2]
 800a374:	428a      	cmp	r2, r1
 800a376:	d309      	bcc.n	800a38c <GUIMONO_IsInFont+0x32>
 800a378:	1ac9      	subs	r1, r1, r3
 800a37a:	6843      	ldr	r3, [r0, #4]
 800a37c:	f833 0021 	ldrh.w	r0, [r3, r1, lsl #2]
 800a380:	43c0      	mvns	r0, r0
 800a382:	f3c0 30c0 	ubfx	r0, r0, #15, #1
 800a386:	4770      	bx	lr
 800a388:	2001      	movs	r0, #1
 800a38a:	4770      	bx	lr
 800a38c:	2000      	movs	r0, #0
 800a38e:	4770      	bx	lr

0800a390 <GUIPROP__FindChar>:
 800a390:	b138      	cbz	r0, 800a3a2 <GUIPROP__FindChar+0x12>
 800a392:	8803      	ldrh	r3, [r0, #0]
 800a394:	428b      	cmp	r3, r1
 800a396:	d802      	bhi.n	800a39e <GUIPROP__FindChar+0xe>
 800a398:	8843      	ldrh	r3, [r0, #2]
 800a39a:	428b      	cmp	r3, r1
 800a39c:	d201      	bcs.n	800a3a2 <GUIPROP__FindChar+0x12>
 800a39e:	6880      	ldr	r0, [r0, #8]
 800a3a0:	e7f6      	b.n	800a390 <GUIPROP__FindChar>
 800a3a2:	4770      	bx	lr

0800a3a4 <GUIPROP_DispChar>:
 800a3a4:	e92d 4ff0 	stmdb	sp!, {r4, r5, r6, r7, r8, r9, sl, fp, lr}
 800a3a8:	4c38      	ldr	r4, [pc, #224]	; (800a48c <GUIPROP_DispChar+0xe8>)
 800a3aa:	6823      	ldr	r3, [r4, #0]
 800a3ac:	f9b3 802a 	ldrsh.w	r8, [r3, #42]	; 0x2a
 800a3b0:	69db      	ldr	r3, [r3, #28]
 800a3b2:	b089      	sub	sp, #36	; 0x24
 800a3b4:	4606      	mov	r6, r0
 800a3b6:	4601      	mov	r1, r0
 800a3b8:	69d8      	ldr	r0, [r3, #28]
 800a3ba:	f7ff ffe9 	bl	800a390 <GUIPROP__FindChar>
 800a3be:	2800      	cmp	r0, #0
 800a3c0:	d060      	beq.n	800a484 <GUIPROP_DispChar+0xe0>
 800a3c2:	8805      	ldrh	r5, [r0, #0]
 800a3c4:	6847      	ldr	r7, [r0, #4]
 800a3c6:	1b75      	subs	r5, r6, r5
 800a3c8:	eb07 06c5 	add.w	r6, r7, r5, lsl #3
 800a3cc:	4640      	mov	r0, r8
 800a3ce:	f896 a002 	ldrb.w	sl, [r6, #2]
 800a3d2:	f7fc f9df 	bl	8006794 <LCD_SetDrawMode>
 800a3d6:	f8d4 c000 	ldr.w	ip, [r4]
 800a3da:	f817 2035 	ldrb.w	r2, [r7, r5, lsl #3]
 800a3de:	f8dc e01c 	ldr.w	lr, [ip, #28]
 800a3e2:	f8dc 3038 	ldr.w	r3, [ip, #56]	; 0x38
 800a3e6:	f89e b018 	ldrb.w	fp, [lr, #24]
 800a3ea:	f9bc 1024 	ldrsh.w	r1, [ip, #36]	; 0x24
 800a3ee:	4681      	mov	r9, r0
 800a3f0:	f9bc 0022 	ldrsh.w	r0, [ip, #34]	; 0x22
 800a3f4:	9305      	str	r3, [sp, #20]
 800a3f6:	6873      	ldr	r3, [r6, #4]
 800a3f8:	9304      	str	r3, [sp, #16]
 800a3fa:	f04f 0c01 	mov.w	ip, #1
 800a3fe:	f8cd a00c 	str.w	sl, [sp, #12]
 800a402:	f8cd c008 	str.w	ip, [sp, #8]
 800a406:	f89e c01b 	ldrb.w	ip, [lr, #27]
 800a40a:	f8cd c004 	str.w	ip, [sp, #4]
 800a40e:	f89e e01a 	ldrb.w	lr, [lr, #26]
 800a412:	f8cd e000 	str.w	lr, [sp]
 800a416:	465b      	mov	r3, fp
 800a418:	f7fc fa46 	bl	80068a8 <LCD_DrawBitmap>
 800a41c:	6823      	ldr	r3, [r4, #0]
 800a41e:	69db      	ldr	r3, [r3, #28]
 800a420:	7e59      	ldrb	r1, [r3, #25]
 800a422:	f893 a018 	ldrb.w	sl, [r3, #24]
 800a426:	9107      	str	r1, [sp, #28]
 800a428:	4551      	cmp	r1, sl
 800a42a:	d920      	bls.n	800a46e <GUIPROP_DispChar+0xca>
 800a42c:	f1b8 0f02 	cmp.w	r8, #2
 800a430:	d01d      	beq.n	800a46e <GUIPROP_DispChar+0xca>
 800a432:	f893 b01b 	ldrb.w	fp, [r3, #27]
 800a436:	f7fb fa05 	bl	8005844 <GUI_GetColor>
 800a43a:	4680      	mov	r8, r0
 800a43c:	f7fb f9fb 	bl	8005836 <GUI_GetBkColor>
 800a440:	f7fb fad6 	bl	80059f0 <GUI_SetColor>
 800a444:	6823      	ldr	r3, [r4, #0]
 800a446:	9907      	ldr	r1, [sp, #28]
 800a448:	f9b3 e024 	ldrsh.w	lr, [r3, #36]	; 0x24
 800a44c:	f9b3 0022 	ldrsh.w	r0, [r3, #34]	; 0x22
 800a450:	69db      	ldr	r3, [r3, #28]
 800a452:	f817 5035 	ldrb.w	r5, [r7, r5, lsl #3]
 800a456:	7eda      	ldrb	r2, [r3, #27]
 800a458:	fb0b e301 	mla	r3, fp, r1, lr
 800a45c:	fb05 0202 	mla	r2, r5, r2, r0
 800a460:	fb0b e10a 	mla	r1, fp, sl, lr
 800a464:	f7fc f9f4 	bl	8006850 <LCD_FillRect>
 800a468:	4640      	mov	r0, r8
 800a46a:	f7fb fac1 	bl	80059f0 <GUI_SetColor>
 800a46e:	4648      	mov	r0, r9
 800a470:	f7fc f990 	bl	8006794 <LCD_SetDrawMode>
 800a474:	6823      	ldr	r3, [r4, #0]
 800a476:	7871      	ldrb	r1, [r6, #1]
 800a478:	69da      	ldr	r2, [r3, #28]
 800a47a:	7e90      	ldrb	r0, [r2, #26]
 800a47c:	8c5a      	ldrh	r2, [r3, #34]	; 0x22
 800a47e:	fb00 2201 	mla	r2, r0, r1, r2
 800a482:	845a      	strh	r2, [r3, #34]	; 0x22
 800a484:	b009      	add	sp, #36	; 0x24
 800a486:	e8bd 8ff0 	ldmia.w	sp!, {r4, r5, r6, r7, r8, r9, sl, fp, pc}
 800a48a:	bf00      	nop
 800a48c:	20000098 	.word	0x20000098

0800a490 <GUIPROP_GetCharDistX>:
 800a490:	b538      	push	{r3, r4, r5, lr}
 800a492:	4b0d      	ldr	r3, [pc, #52]	; (800a4c8 <GUIPROP_GetCharDistX+0x38>)
 800a494:	681b      	ldr	r3, [r3, #0]
 800a496:	69dd      	ldr	r5, [r3, #28]
 800a498:	4602      	mov	r2, r0
 800a49a:	460c      	mov	r4, r1
 800a49c:	4601      	mov	r1, r0
 800a49e:	69e8      	ldr	r0, [r5, #28]
 800a4a0:	f7ff ff76 	bl	800a390 <GUIPROP__FindChar>
 800a4a4:	b170      	cbz	r0, 800a4c4 <GUIPROP_GetCharDistX+0x34>
 800a4a6:	8803      	ldrh	r3, [r0, #0]
 800a4a8:	1ad2      	subs	r2, r2, r3
 800a4aa:	6843      	ldr	r3, [r0, #4]
 800a4ac:	eb03 01c2 	add.w	r1, r3, r2, lsl #3
 800a4b0:	7848      	ldrb	r0, [r1, #1]
 800a4b2:	7ea9      	ldrb	r1, [r5, #26]
 800a4b4:	fb10 f001 	smulbb	r0, r0, r1
 800a4b8:	b124      	cbz	r4, 800a4c4 <GUIPROP_GetCharDistX+0x34>
 800a4ba:	f813 3032 	ldrb.w	r3, [r3, r2, lsl #3]
 800a4be:	fb11 f303 	smulbb	r3, r1, r3
 800a4c2:	6023      	str	r3, [r4, #0]
 800a4c4:	bd38      	pop	{r3, r4, r5, pc}
 800a4c6:	bf00      	nop
 800a4c8:	20000098 	.word	0x20000098

0800a4cc <GUIPROP_GetFontInfo>:
 800a4cc:	2301      	movs	r3, #1
 800a4ce:	800b      	strh	r3, [r1, #0]
 800a4d0:	4770      	bx	lr

0800a4d2 <GUIPROP_IsInFont>:
 800a4d2:	b508      	push	{r3, lr}
 800a4d4:	69c0      	ldr	r0, [r0, #28]
 800a4d6:	f7ff ff5b 	bl	800a390 <GUIPROP__FindChar>
 800a4da:	3000      	adds	r0, #0
 800a4dc:	bf18      	it	ne
 800a4de:	2001      	movne	r0, #1
 800a4e0:	bd08      	pop	{r3, pc}
	...

0800a4e4 <GUI_CURSOR_SetPositionEx>:
 800a4e4:	b5f8      	push	{r3, r4, r5, r6, r7, lr}
 800a4e6:	4606      	mov	r6, r0
 800a4e8:	4610      	mov	r0, r2
 800a4ea:	460d      	mov	r5, r1
 800a4ec:	4614      	mov	r4, r2
 800a4ee:	f7fb fd8b 	bl	8006008 <GUI_GetCursorLayer>
 800a4f2:	4f14      	ldr	r7, [pc, #80]	; (800a544 <GUI_CURSOR_SetPositionEx+0x60>)
 800a4f4:	2314      	movs	r3, #20
 800a4f6:	b150      	cbz	r0, 800a50e <GUI_CURSOR_SetPositionEx+0x2a>
 800a4f8:	fb03 7404 	mla	r4, r3, r4, r7
 800a4fc:	6863      	ldr	r3, [r4, #4]
 800a4fe:	689a      	ldr	r2, [r3, #8]
 800a500:	6859      	ldr	r1, [r3, #4]
 800a502:	1aaa      	subs	r2, r5, r2
 800a504:	1a71      	subs	r1, r6, r1
 800a506:	e8bd 40f8 	ldmia.w	sp!, {r3, r4, r5, r6, r7, lr}
 800a50a:	f7fb bda7 	b.w	800605c <GUI_SetLayerPosEx>
 800a50e:	fb03 7304 	mla	r3, r3, r4, r7
 800a512:	68da      	ldr	r2, [r3, #12]
 800a514:	42b2      	cmp	r2, r6
 800a516:	d102      	bne.n	800a51e <GUI_CURSOR_SetPositionEx+0x3a>
 800a518:	691b      	ldr	r3, [r3, #16]
 800a51a:	42ab      	cmp	r3, r5
 800a51c:	d010      	beq.n	800a540 <GUI_CURSOR_SetPositionEx+0x5c>
 800a51e:	2314      	movs	r3, #20
 800a520:	fb03 7304 	mla	r3, r3, r4, r7
 800a524:	6958      	ldr	r0, [r3, #20]
 800a526:	b130      	cbz	r0, 800a536 <GUI_CURSOR_SetPositionEx+0x52>
 800a528:	685b      	ldr	r3, [r3, #4]
 800a52a:	689a      	ldr	r2, [r3, #8]
 800a52c:	6859      	ldr	r1, [r3, #4]
 800a52e:	1aaa      	subs	r2, r5, r2
 800a530:	1a71      	subs	r1, r6, r1
 800a532:	f000 f9f7 	bl	800a924 <GUI_SPRITE_SetPosition>
 800a536:	2314      	movs	r3, #20
 800a538:	fb03 7404 	mla	r4, r3, r4, r7
 800a53c:	60e6      	str	r6, [r4, #12]
 800a53e:	6125      	str	r5, [r4, #16]
 800a540:	bdf8      	pop	{r3, r4, r5, r6, r7, pc}
 800a542:	bf00      	nop
 800a544:	20028f7c 	.word	0x20028f7c

0800a548 <_OnExit>:
 800a548:	4a03      	ldr	r2, [pc, #12]	; (800a558 <_OnExit+0x10>)
 800a54a:	4b04      	ldr	r3, [pc, #16]	; (800a55c <_OnExit+0x14>)
 800a54c:	6013      	str	r3, [r2, #0]
 800a54e:	6053      	str	r3, [r2, #4]
 800a550:	2200      	movs	r2, #0
 800a552:	649a      	str	r2, [r3, #72]	; 0x48
 800a554:	64da      	str	r2, [r3, #76]	; 0x4c
 800a556:	4770      	bx	lr
 800a558:	200000bc 	.word	0x200000bc
 800a55c:	20028fc8 	.word	0x20028fc8

0800a560 <GUI_PID_GetState>:
 800a560:	4a11      	ldr	r2, [pc, #68]	; (800a5a8 <GUI_PID_GetState+0x48>)
 800a562:	6813      	ldr	r3, [r2, #0]
 800a564:	6851      	ldr	r1, [r2, #4]
 800a566:	428b      	cmp	r3, r1
 800a568:	b570      	push	{r4, r5, r6, lr}
 800a56a:	4604      	mov	r4, r0
 800a56c:	4616      	mov	r6, r2
 800a56e:	4d0f      	ldr	r5, [pc, #60]	; (800a5ac <GUI_PID_GetState+0x4c>)
 800a570:	d109      	bne.n	800a586 <GUI_PID_GetState+0x26>
 800a572:	42ab      	cmp	r3, r5
 800a574:	bf06      	itte	eq
 800a576:	333c      	addeq	r3, #60	; 0x3c
 800a578:	e893 0007 	ldmiaeq.w	r3, {r0, r1, r2}
 800a57c:	e913 0007 	ldmdbne	r3, {r0, r1, r2}
 800a580:	e884 0007 	stmia.w	r4, {r0, r1, r2}
 800a584:	e00a      	b.n	800a59c <GUI_PID_GetState+0x3c>
 800a586:	e893 0007 	ldmia.w	r3, {r0, r1, r2}
 800a58a:	e884 0007 	stmia.w	r4, {r0, r1, r2}
 800a58e:	f105 023c 	add.w	r2, r5, #60	; 0x3c
 800a592:	4293      	cmp	r3, r2
 800a594:	bf18      	it	ne
 800a596:	f103 050c 	addne.w	r5, r3, #12
 800a59a:	6035      	str	r5, [r6, #0]
 800a59c:	7a20      	ldrb	r0, [r4, #8]
 800a59e:	3000      	adds	r0, #0
 800a5a0:	bf18      	it	ne
 800a5a2:	2001      	movne	r0, #1
 800a5a4:	bd70      	pop	{r4, r5, r6, pc}
 800a5a6:	bf00      	nop
 800a5a8:	200000bc 	.word	0x200000bc
 800a5ac:	20028fc8 	.word	0x20028fc8

0800a5b0 <GUI_PID_StoreState>:
 800a5b0:	b5f0      	push	{r4, r5, r6, r7, lr}
 800a5b2:	4c27      	ldr	r4, [pc, #156]	; (800a650 <GUI_PID_StoreState+0xa0>)
 800a5b4:	6d23      	ldr	r3, [r4, #80]	; 0x50
 800a5b6:	b085      	sub	sp, #20
 800a5b8:	4606      	mov	r6, r0
 800a5ba:	b92b      	cbnz	r3, 800a5c8 <GUI_PID_StoreState+0x18>
 800a5bc:	4620      	mov	r0, r4
 800a5be:	4b25      	ldr	r3, [pc, #148]	; (800a654 <GUI_PID_StoreState+0xa4>)
 800a5c0:	f840 3f50 	str.w	r3, [r0, #80]!
 800a5c4:	f7fb fbb6 	bl	8005d34 <GUI__RegisterExit>
 800a5c8:	4b23      	ldr	r3, [pc, #140]	; (800a658 <GUI_PID_StoreState+0xa8>)
 800a5ca:	4a24      	ldr	r2, [pc, #144]	; (800a65c <GUI_PID_StoreState+0xac>)
 800a5cc:	601a      	str	r2, [r3, #0]
 800a5ce:	e896 0007 	ldmia.w	r6, {r0, r1, r2}
 800a5d2:	6ce3      	ldr	r3, [r4, #76]	; 0x4c
 800a5d4:	ad01      	add	r5, sp, #4
 800a5d6:	e885 0007 	stmia.w	r5, {r0, r1, r2}
 800a5da:	b10b      	cbz	r3, 800a5e0 <GUI_PID_StoreState+0x30>
 800a5dc:	4628      	mov	r0, r5
 800a5de:	4798      	blx	r3
 800a5e0:	4e1f      	ldr	r6, [pc, #124]	; (800a660 <GUI_PID_StoreState+0xb0>)
 800a5e2:	f8df e080 	ldr.w	lr, [pc, #128]	; 800a664 <GUI_PID_StoreState+0xb4>
 800a5e6:	6837      	ldr	r7, [r6, #0]
 800a5e8:	6873      	ldr	r3, [r6, #4]
 800a5ea:	429f      	cmp	r7, r3
 800a5ec:	d017      	beq.n	800a61e <GUI_PID_StoreState+0x6e>
 800a5ee:	42a3      	cmp	r3, r4
 800a5f0:	bf14      	ite	ne
 800a5f2:	f1a3 020c 	subne.w	r2, r3, #12
 800a5f6:	4672      	moveq	r2, lr
 800a5f8:	f89d 100c 	ldrb.w	r1, [sp, #12]
 800a5fc:	7a10      	ldrb	r0, [r2, #8]
 800a5fe:	4288      	cmp	r0, r1
 800a600:	d10d      	bne.n	800a61e <GUI_PID_StoreState+0x6e>
 800a602:	4297      	cmp	r7, r2
 800a604:	d00b      	beq.n	800a61e <GUI_PID_StoreState+0x6e>
 800a606:	42a2      	cmp	r2, r4
 800a608:	bf14      	ite	ne
 800a60a:	3a0c      	subne	r2, #12
 800a60c:	4a15      	ldreq	r2, [pc, #84]	; (800a664 <GUI_PID_StoreState+0xb4>)
 800a60e:	7a12      	ldrb	r2, [r2, #8]
 800a610:	428a      	cmp	r2, r1
 800a612:	d104      	bne.n	800a61e <GUI_PID_StoreState+0x6e>
 800a614:	42a3      	cmp	r3, r4
 800a616:	bf14      	ite	ne
 800a618:	3b0c      	subne	r3, #12
 800a61a:	4b12      	ldreq	r3, [pc, #72]	; (800a664 <GUI_PID_StoreState+0xb4>)
 800a61c:	6073      	str	r3, [r6, #4]
 800a61e:	e895 0007 	ldmia.w	r5, {r0, r1, r2}
 800a622:	6873      	ldr	r3, [r6, #4]
 800a624:	4573      	cmp	r3, lr
 800a626:	e883 0007 	stmia.w	r3, {r0, r1, r2}
 800a62a:	bf0c      	ite	eq
 800a62c:	4b08      	ldreq	r3, [pc, #32]	; (800a650 <GUI_PID_StoreState+0xa0>)
 800a62e:	330c      	addne	r3, #12
 800a630:	429f      	cmp	r7, r3
 800a632:	6073      	str	r3, [r6, #4]
 800a634:	d104      	bne.n	800a640 <GUI_PID_StoreState+0x90>
 800a636:	4577      	cmp	r7, lr
 800a638:	bf14      	ite	ne
 800a63a:	370c      	addne	r7, #12
 800a63c:	4f04      	ldreq	r7, [pc, #16]	; (800a650 <GUI_PID_StoreState+0xa0>)
 800a63e:	6037      	str	r7, [r6, #0]
 800a640:	6ca3      	ldr	r3, [r4, #72]	; 0x48
 800a642:	b10b      	cbz	r3, 800a648 <GUI_PID_StoreState+0x98>
 800a644:	4628      	mov	r0, r5
 800a646:	4798      	blx	r3
 800a648:	f7fb fd62 	bl	8006110 <GUI_SignalEvent>
 800a64c:	b005      	add	sp, #20
 800a64e:	bdf0      	pop	{r4, r5, r6, r7, pc}
 800a650:	20028fc8 	.word	0x20028fc8
 800a654:	0800a549 	.word	0x0800a549
 800a658:	2002916c 	.word	0x2002916c
 800a65c:	0800999d 	.word	0x0800999d
 800a660:	200000bc 	.word	0x200000bc
 800a664:	20029004 	.word	0x20029004

0800a668 <GUI_PID_IsEmpty>:
 800a668:	4b02      	ldr	r3, [pc, #8]	; (800a674 <GUI_PID_IsEmpty+0xc>)
 800a66a:	cb09      	ldmia	r3, {r0, r3}
 800a66c:	1ac3      	subs	r3, r0, r3
 800a66e:	4258      	negs	r0, r3
 800a670:	4158      	adcs	r0, r3
 800a672:	4770      	bx	lr
 800a674:	200000bc 	.word	0x200000bc

0800a678 <_CreateBuffer>:
 800a678:	b5f8      	push	{r3, r4, r5, r6, r7, lr}
 800a67a:	6943      	ldr	r3, [r0, #20]
 800a67c:	4605      	mov	r5, r0
 800a67e:	8818      	ldrh	r0, [r3, #0]
 800a680:	300d      	adds	r0, #13
 800a682:	0080      	lsls	r0, r0, #2
 800a684:	460e      	mov	r6, r1
 800a686:	f7fb f895 	bl	80057b4 <GUI_ALLOC_AllocNoInit>
 800a68a:	4607      	mov	r7, r0
 800a68c:	b908      	cbnz	r0, 800a692 <_CreateBuffer+0x1a>
 800a68e:	2000      	movs	r0, #0
 800a690:	bdf8      	pop	{r3, r4, r5, r6, r7, pc}
 800a692:	f7fa fee3 	bl	800545c <GUI_ALLOC_LockH>
 800a696:	682b      	ldr	r3, [r5, #0]
 800a698:	4604      	mov	r4, r0
 800a69a:	6998      	ldr	r0, [r3, #24]
 800a69c:	f7fb fb5e 	bl	8005d5c <GUI_DEVICE__GetpDriver>
 800a6a0:	2800      	cmp	r0, #0
 800a6a2:	d0f4      	beq.n	800a68e <_CreateBuffer+0x16>
 800a6a4:	68c3      	ldr	r3, [r0, #12]
 800a6a6:	2108      	movs	r1, #8
 800a6a8:	6a9b      	ldr	r3, [r3, #40]	; 0x28
 800a6aa:	4798      	blx	r3
 800a6ac:	2802      	cmp	r0, #2
 800a6ae:	dd0b      	ble.n	800a6c8 <_CreateBuffer+0x50>
 800a6b0:	2804      	cmp	r0, #4
 800a6b2:	dd06      	ble.n	800a6c2 <_CreateBuffer+0x4a>
 800a6b4:	2808      	cmp	r0, #8
 800a6b6:	dd06      	ble.n	800a6c6 <_CreateBuffer+0x4e>
 800a6b8:	2810      	cmp	r0, #16
 800a6ba:	bfcc      	ite	gt
 800a6bc:	2020      	movgt	r0, #32
 800a6be:	2010      	movle	r0, #16
 800a6c0:	e002      	b.n	800a6c8 <_CreateBuffer+0x50>
 800a6c2:	2004      	movs	r0, #4
 800a6c4:	e000      	b.n	800a6c8 <_CreateBuffer+0x50>
 800a6c6:	2008      	movs	r0, #8
 800a6c8:	2808      	cmp	r0, #8
 800a6ca:	61a0      	str	r0, [r4, #24]
 800a6cc:	dd04      	ble.n	800a6d8 <_CreateBuffer+0x60>
 800a6ce:	2811      	cmp	r0, #17
 800a6d0:	bfb4      	ite	lt
 800a6d2:	2202      	movlt	r2, #2
 800a6d4:	2204      	movge	r2, #4
 800a6d6:	e000      	b.n	800a6da <_CreateBuffer+0x62>
 800a6d8:	2201      	movs	r2, #1
 800a6da:	696b      	ldr	r3, [r5, #20]
 800a6dc:	6122      	str	r2, [r4, #16]
 800a6de:	881b      	ldrh	r3, [r3, #0]
 800a6e0:	61e3      	str	r3, [r4, #28]
 800a6e2:	4353      	muls	r3, r2
 800a6e4:	6163      	str	r3, [r4, #20]
 800a6e6:	f7fa ffcf 	bl	8005688 <GUI_ALLOC_GetMaxSize>
 800a6ea:	6963      	ldr	r3, [r4, #20]
 800a6ec:	f884 6030 	strb.w	r6, [r4, #48]	; 0x30
 800a6f0:	4298      	cmp	r0, r3
 800a6f2:	f04f 0200 	mov.w	r2, #0
 800a6f6:	bfb8      	it	lt
 800a6f8:	6160      	strlt	r0, [r4, #20]
 800a6fa:	2e01      	cmp	r6, #1
 800a6fc:	60e2      	str	r2, [r4, #12]
 800a6fe:	bf18      	it	ne
 800a700:	69e2      	ldrne	r2, [r4, #28]
 800a702:	60a7      	str	r7, [r4, #8]
 800a704:	bf18      	it	ne
 800a706:	f102 4280 	addne.w	r2, r2, #1073741824	; 0x40000000
 800a70a:	f104 0334 	add.w	r3, r4, #52	; 0x34
 800a70e:	bf18      	it	ne
 800a710:	f102 32ff 	addne.w	r2, r2, #4294967295	; 0xffffffff
 800a714:	6023      	str	r3, [r4, #0]
 800a716:	bf18      	it	ne
 800a718:	eb03 0382 	addne.w	r3, r3, r2, lsl #2
 800a71c:	6063      	str	r3, [r4, #4]
 800a71e:	4620      	mov	r0, r4
 800a720:	bdf8      	pop	{r3, r4, r5, r6, r7, pc}

0800a722 <_GetBkIndex.isra.0>:
 800a722:	e92d 47f0 	stmdb	sp!, {r4, r5, r6, r7, r8, r9, sl, lr}
 800a726:	f9b3 6004 	ldrsh.w	r6, [r3, #4]
 800a72a:	4286      	cmp	r6, r0
 800a72c:	4607      	mov	r7, r0
 800a72e:	4688      	mov	r8, r1
 800a730:	4691      	mov	r9, r2
 800a732:	461c      	mov	r4, r3
 800a734:	dd04      	ble.n	800a740 <_GetBkIndex.isra.0+0x1e>
 800a736:	f8d9 0000 	ldr.w	r0, [r9]
 800a73a:	bb18      	cbnz	r0, 800a784 <_GetBkIndex.isra.0+0x62>
 800a73c:	e8bd 87f0 	ldmia.w	sp!, {r4, r5, r6, r7, r8, r9, sl, pc}
 800a740:	f9b3 3008 	ldrsh.w	r3, [r3, #8]
 800a744:	4298      	cmp	r0, r3
 800a746:	dcf6      	bgt.n	800a736 <_GetBkIndex.isra.0+0x14>
 800a748:	f9b4 5006 	ldrsh.w	r5, [r4, #6]
 800a74c:	428d      	cmp	r5, r1
 800a74e:	dcf2      	bgt.n	800a736 <_GetBkIndex.isra.0+0x14>
 800a750:	f9b4 300a 	ldrsh.w	r3, [r4, #10]
 800a754:	4299      	cmp	r1, r3
 800a756:	dcee      	bgt.n	800a736 <_GetBkIndex.isra.0+0x14>
 800a758:	1b86      	subs	r6, r0, r6
 800a75a:	1b4d      	subs	r5, r1, r5
 800a75c:	462a      	mov	r2, r5
 800a75e:	4631      	mov	r1, r6
 800a760:	6960      	ldr	r0, [r4, #20]
 800a762:	f7fb f908 	bl	8005976 <GUI_GetBitmapPixelIndex>
 800a766:	2800      	cmp	r0, #0
 800a768:	d0e5      	beq.n	800a736 <_GetBkIndex.isra.0+0x14>
 800a76a:	f9b4 3008 	ldrsh.w	r3, [r4, #8]
 800a76e:	f9b4 2004 	ldrsh.w	r2, [r4, #4]
 800a772:	1a9b      	subs	r3, r3, r2
 800a774:	fb03 5505 	mla	r5, r3, r5, r5
 800a778:	4435      	add	r5, r6
 800a77a:	eb04 0485 	add.w	r4, r4, r5, lsl #2
 800a77e:	6a20      	ldr	r0, [r4, #32]
 800a780:	e8bd 87f0 	ldmia.w	sp!, {r4, r5, r6, r7, r8, r9, sl, pc}
 800a784:	68c3      	ldr	r3, [r0, #12]
 800a786:	4642      	mov	r2, r8
 800a788:	4639      	mov	r1, r7
 800a78a:	695b      	ldr	r3, [r3, #20]
 800a78c:	e8bd 47f0 	ldmia.w	sp!, {r4, r5, r6, r7, r8, r9, sl, lr}
 800a790:	4718      	bx	r3

0800a792 <_GetBkIndexAlpha.isra.2>:
 800a792:	e92d 47f0 	stmdb	sp!, {r4, r5, r6, r7, r8, r9, sl, lr}
 800a796:	f9b3 5004 	ldrsh.w	r5, [r3, #4]
 800a79a:	4285      	cmp	r5, r0
 800a79c:	4607      	mov	r7, r0
 800a79e:	4688      	mov	r8, r1
 800a7a0:	4691      	mov	r9, r2
 800a7a2:	461e      	mov	r6, r3
 800a7a4:	dc14      	bgt.n	800a7d0 <_GetBkIndexAlpha.isra.2+0x3e>
 800a7a6:	f9b3 3008 	ldrsh.w	r3, [r3, #8]
 800a7aa:	4298      	cmp	r0, r3
 800a7ac:	dc10      	bgt.n	800a7d0 <_GetBkIndexAlpha.isra.2+0x3e>
 800a7ae:	f9b6 4006 	ldrsh.w	r4, [r6, #6]
 800a7b2:	428c      	cmp	r4, r1
 800a7b4:	dc0c      	bgt.n	800a7d0 <_GetBkIndexAlpha.isra.2+0x3e>
 800a7b6:	f9b6 300a 	ldrsh.w	r3, [r6, #10]
 800a7ba:	4299      	cmp	r1, r3
 800a7bc:	dc08      	bgt.n	800a7d0 <_GetBkIndexAlpha.isra.2+0x3e>
 800a7be:	1b45      	subs	r5, r0, r5
 800a7c0:	6970      	ldr	r0, [r6, #20]
 800a7c2:	1b0c      	subs	r4, r1, r4
 800a7c4:	b130      	cbz	r0, 800a7d4 <_GetBkIndexAlpha.isra.2+0x42>
 800a7c6:	4622      	mov	r2, r4
 800a7c8:	4629      	mov	r1, r5
 800a7ca:	f7fb f8d4 	bl	8005976 <GUI_GetBitmapPixelIndex>
 800a7ce:	e003      	b.n	800a7d8 <_GetBkIndexAlpha.isra.2+0x46>
 800a7d0:	2400      	movs	r4, #0
 800a7d2:	4625      	mov	r5, r4
 800a7d4:	f04f 407f 	mov.w	r0, #4278190080	; 0xff000000
 800a7d8:	0e00      	lsrs	r0, r0, #24
 800a7da:	28ff      	cmp	r0, #255	; 0xff
 800a7dc:	d109      	bne.n	800a7f2 <_GetBkIndexAlpha.isra.2+0x60>
 800a7de:	f8d9 0000 	ldr.w	r0, [r9]
 800a7e2:	b188      	cbz	r0, 800a808 <_GetBkIndexAlpha.isra.2+0x76>
 800a7e4:	68c3      	ldr	r3, [r0, #12]
 800a7e6:	4642      	mov	r2, r8
 800a7e8:	4639      	mov	r1, r7
 800a7ea:	695b      	ldr	r3, [r3, #20]
 800a7ec:	e8bd 47f0 	ldmia.w	sp!, {r4, r5, r6, r7, r8, r9, sl, lr}
 800a7f0:	4718      	bx	r3
 800a7f2:	f9b6 3008 	ldrsh.w	r3, [r6, #8]
 800a7f6:	f9b6 2004 	ldrsh.w	r2, [r6, #4]
 800a7fa:	1a9b      	subs	r3, r3, r2
 800a7fc:	fb03 4404 	mla	r4, r3, r4, r4
 800a800:	442c      	add	r4, r5
 800a802:	eb06 0484 	add.w	r4, r6, r4, lsl #2
 800a806:	6a20      	ldr	r0, [r4, #32]
 800a808:	e8bd 87f0 	ldmia.w	sp!, {r4, r5, r6, r7, r8, r9, sl, pc}

0800a80c <_GetDeviceRect>:
 800a80c:	b570      	push	{r4, r5, r6, lr}
 800a80e:	6983      	ldr	r3, [r0, #24]
 800a810:	4a0c      	ldr	r2, [pc, #48]	; (800a844 <_GetDeviceRect+0x38>)
 800a812:	56d2      	ldrsb	r2, [r2, r3]
 800a814:	2a01      	cmp	r2, #1
 800a816:	4605      	mov	r5, r0
 800a818:	460c      	mov	r4, r1
 800a81a:	dd0d      	ble.n	800a838 <_GetDeviceRect+0x2c>
 800a81c:	2200      	movs	r2, #0
 800a81e:	804a      	strh	r2, [r1, #2]
 800a820:	800a      	strh	r2, [r1, #0]
 800a822:	4618      	mov	r0, r3
 800a824:	f7fc faec 	bl	8006e00 <LCD_GetXSizeEx>
 800a828:	3801      	subs	r0, #1
 800a82a:	80a0      	strh	r0, [r4, #4]
 800a82c:	69a8      	ldr	r0, [r5, #24]
 800a82e:	f7fc faea 	bl	8006e06 <LCD_GetYSizeEx>
 800a832:	3801      	subs	r0, #1
 800a834:	80e0      	strh	r0, [r4, #6]
 800a836:	bd70      	pop	{r4, r5, r6, pc}
 800a838:	68c3      	ldr	r3, [r0, #12]
 800a83a:	e8bd 4070 	ldmia.w	sp!, {r4, r5, r6, lr}
 800a83e:	6b1b      	ldr	r3, [r3, #48]	; 0x30
 800a840:	4718      	bx	r3
 800a842:	bf00      	nop
 800a844:	20029110 	.word	0x20029110

0800a848 <_FlushBuffer.isra.5>:
 800a848:	e92d 41f0 	stmdb	sp!, {r4, r5, r6, r7, r8, lr}
 800a84c:	460c      	mov	r4, r1
 800a84e:	68c9      	ldr	r1, [r1, #12]
 800a850:	b086      	sub	sp, #24
 800a852:	2900      	cmp	r1, #0
 800a854:	d031      	beq.n	800a8ba <_FlushBuffer.isra.5+0x72>
 800a856:	f994 3030 	ldrsb.w	r3, [r4, #48]	; 0x30
 800a85a:	6822      	ldr	r2, [r4, #0]
 800a85c:	2b01      	cmp	r3, #1
 800a85e:	d104      	bne.n	800a86a <_FlushBuffer.isra.5+0x22>
 800a860:	4616      	mov	r6, r2
 800a862:	6062      	str	r2, [r4, #4]
 800a864:	f8d4 8028 	ldr.w	r8, [r4, #40]	; 0x28
 800a868:	e00a      	b.n	800a880 <_FlushBuffer.isra.5+0x38>
 800a86a:	69e3      	ldr	r3, [r4, #28]
 800a86c:	6866      	ldr	r6, [r4, #4]
 800a86e:	f8d4 8020 	ldr.w	r8, [r4, #32]
 800a872:	f103 4380 	add.w	r3, r3, #1073741824	; 0x40000000
 800a876:	3b01      	subs	r3, #1
 800a878:	eb02 0383 	add.w	r3, r2, r3, lsl #2
 800a87c:	3604      	adds	r6, #4
 800a87e:	6063      	str	r3, [r4, #4]
 800a880:	6807      	ldr	r7, [r0, #0]
 800a882:	b1af      	cbz	r7, 800a8b0 <_FlushBuffer.isra.5+0x68>
 800a884:	69a2      	ldr	r2, [r4, #24]
 800a886:	4630      	mov	r0, r6
 800a888:	f000 faa8 	bl	800addc <GUI__CompactPixelIndices>
 800a88c:	6962      	ldr	r2, [r4, #20]
 800a88e:	68fb      	ldr	r3, [r7, #12]
 800a890:	9202      	str	r2, [sp, #8]
 800a892:	69a2      	ldr	r2, [r4, #24]
 800a894:	9201      	str	r2, [sp, #4]
 800a896:	2500      	movs	r5, #0
 800a898:	2201      	movs	r2, #1
 800a89a:	9200      	str	r2, [sp, #0]
 800a89c:	9505      	str	r5, [sp, #20]
 800a89e:	9504      	str	r5, [sp, #16]
 800a8a0:	9603      	str	r6, [sp, #12]
 800a8a2:	685e      	ldr	r6, [r3, #4]
 800a8a4:	6ae2      	ldr	r2, [r4, #44]	; 0x2c
 800a8a6:	68e3      	ldr	r3, [r4, #12]
 800a8a8:	4641      	mov	r1, r8
 800a8aa:	4638      	mov	r0, r7
 800a8ac:	47b0      	blx	r6
 800a8ae:	e000      	b.n	800a8b2 <_FlushBuffer.isra.5+0x6a>
 800a8b0:	2501      	movs	r5, #1
 800a8b2:	2300      	movs	r3, #0
 800a8b4:	60e3      	str	r3, [r4, #12]
 800a8b6:	b2e8      	uxtb	r0, r5
 800a8b8:	e000      	b.n	800a8bc <_FlushBuffer.isra.5+0x74>
 800a8ba:	4608      	mov	r0, r1
 800a8bc:	b006      	add	sp, #24
 800a8be:	e8bd 81f0 	ldmia.w	sp!, {r4, r5, r6, r7, r8, pc}

0800a8c2 <_SetBkIndexBuffered>:
 800a8c2:	b5f8      	push	{r3, r4, r5, r6, r7, lr}
 800a8c4:	9c06      	ldr	r4, [sp, #24]
 800a8c6:	4617      	mov	r7, r2
 800a8c8:	6a62      	ldr	r2, [r4, #36]	; 0x24
 800a8ca:	428a      	cmp	r2, r1
 800a8cc:	4606      	mov	r6, r0
 800a8ce:	460d      	mov	r5, r1
 800a8d0:	d105      	bne.n	800a8de <_SetBkIndexBuffered+0x1c>
 800a8d2:	f994 2030 	ldrsb.w	r2, [r4, #48]	; 0x30
 800a8d6:	6a21      	ldr	r1, [r4, #32]
 800a8d8:	4411      	add	r1, r2
 800a8da:	4281      	cmp	r1, r0
 800a8dc:	d003      	beq.n	800a8e6 <_SetBkIndexBuffered+0x24>
 800a8de:	4621      	mov	r1, r4
 800a8e0:	4618      	mov	r0, r3
 800a8e2:	f7ff ffb1 	bl	800a848 <_FlushBuffer.isra.5>
 800a8e6:	6863      	ldr	r3, [r4, #4]
 800a8e8:	601f      	str	r7, [r3, #0]
 800a8ea:	f994 2030 	ldrsb.w	r2, [r4, #48]	; 0x30
 800a8ee:	eb03 0382 	add.w	r3, r3, r2, lsl #2
 800a8f2:	6063      	str	r3, [r4, #4]
 800a8f4:	68e3      	ldr	r3, [r4, #12]
 800a8f6:	b90b      	cbnz	r3, 800a8fc <_SetBkIndexBuffered+0x3a>
 800a8f8:	62a6      	str	r6, [r4, #40]	; 0x28
 800a8fa:	62e5      	str	r5, [r4, #44]	; 0x2c
 800a8fc:	3301      	adds	r3, #1
 800a8fe:	60e3      	str	r3, [r4, #12]
 800a900:	6226      	str	r6, [r4, #32]
 800a902:	6265      	str	r5, [r4, #36]	; 0x24
 800a904:	bdf8      	pop	{r3, r4, r5, r6, r7, pc}

0800a906 <_ReleaseBuffer.isra.6>:
 800a906:	b513      	push	{r0, r1, r4, lr}
 800a908:	9101      	str	r1, [sp, #4]
 800a90a:	f7ff ff9d 	bl	800a848 <_FlushBuffer.isra.5>
 800a90e:	a802      	add	r0, sp, #8
 800a910:	f850 3d04 	ldr.w	r3, [r0, #-4]!
 800a914:	689c      	ldr	r4, [r3, #8]
 800a916:	f7fa fdaf 	bl	8005478 <GUI_ALLOC_UnlockH>
 800a91a:	4620      	mov	r0, r4
 800a91c:	f7fa fdcc 	bl	80054b8 <GUI_ALLOC_Free>
 800a920:	b002      	add	sp, #8
 800a922:	bd10      	pop	{r4, pc}

0800a924 <GUI_SPRITE_SetPosition>:
 800a924:	e92d 4ff0 	stmdb	sp!, {r4, r5, r6, r7, r8, r9, sl, fp, lr}
 800a928:	b0a9      	sub	sp, #164	; 0xa4
 800a92a:	9112      	str	r1, [sp, #72]	; 0x48
 800a92c:	9213      	str	r2, [sp, #76]	; 0x4c
 800a92e:	2800      	cmp	r0, #0
 800a930:	f000 824c 	beq.w	800adcc <GUI_SPRITE_SetPosition+0x4a8>
 800a934:	f7fa fd92 	bl	800545c <GUI_ALLOC_LockH>
 800a938:	6803      	ldr	r3, [r0, #0]
 800a93a:	9302      	str	r3, [sp, #8]
 800a93c:	9a12      	ldr	r2, [sp, #72]	; 0x48
 800a93e:	f9b0 3004 	ldrsh.w	r3, [r0, #4]
 800a942:	9025      	str	r0, [sp, #148]	; 0x94
 800a944:	429a      	cmp	r2, r3
 800a946:	d105      	bne.n	800a954 <GUI_SPRITE_SetPosition+0x30>
 800a948:	f9b0 3006 	ldrsh.w	r3, [r0, #6]
 800a94c:	9a13      	ldr	r2, [sp, #76]	; 0x4c
 800a94e:	429a      	cmp	r2, r3
 800a950:	f000 820d 	beq.w	800ad6e <GUI_SPRITE_SetPosition+0x44a>
 800a954:	2000      	movs	r0, #0
 800a956:	f000 fc73 	bl	800b240 <GUI_MEMDEV_Select>
 800a95a:	9b02      	ldr	r3, [sp, #8]
 800a95c:	9d25      	ldr	r5, [sp, #148]	; 0x94
 800a95e:	f8d3 a018 	ldr.w	sl, [r3, #24]
 800a962:	4b95      	ldr	r3, [pc, #596]	; (800abb8 <GUI_SPRITE_SetPosition+0x294>)
 800a964:	9020      	str	r0, [sp, #128]	; 0x80
 800a966:	681b      	ldr	r3, [r3, #0]
 800a968:	7c5a      	ldrb	r2, [r3, #17]
 800a96a:	9214      	str	r2, [sp, #80]	; 0x50
 800a96c:	4592      	cmp	sl, r2
 800a96e:	bf18      	it	ne
 800a970:	f883 a011 	strbne.w	sl, [r3, #17]
 800a974:	f9b5 3004 	ldrsh.w	r3, [r5, #4]
 800a978:	9306      	str	r3, [sp, #24]
 800a97a:	f9b5 3006 	ldrsh.w	r3, [r5, #6]
 800a97e:	9307      	str	r3, [sp, #28]
 800a980:	9a06      	ldr	r2, [sp, #24]
 800a982:	f9b5 3008 	ldrsh.w	r3, [r5, #8]
 800a986:	ebc2 0b03 	rsb	fp, r2, r3
 800a98a:	f10b 0301 	add.w	r3, fp, #1
 800a98e:	9308      	str	r3, [sp, #32]
 800a990:	9a07      	ldr	r2, [sp, #28]
 800a992:	f9b5 300a 	ldrsh.w	r3, [r5, #10]
 800a996:	1a9b      	subs	r3, r3, r2
 800a998:	9309      	str	r3, [sp, #36]	; 0x24
 800a99a:	3301      	adds	r3, #1
 800a99c:	931b      	str	r3, [sp, #108]	; 0x6c
 800a99e:	8a2b      	ldrh	r3, [r5, #16]
 800a9a0:	079b      	lsls	r3, r3, #30
 800a9a2:	f140 81c8 	bpl.w	800ad36 <GUI_SPRITE_SetPosition+0x412>
 800a9a6:	696b      	ldr	r3, [r5, #20]
 800a9a8:	9a06      	ldr	r2, [sp, #24]
 800a9aa:	930c      	str	r3, [sp, #48]	; 0x30
 800a9ac:	9b12      	ldr	r3, [sp, #72]	; 0x48
 800a9ae:	1a9b      	subs	r3, r3, r2
 800a9b0:	9303      	str	r3, [sp, #12]
 800a9b2:	9a07      	ldr	r2, [sp, #28]
 800a9b4:	9b13      	ldr	r3, [sp, #76]	; 0x4c
 800a9b6:	1a9b      	subs	r3, r3, r2
 800a9b8:	9304      	str	r3, [sp, #16]
 800a9ba:	9b03      	ldr	r3, [sp, #12]
 800a9bc:	2b00      	cmp	r3, #0
 800a9be:	dc09      	bgt.n	800a9d4 <GUI_SPRITE_SetPosition+0xb0>
 800a9c0:	f8cd b02c 	str.w	fp, [sp, #44]	; 0x2c
 800a9c4:	449b      	add	fp, r3
 800a9c6:	2300      	movs	r3, #0
 800a9c8:	9316      	str	r3, [sp, #88]	; 0x58
 800a9ca:	f04f 33ff 	mov.w	r3, #4294967295	; 0xffffffff
 800a9ce:	930f      	str	r3, [sp, #60]	; 0x3c
 800a9d0:	9305      	str	r3, [sp, #20]
 800a9d2:	e007      	b.n	800a9e4 <GUI_SPRITE_SetPosition+0xc0>
 800a9d4:	9b03      	ldr	r3, [sp, #12]
 800a9d6:	9316      	str	r3, [sp, #88]	; 0x58
 800a9d8:	9b08      	ldr	r3, [sp, #32]
 800a9da:	930f      	str	r3, [sp, #60]	; 0x3c
 800a9dc:	2301      	movs	r3, #1
 800a9de:	9305      	str	r3, [sp, #20]
 800a9e0:	2300      	movs	r3, #0
 800a9e2:	930b      	str	r3, [sp, #44]	; 0x2c
 800a9e4:	9b04      	ldr	r3, [sp, #16]
 800a9e6:	2b00      	cmp	r3, #0
 800a9e8:	dc0b      	bgt.n	800aa02 <GUI_SPRITE_SetPosition+0xde>
 800a9ea:	9c09      	ldr	r4, [sp, #36]	; 0x24
 800a9ec:	9a04      	ldr	r2, [sp, #16]
 800a9ee:	4623      	mov	r3, r4
 800a9f0:	4413      	add	r3, r2
 800a9f2:	9309      	str	r3, [sp, #36]	; 0x24
 800a9f4:	2300      	movs	r3, #0
 800a9f6:	9315      	str	r3, [sp, #84]	; 0x54
 800a9f8:	f04f 33ff 	mov.w	r3, #4294967295	; 0xffffffff
 800a9fc:	9310      	str	r3, [sp, #64]	; 0x40
 800a9fe:	930a      	str	r3, [sp, #40]	; 0x28
 800aa00:	e006      	b.n	800aa10 <GUI_SPRITE_SetPosition+0xec>
 800aa02:	9b04      	ldr	r3, [sp, #16]
 800aa04:	9315      	str	r3, [sp, #84]	; 0x54
 800aa06:	9b1b      	ldr	r3, [sp, #108]	; 0x6c
 800aa08:	9310      	str	r3, [sp, #64]	; 0x40
 800aa0a:	2301      	movs	r3, #1
 800aa0c:	930a      	str	r3, [sp, #40]	; 0x28
 800aa0e:	2400      	movs	r4, #0
 800aa10:	a926      	add	r1, sp, #152	; 0x98
 800aa12:	9802      	ldr	r0, [sp, #8]
 800aa14:	f7ff fefa 	bl	800a80c <_GetDeviceRect>
 800aa18:	9905      	ldr	r1, [sp, #20]
 800aa1a:	9825      	ldr	r0, [sp, #148]	; 0x94
 800aa1c:	f7ff fe2c 	bl	800a678 <_CreateBuffer>
 800aa20:	900d      	str	r0, [sp, #52]	; 0x34
 800aa22:	2800      	cmp	r0, #0
 800aa24:	f000 8187 	beq.w	800ad36 <GUI_SPRITE_SetPosition+0x412>
 800aa28:	9905      	ldr	r1, [sp, #20]
 800aa2a:	9825      	ldr	r0, [sp, #148]	; 0x94
 800aa2c:	f7ff fe24 	bl	800a678 <_CreateBuffer>
 800aa30:	900e      	str	r0, [sp, #56]	; 0x38
 800aa32:	2800      	cmp	r0, #0
 800aa34:	f000 817a 	beq.w	800ad2c <GUI_SPRITE_SetPosition+0x408>
 800aa38:	9b25      	ldr	r3, [sp, #148]	; 0x94
 800aa3a:	68d8      	ldr	r0, [r3, #12]
 800aa3c:	b990      	cbnz	r0, 800aa64 <GUI_SPRITE_SetPosition+0x140>
 800aa3e:	9b08      	ldr	r3, [sp, #32]
 800aa40:	9a0a      	ldr	r2, [sp, #40]	; 0x28
 800aa42:	901f      	str	r0, [sp, #124]	; 0x7c
 800aa44:	009b      	lsls	r3, r3, #2
 800aa46:	4353      	muls	r3, r2
 800aa48:	9322      	str	r3, [sp, #136]	; 0x88
 800aa4a:	9a0b      	ldr	r2, [sp, #44]	; 0x2c
 800aa4c:	9b08      	ldr	r3, [sp, #32]
 800aa4e:	f8df 916c 	ldr.w	r9, [pc, #364]	; 800abbc <GUI_SPRITE_SetPosition+0x298>
 800aa52:	fb03 2304 	mla	r3, r3, r4, r2
 800aa56:	eb05 0383 	add.w	r3, r5, r3, lsl #2
 800aa5a:	9318      	str	r3, [sp, #96]	; 0x60
 800aa5c:	9b05      	ldr	r3, [sp, #20]
 800aa5e:	009b      	lsls	r3, r3, #2
 800aa60:	9321      	str	r3, [sp, #132]	; 0x84
 800aa62:	e0cd      	b.n	800ac00 <GUI_SPRITE_SetPosition+0x2dc>
 800aa64:	f7fa fcfa 	bl	800545c <GUI_ALLOC_LockH>
 800aa68:	9b08      	ldr	r3, [sp, #32]
 800aa6a:	9a0a      	ldr	r2, [sp, #40]	; 0x28
 800aa6c:	9024      	str	r0, [sp, #144]	; 0x90
 800aa6e:	009b      	lsls	r3, r3, #2
 800aa70:	4353      	muls	r3, r2
 800aa72:	931e      	str	r3, [sp, #120]	; 0x78
 800aa74:	9a0b      	ldr	r2, [sp, #44]	; 0x2c
 800aa76:	9b08      	ldr	r3, [sp, #32]
 800aa78:	fb03 2304 	mla	r3, r3, r4, r2
 800aa7c:	eb05 0383 	add.w	r3, r5, r3, lsl #2
 800aa80:	9311      	str	r3, [sp, #68]	; 0x44
 800aa82:	9b05      	ldr	r3, [sp, #20]
 800aa84:	9a03      	ldr	r2, [sp, #12]
 800aa86:	009b      	lsls	r3, r3, #2
 800aa88:	931f      	str	r3, [sp, #124]	; 0x7c
 800aa8a:	9b06      	ldr	r3, [sp, #24]
 800aa8c:	4413      	add	r3, r2
 800aa8e:	9321      	str	r3, [sp, #132]	; 0x84
 800aa90:	9b10      	ldr	r3, [sp, #64]	; 0x40
 800aa92:	429c      	cmp	r4, r3
 800aa94:	f000 808c 	beq.w	800abb0 <GUI_SPRITE_SetPosition+0x28c>
 800aa98:	9b15      	ldr	r3, [sp, #84]	; 0x54
 800aa9a:	429c      	cmp	r4, r3
 800aa9c:	db05      	blt.n	800aaaa <GUI_SPRITE_SetPosition+0x186>
 800aa9e:	9b09      	ldr	r3, [sp, #36]	; 0x24
 800aaa0:	429c      	cmp	r4, r3
 800aaa2:	bfcc      	ite	gt
 800aaa4:	2300      	movgt	r3, #0
 800aaa6:	2301      	movle	r3, #1
 800aaa8:	e000      	b.n	800aaac <GUI_SPRITE_SetPosition+0x188>
 800aaaa:	2300      	movs	r3, #0
 800aaac:	9319      	str	r3, [sp, #100]	; 0x64
 800aaae:	9b07      	ldr	r3, [sp, #28]
 800aab0:	9a07      	ldr	r2, [sp, #28]
 800aab2:	f8dd 9044 	ldr.w	r9, [sp, #68]	; 0x44
 800aab6:	9d0b      	ldr	r5, [sp, #44]	; 0x2c
 800aab8:	4423      	add	r3, r4
 800aaba:	9317      	str	r3, [sp, #92]	; 0x5c
 800aabc:	9b04      	ldr	r3, [sp, #16]
 800aabe:	189e      	adds	r6, r3, r2
 800aac0:	1ae3      	subs	r3, r4, r3
 800aac2:	4426      	add	r6, r4
 800aac4:	931d      	str	r3, [sp, #116]	; 0x74
 800aac6:	9b0f      	ldr	r3, [sp, #60]	; 0x3c
 800aac8:	429d      	cmp	r5, r3
 800aaca:	d06a      	beq.n	800aba2 <GUI_SPRITE_SetPosition+0x27e>
 800aacc:	4622      	mov	r2, r4
 800aace:	4629      	mov	r1, r5
 800aad0:	980c      	ldr	r0, [sp, #48]	; 0x30
 800aad2:	f7fa ff50 	bl	8005976 <GUI_GetBitmapPixelIndex>
 800aad6:	901a      	str	r0, [sp, #104]	; 0x68
 800aad8:	2800      	cmp	r0, #0
 800aada:	d05d      	beq.n	800ab98 <GUI_SPRITE_SetPosition+0x274>
 800aadc:	9b06      	ldr	r3, [sp, #24]
 800aade:	18eb      	adds	r3, r5, r3
 800aae0:	9318      	str	r3, [sp, #96]	; 0x60
 800aae2:	9b21      	ldr	r3, [sp, #132]	; 0x84
 800aae4:	195f      	adds	r7, r3, r5
 800aae6:	9b16      	ldr	r3, [sp, #88]	; 0x58
 800aae8:	429d      	cmp	r5, r3
 800aaea:	db04      	blt.n	800aaf6 <GUI_SPRITE_SetPosition+0x1d2>
 800aaec:	455d      	cmp	r5, fp
 800aaee:	9b19      	ldr	r3, [sp, #100]	; 0x64
 800aaf0:	bfc8      	it	gt
 800aaf2:	2300      	movgt	r3, #0
 800aaf4:	e000      	b.n	800aaf8 <GUI_SPRITE_SetPosition+0x1d4>
 800aaf6:	2300      	movs	r3, #0
 800aaf8:	931c      	str	r3, [sp, #112]	; 0x70
 800aafa:	f9bd 3098 	ldrsh.w	r3, [sp, #152]	; 0x98
 800aafe:	42bb      	cmp	r3, r7
 800ab00:	dc13      	bgt.n	800ab2a <GUI_SPRITE_SetPosition+0x206>
 800ab02:	f9bd 309a 	ldrsh.w	r3, [sp, #154]	; 0x9a
 800ab06:	42b3      	cmp	r3, r6
 800ab08:	dc0f      	bgt.n	800ab2a <GUI_SPRITE_SetPosition+0x206>
 800ab0a:	f9bd 309c 	ldrsh.w	r3, [sp, #156]	; 0x9c
 800ab0e:	42bb      	cmp	r3, r7
 800ab10:	db0b      	blt.n	800ab2a <GUI_SPRITE_SetPosition+0x206>
 800ab12:	f9bd 309e 	ldrsh.w	r3, [sp, #158]	; 0x9e
 800ab16:	42b3      	cmp	r3, r6
 800ab18:	db07      	blt.n	800ab2a <GUI_SPRITE_SetPosition+0x206>
 800ab1a:	9b25      	ldr	r3, [sp, #148]	; 0x94
 800ab1c:	9a02      	ldr	r2, [sp, #8]
 800ab1e:	4631      	mov	r1, r6
 800ab20:	4638      	mov	r0, r7
 800ab22:	f7ff fdfe 	bl	800a722 <_GetBkIndex.isra.0>
 800ab26:	4680      	mov	r8, r0
 800ab28:	e001      	b.n	800ab2e <GUI_SPRITE_SetPosition+0x20a>
 800ab2a:	f04f 0800 	mov.w	r8, #0
 800ab2e:	9b1c      	ldr	r3, [sp, #112]	; 0x70
 800ab30:	b153      	cbz	r3, 800ab48 <GUI_SPRITE_SetPosition+0x224>
 800ab32:	9b03      	ldr	r3, [sp, #12]
 800ab34:	1ae9      	subs	r1, r5, r3
 800ab36:	d412      	bmi.n	800ab5e <GUI_SPRITE_SetPosition+0x23a>
 800ab38:	9b1d      	ldr	r3, [sp, #116]	; 0x74
 800ab3a:	2b00      	cmp	r3, #0
 800ab3c:	db0f      	blt.n	800ab5e <GUI_SPRITE_SetPosition+0x23a>
 800ab3e:	461a      	mov	r2, r3
 800ab40:	980c      	ldr	r0, [sp, #48]	; 0x30
 800ab42:	f7fa ff18 	bl	8005976 <GUI_GetBitmapPixelIndex>
 800ab46:	b950      	cbnz	r0, 800ab5e <GUI_SPRITE_SetPosition+0x23a>
 800ab48:	f9bd 3098 	ldrsh.w	r3, [sp, #152]	; 0x98
 800ab4c:	9a18      	ldr	r2, [sp, #96]	; 0x60
 800ab4e:	4293      	cmp	r3, r2
 800ab50:	dc05      	bgt.n	800ab5e <GUI_SPRITE_SetPosition+0x23a>
 800ab52:	f9bd 309a 	ldrsh.w	r3, [sp, #154]	; 0x9a
 800ab56:	9a17      	ldr	r2, [sp, #92]	; 0x5c
 800ab58:	4293      	cmp	r3, r2
 800ab5a:	f340 810c 	ble.w	800ad76 <GUI_SPRITE_SetPosition+0x452>
 800ab5e:	f9bd 3098 	ldrsh.w	r3, [sp, #152]	; 0x98
 800ab62:	42bb      	cmp	r3, r7
 800ab64:	dc16      	bgt.n	800ab94 <GUI_SPRITE_SetPosition+0x270>
 800ab66:	f9bd 309a 	ldrsh.w	r3, [sp, #154]	; 0x9a
 800ab6a:	42b3      	cmp	r3, r6
 800ab6c:	dc12      	bgt.n	800ab94 <GUI_SPRITE_SetPosition+0x270>
 800ab6e:	f9bd 309c 	ldrsh.w	r3, [sp, #156]	; 0x9c
 800ab72:	42bb      	cmp	r3, r7
 800ab74:	db0e      	blt.n	800ab94 <GUI_SPRITE_SetPosition+0x270>
 800ab76:	f9bd 309e 	ldrsh.w	r3, [sp, #158]	; 0x9e
 800ab7a:	42b3      	cmp	r3, r6
 800ab7c:	db0a      	blt.n	800ab94 <GUI_SPRITE_SetPosition+0x270>
 800ab7e:	9b0d      	ldr	r3, [sp, #52]	; 0x34
 800ab80:	991a      	ldr	r1, [sp, #104]	; 0x68
 800ab82:	9a24      	ldr	r2, [sp, #144]	; 0x90
 800ab84:	9300      	str	r3, [sp, #0]
 800ab86:	f852 2021 	ldr.w	r2, [r2, r1, lsl #2]
 800ab8a:	9b02      	ldr	r3, [sp, #8]
 800ab8c:	4631      	mov	r1, r6
 800ab8e:	4638      	mov	r0, r7
 800ab90:	f7ff fe97 	bl	800a8c2 <_SetBkIndexBuffered>
 800ab94:	f8c9 8020 	str.w	r8, [r9, #32]
 800ab98:	9b05      	ldr	r3, [sp, #20]
 800ab9a:	441d      	add	r5, r3
 800ab9c:	9b1f      	ldr	r3, [sp, #124]	; 0x7c
 800ab9e:	4499      	add	r9, r3
 800aba0:	e791      	b.n	800aac6 <GUI_SPRITE_SetPosition+0x1a2>
 800aba2:	9b0a      	ldr	r3, [sp, #40]	; 0x28
 800aba4:	9a1e      	ldr	r2, [sp, #120]	; 0x78
 800aba6:	441c      	add	r4, r3
 800aba8:	9b11      	ldr	r3, [sp, #68]	; 0x44
 800abaa:	4413      	add	r3, r2
 800abac:	9311      	str	r3, [sp, #68]	; 0x44
 800abae:	e76f      	b.n	800aa90 <GUI_SPRITE_SetPosition+0x16c>
 800abb0:	a824      	add	r0, sp, #144	; 0x90
 800abb2:	f7fa fc61 	bl	8005478 <GUI_ALLOC_UnlockH>
 800abb6:	e0b4      	b.n	800ad22 <GUI_SPRITE_SetPosition+0x3fe>
 800abb8:	20000098 	.word	0x20000098
 800abbc:	20029160 	.word	0x20029160
 800abc0:	9b15      	ldr	r3, [sp, #84]	; 0x54
 800abc2:	42a3      	cmp	r3, r4
 800abc4:	dc20      	bgt.n	800ac08 <GUI_SPRITE_SetPosition+0x2e4>
 800abc6:	9b09      	ldr	r3, [sp, #36]	; 0x24
 800abc8:	42a3      	cmp	r3, r4
 800abca:	bfb4      	ite	lt
 800abcc:	2300      	movlt	r3, #0
 800abce:	2301      	movge	r3, #1
 800abd0:	931c      	str	r3, [sp, #112]	; 0x70
 800abd2:	9b07      	ldr	r3, [sp, #28]
 800abd4:	9a07      	ldr	r2, [sp, #28]
 800abd6:	9d0b      	ldr	r5, [sp, #44]	; 0x2c
 800abd8:	4423      	add	r3, r4
 800abda:	931a      	str	r3, [sp, #104]	; 0x68
 800abdc:	9b04      	ldr	r3, [sp, #16]
 800abde:	189e      	adds	r6, r3, r2
 800abe0:	9b18      	ldr	r3, [sp, #96]	; 0x60
 800abe2:	9311      	str	r3, [sp, #68]	; 0x44
 800abe4:	9a03      	ldr	r2, [sp, #12]
 800abe6:	9b06      	ldr	r3, [sp, #24]
 800abe8:	4413      	add	r3, r2
 800abea:	4426      	add	r6, r4
 800abec:	9323      	str	r3, [sp, #140]	; 0x8c
 800abee:	9b0f      	ldr	r3, [sp, #60]	; 0x3c
 800abf0:	42ab      	cmp	r3, r5
 800abf2:	d10b      	bne.n	800ac0c <GUI_SPRITE_SetPosition+0x2e8>
 800abf4:	9b0a      	ldr	r3, [sp, #40]	; 0x28
 800abf6:	9a22      	ldr	r2, [sp, #136]	; 0x88
 800abf8:	441c      	add	r4, r3
 800abfa:	9b18      	ldr	r3, [sp, #96]	; 0x60
 800abfc:	4413      	add	r3, r2
 800abfe:	9318      	str	r3, [sp, #96]	; 0x60
 800ac00:	9b10      	ldr	r3, [sp, #64]	; 0x40
 800ac02:	42a3      	cmp	r3, r4
 800ac04:	d1dc      	bne.n	800abc0 <GUI_SPRITE_SetPosition+0x29c>
 800ac06:	e08c      	b.n	800ad22 <GUI_SPRITE_SetPosition+0x3fe>
 800ac08:	2300      	movs	r3, #0
 800ac0a:	e7e1      	b.n	800abd0 <GUI_SPRITE_SetPosition+0x2ac>
 800ac0c:	4622      	mov	r2, r4
 800ac0e:	4629      	mov	r1, r5
 800ac10:	980c      	ldr	r0, [sp, #48]	; 0x30
 800ac12:	f7fa feb0 	bl	8005976 <GUI_GetBitmapPixelIndex>
 800ac16:	0e03      	lsrs	r3, r0, #24
 800ac18:	2bff      	cmp	r3, #255	; 0xff
 800ac1a:	9017      	str	r0, [sp, #92]	; 0x5c
 800ac1c:	931d      	str	r3, [sp, #116]	; 0x74
 800ac1e:	d079      	beq.n	800ad14 <GUI_SPRITE_SetPosition+0x3f0>
 800ac20:	9b06      	ldr	r3, [sp, #24]
 800ac22:	18eb      	adds	r3, r5, r3
 800ac24:	9319      	str	r3, [sp, #100]	; 0x64
 800ac26:	9b23      	ldr	r3, [sp, #140]	; 0x8c
 800ac28:	eb03 0805 	add.w	r8, r3, r5
 800ac2c:	9b16      	ldr	r3, [sp, #88]	; 0x58
 800ac2e:	42ab      	cmp	r3, r5
 800ac30:	dc04      	bgt.n	800ac3c <GUI_SPRITE_SetPosition+0x318>
 800ac32:	45ab      	cmp	fp, r5
 800ac34:	9b1c      	ldr	r3, [sp, #112]	; 0x70
 800ac36:	bfb8      	it	lt
 800ac38:	2300      	movlt	r3, #0
 800ac3a:	e000      	b.n	800ac3e <GUI_SPRITE_SetPosition+0x31a>
 800ac3c:	2300      	movs	r3, #0
 800ac3e:	931e      	str	r3, [sp, #120]	; 0x78
 800ac40:	f9bd 3098 	ldrsh.w	r3, [sp, #152]	; 0x98
 800ac44:	4543      	cmp	r3, r8
 800ac46:	dc1b      	bgt.n	800ac80 <GUI_SPRITE_SetPosition+0x35c>
 800ac48:	f9bd 309a 	ldrsh.w	r3, [sp, #154]	; 0x9a
 800ac4c:	42b3      	cmp	r3, r6
 800ac4e:	dc17      	bgt.n	800ac80 <GUI_SPRITE_SetPosition+0x35c>
 800ac50:	f9bd 309c 	ldrsh.w	r3, [sp, #156]	; 0x9c
 800ac54:	4543      	cmp	r3, r8
 800ac56:	db13      	blt.n	800ac80 <GUI_SPRITE_SetPosition+0x35c>
 800ac58:	f9bd 309e 	ldrsh.w	r3, [sp, #158]	; 0x9e
 800ac5c:	42b3      	cmp	r3, r6
 800ac5e:	db0f      	blt.n	800ac80 <GUI_SPRITE_SetPosition+0x35c>
 800ac60:	9b25      	ldr	r3, [sp, #148]	; 0x94
 800ac62:	9a02      	ldr	r2, [sp, #8]
 800ac64:	4631      	mov	r1, r6
 800ac66:	4640      	mov	r0, r8
 800ac68:	f7ff fd93 	bl	800a792 <_GetBkIndexAlpha.isra.2>
 800ac6c:	f859 302a 	ldr.w	r3, [r9, sl, lsl #2]
 800ac70:	691b      	ldr	r3, [r3, #16]
 800ac72:	4607      	mov	r7, r0
 800ac74:	685b      	ldr	r3, [r3, #4]
 800ac76:	f020 407f 	bic.w	r0, r0, #4278190080	; 0xff000000
 800ac7a:	4798      	blx	r3
 800ac7c:	901f      	str	r0, [sp, #124]	; 0x7c
 800ac7e:	e000      	b.n	800ac82 <GUI_SPRITE_SetPosition+0x35e>
 800ac80:	2700      	movs	r7, #0
 800ac82:	9b1e      	ldr	r3, [sp, #120]	; 0x78
 800ac84:	b15b      	cbz	r3, 800ac9e <GUI_SPRITE_SetPosition+0x37a>
 800ac86:	9b03      	ldr	r3, [sp, #12]
 800ac88:	1ae9      	subs	r1, r5, r3
 800ac8a:	d412      	bmi.n	800acb2 <GUI_SPRITE_SetPosition+0x38e>
 800ac8c:	9b04      	ldr	r3, [sp, #16]
 800ac8e:	1ae2      	subs	r2, r4, r3
 800ac90:	d40f      	bmi.n	800acb2 <GUI_SPRITE_SetPosition+0x38e>
 800ac92:	980c      	ldr	r0, [sp, #48]	; 0x30
 800ac94:	f7fa fe6f 	bl	8005976 <GUI_GetBitmapPixelIndex>
 800ac98:	0e00      	lsrs	r0, r0, #24
 800ac9a:	28ff      	cmp	r0, #255	; 0xff
 800ac9c:	d109      	bne.n	800acb2 <GUI_SPRITE_SetPosition+0x38e>
 800ac9e:	f9bd 3098 	ldrsh.w	r3, [sp, #152]	; 0x98
 800aca2:	9a19      	ldr	r2, [sp, #100]	; 0x64
 800aca4:	4293      	cmp	r3, r2
 800aca6:	dc04      	bgt.n	800acb2 <GUI_SPRITE_SetPosition+0x38e>
 800aca8:	f9bd 309a 	ldrsh.w	r3, [sp, #154]	; 0x9a
 800acac:	9a1a      	ldr	r2, [sp, #104]	; 0x68
 800acae:	4293      	cmp	r3, r2
 800acb0:	dd77      	ble.n	800ada2 <GUI_SPRITE_SetPosition+0x47e>
 800acb2:	f9bd 3098 	ldrsh.w	r3, [sp, #152]	; 0x98
 800acb6:	4543      	cmp	r3, r8
 800acb8:	dc2a      	bgt.n	800ad10 <GUI_SPRITE_SetPosition+0x3ec>
 800acba:	f9bd 309a 	ldrsh.w	r3, [sp, #154]	; 0x9a
 800acbe:	42b3      	cmp	r3, r6
 800acc0:	dc26      	bgt.n	800ad10 <GUI_SPRITE_SetPosition+0x3ec>
 800acc2:	f9bd 309c 	ldrsh.w	r3, [sp, #156]	; 0x9c
 800acc6:	4543      	cmp	r3, r8
 800acc8:	db22      	blt.n	800ad10 <GUI_SPRITE_SetPosition+0x3ec>
 800acca:	f9bd 309e 	ldrsh.w	r3, [sp, #158]	; 0x9e
 800acce:	42b3      	cmp	r3, r6
 800acd0:	db1e      	blt.n	800ad10 <GUI_SPRITE_SetPosition+0x3ec>
 800acd2:	9b1d      	ldr	r3, [sp, #116]	; 0x74
 800acd4:	b163      	cbz	r3, 800acf0 <GUI_SPRITE_SetPosition+0x3cc>
 800acd6:	9b1f      	ldr	r3, [sp, #124]	; 0x7c
 800acd8:	9817      	ldr	r0, [sp, #92]	; 0x5c
 800acda:	f023 417f 	bic.w	r1, r3, #4278190080	; 0xff000000
 800acde:	4b3d      	ldr	r3, [pc, #244]	; (800add4 <GUI_SPRITE_SetPosition+0x4b0>)
 800ace0:	22ff      	movs	r2, #255	; 0xff
 800ace2:	681b      	ldr	r3, [r3, #0]
 800ace4:	4798      	blx	r3
 800ace6:	f859 302a 	ldr.w	r3, [r9, sl, lsl #2]
 800acea:	691b      	ldr	r3, [r3, #16]
 800acec:	681b      	ldr	r3, [r3, #0]
 800acee:	e006      	b.n	800acfe <GUI_SPRITE_SetPosition+0x3da>
 800acf0:	f859 302a 	ldr.w	r3, [r9, sl, lsl #2]
 800acf4:	9a17      	ldr	r2, [sp, #92]	; 0x5c
 800acf6:	691b      	ldr	r3, [r3, #16]
 800acf8:	685b      	ldr	r3, [r3, #4]
 800acfa:	f022 407f 	bic.w	r0, r2, #4278190080	; 0xff000000
 800acfe:	4798      	blx	r3
 800ad00:	9b0d      	ldr	r3, [sp, #52]	; 0x34
 800ad02:	9300      	str	r3, [sp, #0]
 800ad04:	4602      	mov	r2, r0
 800ad06:	9b02      	ldr	r3, [sp, #8]
 800ad08:	4631      	mov	r1, r6
 800ad0a:	4640      	mov	r0, r8
 800ad0c:	f7ff fdd9 	bl	800a8c2 <_SetBkIndexBuffered>
 800ad10:	9b11      	ldr	r3, [sp, #68]	; 0x44
 800ad12:	621f      	str	r7, [r3, #32]
 800ad14:	9b05      	ldr	r3, [sp, #20]
 800ad16:	9a21      	ldr	r2, [sp, #132]	; 0x84
 800ad18:	441d      	add	r5, r3
 800ad1a:	9b11      	ldr	r3, [sp, #68]	; 0x44
 800ad1c:	4413      	add	r3, r2
 800ad1e:	9311      	str	r3, [sp, #68]	; 0x44
 800ad20:	e765      	b.n	800abee <GUI_SPRITE_SetPosition+0x2ca>
 800ad22:	9b25      	ldr	r3, [sp, #148]	; 0x94
 800ad24:	990e      	ldr	r1, [sp, #56]	; 0x38
 800ad26:	6818      	ldr	r0, [r3, #0]
 800ad28:	f7ff fded 	bl	800a906 <_ReleaseBuffer.isra.6>
 800ad2c:	9b25      	ldr	r3, [sp, #148]	; 0x94
 800ad2e:	990d      	ldr	r1, [sp, #52]	; 0x34
 800ad30:	6818      	ldr	r0, [r3, #0]
 800ad32:	f7ff fde8 	bl	800a906 <_ReleaseBuffer.isra.6>
 800ad36:	9b25      	ldr	r3, [sp, #148]	; 0x94
 800ad38:	f8bd 2048 	ldrh.w	r2, [sp, #72]	; 0x48
 800ad3c:	809a      	strh	r2, [r3, #4]
 800ad3e:	f8bd 204c 	ldrh.w	r2, [sp, #76]	; 0x4c
 800ad42:	80da      	strh	r2, [r3, #6]
 800ad44:	9908      	ldr	r1, [sp, #32]
 800ad46:	9a12      	ldr	r2, [sp, #72]	; 0x48
 800ad48:	9820      	ldr	r0, [sp, #128]	; 0x80
 800ad4a:	440a      	add	r2, r1
 800ad4c:	3a01      	subs	r2, #1
 800ad4e:	811a      	strh	r2, [r3, #8]
 800ad50:	9a13      	ldr	r2, [sp, #76]	; 0x4c
 800ad52:	991b      	ldr	r1, [sp, #108]	; 0x6c
 800ad54:	3a01      	subs	r2, #1
 800ad56:	440a      	add	r2, r1
 800ad58:	815a      	strh	r2, [r3, #10]
 800ad5a:	9b14      	ldr	r3, [sp, #80]	; 0x50
 800ad5c:	459a      	cmp	sl, r3
 800ad5e:	bf1f      	itttt	ne
 800ad60:	4b1d      	ldrne	r3, [pc, #116]	; (800add8 <GUI_SPRITE_SetPosition+0x4b4>)
 800ad62:	f89d 2050 	ldrbne.w	r2, [sp, #80]	; 0x50
 800ad66:	681b      	ldrne	r3, [r3, #0]
 800ad68:	745a      	strbne	r2, [r3, #17]
 800ad6a:	f000 fa69 	bl	800b240 <GUI_MEMDEV_Select>
 800ad6e:	a825      	add	r0, sp, #148	; 0x94
 800ad70:	f7fa fb82 	bl	8005478 <GUI_ALLOC_UnlockH>
 800ad74:	e02a      	b.n	800adcc <GUI_SPRITE_SetPosition+0x4a8>
 800ad76:	f9bd 309c 	ldrsh.w	r3, [sp, #156]	; 0x9c
 800ad7a:	9a18      	ldr	r2, [sp, #96]	; 0x60
 800ad7c:	4293      	cmp	r3, r2
 800ad7e:	f6ff aeee 	blt.w	800ab5e <GUI_SPRITE_SetPosition+0x23a>
 800ad82:	f9bd 309e 	ldrsh.w	r3, [sp, #158]	; 0x9e
 800ad86:	9a17      	ldr	r2, [sp, #92]	; 0x5c
 800ad88:	4293      	cmp	r3, r2
 800ad8a:	f6ff aee8 	blt.w	800ab5e <GUI_SPRITE_SetPosition+0x23a>
 800ad8e:	9b0e      	ldr	r3, [sp, #56]	; 0x38
 800ad90:	9300      	str	r3, [sp, #0]
 800ad92:	f8d9 2020 	ldr.w	r2, [r9, #32]
 800ad96:	9b02      	ldr	r3, [sp, #8]
 800ad98:	9917      	ldr	r1, [sp, #92]	; 0x5c
 800ad9a:	9818      	ldr	r0, [sp, #96]	; 0x60
 800ad9c:	f7ff fd91 	bl	800a8c2 <_SetBkIndexBuffered>
 800ada0:	e6dd      	b.n	800ab5e <GUI_SPRITE_SetPosition+0x23a>
 800ada2:	f9bd 309c 	ldrsh.w	r3, [sp, #156]	; 0x9c
 800ada6:	9a19      	ldr	r2, [sp, #100]	; 0x64
 800ada8:	4293      	cmp	r3, r2
 800adaa:	db82      	blt.n	800acb2 <GUI_SPRITE_SetPosition+0x38e>
 800adac:	f9bd 309e 	ldrsh.w	r3, [sp, #158]	; 0x9e
 800adb0:	9a1a      	ldr	r2, [sp, #104]	; 0x68
 800adb2:	4293      	cmp	r3, r2
 800adb4:	f6ff af7d 	blt.w	800acb2 <GUI_SPRITE_SetPosition+0x38e>
 800adb8:	9b0e      	ldr	r3, [sp, #56]	; 0x38
 800adba:	9a11      	ldr	r2, [sp, #68]	; 0x44
 800adbc:	9300      	str	r3, [sp, #0]
 800adbe:	6a12      	ldr	r2, [r2, #32]
 800adc0:	9b02      	ldr	r3, [sp, #8]
 800adc2:	991a      	ldr	r1, [sp, #104]	; 0x68
 800adc4:	9819      	ldr	r0, [sp, #100]	; 0x64
 800adc6:	f7ff fd7c 	bl	800a8c2 <_SetBkIndexBuffered>
 800adca:	e772      	b.n	800acb2 <GUI_SPRITE_SetPosition+0x38e>
 800adcc:	b029      	add	sp, #164	; 0xa4
 800adce:	e8bd 8ff0 	ldmia.w	sp!, {r4, r5, r6, r7, r8, r9, sl, fp, pc}
 800add2:	bf00      	nop
 800add4:	2000009c 	.word	0x2000009c
 800add8:	20000098 	.word	0x20000098

0800addc <GUI__CompactPixelIndices>:
 800addc:	2a08      	cmp	r2, #8
 800adde:	b510      	push	{r4, lr}
 800ade0:	dd0e      	ble.n	800ae00 <GUI__CompactPixelIndices+0x24>
 800ade2:	2a10      	cmp	r2, #16
 800ade4:	dc0a      	bgt.n	800adfc <GUI__CompactPixelIndices+0x20>
 800ade6:	4603      	mov	r3, r0
 800ade8:	eb00 0141 	add.w	r1, r0, r1, lsl #1
 800adec:	f850 2b04 	ldr.w	r2, [r0], #4
 800adf0:	f823 2b02 	strh.w	r2, [r3], #2
 800adf4:	428b      	cmp	r3, r1
 800adf6:	d1f9      	bne.n	800adec <GUI__CompactPixelIndices+0x10>
 800adf8:	2001      	movs	r0, #1
 800adfa:	bd10      	pop	{r4, pc}
 800adfc:	2000      	movs	r0, #0
 800adfe:	bd10      	pop	{r4, pc}
 800ae00:	2a02      	cmp	r2, #2
 800ae02:	d128      	bne.n	800ae56 <GUI__CompactPixelIndices+0x7a>
 800ae04:	4604      	mov	r4, r0
 800ae06:	6803      	ldr	r3, [r0, #0]
 800ae08:	2901      	cmp	r1, #1
 800ae0a:	ea4f 1383 	mov.w	r3, r3, lsl #6
 800ae0e:	b2db      	uxtb	r3, r3
 800ae10:	d01e      	beq.n	800ae50 <GUI__CompactPixelIndices+0x74>
 800ae12:	6842      	ldr	r2, [r0, #4]
 800ae14:	0112      	lsls	r2, r2, #4
 800ae16:	f002 0230 	and.w	r2, r2, #48	; 0x30
 800ae1a:	2902      	cmp	r1, #2
 800ae1c:	ea43 0302 	orr.w	r3, r3, r2
 800ae20:	d101      	bne.n	800ae26 <GUI__CompactPixelIndices+0x4a>
 800ae22:	3008      	adds	r0, #8
 800ae24:	e015      	b.n	800ae52 <GUI__CompactPixelIndices+0x76>
 800ae26:	6882      	ldr	r2, [r0, #8]
 800ae28:	0092      	lsls	r2, r2, #2
 800ae2a:	f002 020c 	and.w	r2, r2, #12
 800ae2e:	2903      	cmp	r1, #3
 800ae30:	ea43 0302 	orr.w	r3, r3, r2
 800ae34:	d101      	bne.n	800ae3a <GUI__CompactPixelIndices+0x5e>
 800ae36:	300c      	adds	r0, #12
 800ae38:	e00b      	b.n	800ae52 <GUI__CompactPixelIndices+0x76>
 800ae3a:	68c2      	ldr	r2, [r0, #12]
 800ae3c:	f002 0203 	and.w	r2, r2, #3
 800ae40:	4313      	orrs	r3, r2
 800ae42:	3904      	subs	r1, #4
 800ae44:	3010      	adds	r0, #16
 800ae46:	f804 3b01 	strb.w	r3, [r4], #1
 800ae4a:	2900      	cmp	r1, #0
 800ae4c:	d1db      	bne.n	800ae06 <GUI__CompactPixelIndices+0x2a>
 800ae4e:	e7d3      	b.n	800adf8 <GUI__CompactPixelIndices+0x1c>
 800ae50:	3004      	adds	r0, #4
 800ae52:	2100      	movs	r1, #0
 800ae54:	e7f7      	b.n	800ae46 <GUI__CompactPixelIndices+0x6a>
 800ae56:	2a04      	cmp	r2, #4
 800ae58:	d115      	bne.n	800ae86 <GUI__CompactPixelIndices+0xaa>
 800ae5a:	4604      	mov	r4, r0
 800ae5c:	2901      	cmp	r1, #1
 800ae5e:	6803      	ldr	r3, [r0, #0]
 800ae60:	bf18      	it	ne
 800ae62:	6842      	ldrne	r2, [r0, #4]
 800ae64:	ea4f 1303 	mov.w	r3, r3, lsl #4
 800ae68:	b2db      	uxtb	r3, r3
 800ae6a:	bf1b      	ittet	ne
 800ae6c:	f002 020f 	andne.w	r2, r2, #15
 800ae70:	4313      	orrne	r3, r2
 800ae72:	2100      	moveq	r1, #0
 800ae74:	3902      	subne	r1, #2
 800ae76:	bf0c      	ite	eq
 800ae78:	3004      	addeq	r0, #4
 800ae7a:	3008      	addne	r0, #8
 800ae7c:	f804 3b01 	strb.w	r3, [r4], #1
 800ae80:	2900      	cmp	r1, #0
 800ae82:	d1eb      	bne.n	800ae5c <GUI__CompactPixelIndices+0x80>
 800ae84:	e7b8      	b.n	800adf8 <GUI__CompactPixelIndices+0x1c>
 800ae86:	2a01      	cmp	r2, #1
 800ae88:	4603      	mov	r3, r0
 800ae8a:	d14e      	bne.n	800af2a <GUI__CompactPixelIndices+0x14e>
 800ae8c:	681a      	ldr	r2, [r3, #0]
 800ae8e:	2901      	cmp	r1, #1
 800ae90:	ea4f 12c2 	mov.w	r2, r2, lsl #7
 800ae94:	b2d2      	uxtb	r2, r2
 800ae96:	d045      	beq.n	800af24 <GUI__CompactPixelIndices+0x148>
 800ae98:	685c      	ldr	r4, [r3, #4]
 800ae9a:	01a4      	lsls	r4, r4, #6
 800ae9c:	f004 0440 	and.w	r4, r4, #64	; 0x40
 800aea0:	2902      	cmp	r1, #2
 800aea2:	ea42 0204 	orr.w	r2, r2, r4
 800aea6:	d101      	bne.n	800aeac <GUI__CompactPixelIndices+0xd0>
 800aea8:	3308      	adds	r3, #8
 800aeaa:	e03c      	b.n	800af26 <GUI__CompactPixelIndices+0x14a>
 800aeac:	689c      	ldr	r4, [r3, #8]
 800aeae:	0164      	lsls	r4, r4, #5
 800aeb0:	f004 0420 	and.w	r4, r4, #32
 800aeb4:	2903      	cmp	r1, #3
 800aeb6:	ea42 0204 	orr.w	r2, r2, r4
 800aeba:	d101      	bne.n	800aec0 <GUI__CompactPixelIndices+0xe4>
 800aebc:	330c      	adds	r3, #12
 800aebe:	e032      	b.n	800af26 <GUI__CompactPixelIndices+0x14a>
 800aec0:	68dc      	ldr	r4, [r3, #12]
 800aec2:	0124      	lsls	r4, r4, #4
 800aec4:	f004 0410 	and.w	r4, r4, #16
 800aec8:	2904      	cmp	r1, #4
 800aeca:	ea42 0204 	orr.w	r2, r2, r4
 800aece:	d101      	bne.n	800aed4 <GUI__CompactPixelIndices+0xf8>
 800aed0:	3310      	adds	r3, #16
 800aed2:	e028      	b.n	800af26 <GUI__CompactPixelIndices+0x14a>
 800aed4:	691c      	ldr	r4, [r3, #16]
 800aed6:	00e4      	lsls	r4, r4, #3
 800aed8:	f004 0408 	and.w	r4, r4, #8
 800aedc:	2905      	cmp	r1, #5
 800aede:	ea42 0204 	orr.w	r2, r2, r4
 800aee2:	d101      	bne.n	800aee8 <GUI__CompactPixelIndices+0x10c>
 800aee4:	3314      	adds	r3, #20
 800aee6:	e01e      	b.n	800af26 <GUI__CompactPixelIndices+0x14a>
 800aee8:	695c      	ldr	r4, [r3, #20]
 800aeea:	00a4      	lsls	r4, r4, #2
 800aeec:	f004 0404 	and.w	r4, r4, #4
 800aef0:	2906      	cmp	r1, #6
 800aef2:	ea42 0204 	orr.w	r2, r2, r4
 800aef6:	d101      	bne.n	800aefc <GUI__CompactPixelIndices+0x120>
 800aef8:	3318      	adds	r3, #24
 800aefa:	e014      	b.n	800af26 <GUI__CompactPixelIndices+0x14a>
 800aefc:	699c      	ldr	r4, [r3, #24]
 800aefe:	0064      	lsls	r4, r4, #1
 800af00:	3907      	subs	r1, #7
 800af02:	f004 0402 	and.w	r4, r4, #2
 800af06:	ea42 0204 	orr.w	r2, r2, r4
 800af0a:	bf1b      	ittet	ne
 800af0c:	69dc      	ldrne	r4, [r3, #28]
 800af0e:	f004 0401 	andne.w	r4, r4, #1
 800af12:	331c      	addeq	r3, #28
 800af14:	4322      	orrne	r2, r4
 800af16:	bf18      	it	ne
 800af18:	3320      	addne	r3, #32
 800af1a:	f800 2b01 	strb.w	r2, [r0], #1
 800af1e:	2900      	cmp	r1, #0
 800af20:	d1b4      	bne.n	800ae8c <GUI__CompactPixelIndices+0xb0>
 800af22:	e769      	b.n	800adf8 <GUI__CompactPixelIndices+0x1c>
 800af24:	3304      	adds	r3, #4
 800af26:	2100      	movs	r1, #0
 800af28:	e7f7      	b.n	800af1a <GUI__CompactPixelIndices+0x13e>
 800af2a:	4401      	add	r1, r0
 800af2c:	f850 2b04 	ldr.w	r2, [r0], #4
 800af30:	f803 2b01 	strb.w	r2, [r3], #1
 800af34:	4299      	cmp	r1, r3
 800af36:	d1f9      	bne.n	800af2c <GUI__CompactPixelIndices+0x150>
 800af38:	e75e      	b.n	800adf8 <GUI__CompactPixelIndices+0x1c>

0800af3a <GUI__ConvertColor2Index>:
 800af3a:	e92d 43f8 	stmdb	sp!, {r3, r4, r5, r6, r7, r8, r9, lr}
 800af3e:	9f08      	ldr	r7, [sp, #32]
 800af40:	f8d3 8000 	ldr.w	r8, [r3]
 800af44:	2f00      	cmp	r7, #0
 800af46:	bf08      	it	eq
 800af48:	4607      	moveq	r7, r0
 800af4a:	2a08      	cmp	r2, #8
 800af4c:	4604      	mov	r4, r0
 800af4e:	460d      	mov	r5, r1
 800af50:	dd05      	ble.n	800af5e <GUI__ConvertColor2Index+0x24>
 800af52:	2a10      	cmp	r2, #16
 800af54:	f340 80ad 	ble.w	800b0b2 <GUI__ConvertColor2Index+0x178>
 800af58:	2000      	movs	r0, #0
 800af5a:	e8bd 83f8 	ldmia.w	sp!, {r3, r4, r5, r6, r7, r8, r9, pc}
 800af5e:	3a01      	subs	r2, #1
 800af60:	2a07      	cmp	r2, #7
 800af62:	f200 809d 	bhi.w	800b0a0 <GUI__ConvertColor2Index+0x166>
 800af66:	e8df f002 	tbb	[pc, r2]
 800af6a:	5b11      	.short	0x5b11
 800af6c:	9b9b7f9b 	.word	0x9b9b7f9b
 800af70:	899b      	.short	0x899b
 800af72:	69e0      	ldr	r0, [r4, #28]
 800af74:	47c0      	blx	r8
 800af76:	f104 0920 	add.w	r9, r4, #32
 800af7a:	4330      	orrs	r0, r6
 800af7c:	b2c6      	uxtb	r6, r0
 800af7e:	3d08      	subs	r5, #8
 800af80:	464c      	mov	r4, r9
 800af82:	f807 6b01 	strb.w	r6, [r7], #1
 800af86:	2d00      	cmp	r5, #0
 800af88:	f000 808a 	beq.w	800b0a0 <GUI__ConvertColor2Index+0x166>
 800af8c:	6820      	ldr	r0, [r4, #0]
 800af8e:	47c0      	blx	r8
 800af90:	2d01      	cmp	r5, #1
 800af92:	ea4f 10c0 	mov.w	r0, r0, lsl #7
 800af96:	b2c6      	uxtb	r6, r0
 800af98:	f000 8085 	beq.w	800b0a6 <GUI__ConvertColor2Index+0x16c>
 800af9c:	6860      	ldr	r0, [r4, #4]
 800af9e:	47c0      	blx	r8
 800afa0:	2d02      	cmp	r5, #2
 800afa2:	ea46 1080 	orr.w	r0, r6, r0, lsl #6
 800afa6:	b2c6      	uxtb	r6, r0
 800afa8:	d101      	bne.n	800afae <GUI__ConvertColor2Index+0x74>
 800afaa:	3408      	adds	r4, #8
 800afac:	e07c      	b.n	800b0a8 <GUI__ConvertColor2Index+0x16e>
 800afae:	68a0      	ldr	r0, [r4, #8]
 800afb0:	47c0      	blx	r8
 800afb2:	2d03      	cmp	r5, #3
 800afb4:	ea46 1040 	orr.w	r0, r6, r0, lsl #5
 800afb8:	b2c6      	uxtb	r6, r0
 800afba:	d101      	bne.n	800afc0 <GUI__ConvertColor2Index+0x86>
 800afbc:	340c      	adds	r4, #12
 800afbe:	e073      	b.n	800b0a8 <GUI__ConvertColor2Index+0x16e>
 800afc0:	68e0      	ldr	r0, [r4, #12]
 800afc2:	47c0      	blx	r8
 800afc4:	2d04      	cmp	r5, #4
 800afc6:	ea46 1000 	orr.w	r0, r6, r0, lsl #4
 800afca:	b2c6      	uxtb	r6, r0
 800afcc:	d101      	bne.n	800afd2 <GUI__ConvertColor2Index+0x98>
 800afce:	3410      	adds	r4, #16
 800afd0:	e06a      	b.n	800b0a8 <GUI__ConvertColor2Index+0x16e>
 800afd2:	6920      	ldr	r0, [r4, #16]
 800afd4:	47c0      	blx	r8
 800afd6:	2d05      	cmp	r5, #5
 800afd8:	ea46 00c0 	orr.w	r0, r6, r0, lsl #3
 800afdc:	b2c6      	uxtb	r6, r0
 800afde:	d101      	bne.n	800afe4 <GUI__ConvertColor2Index+0xaa>
 800afe0:	3414      	adds	r4, #20
 800afe2:	e061      	b.n	800b0a8 <GUI__ConvertColor2Index+0x16e>
 800afe4:	6960      	ldr	r0, [r4, #20]
 800afe6:	47c0      	blx	r8
 800afe8:	2d06      	cmp	r5, #6
 800afea:	ea46 0080 	orr.w	r0, r6, r0, lsl #2
 800afee:	b2c6      	uxtb	r6, r0
 800aff0:	d101      	bne.n	800aff6 <GUI__ConvertColor2Index+0xbc>
 800aff2:	3418      	adds	r4, #24
 800aff4:	e058      	b.n	800b0a8 <GUI__ConvertColor2Index+0x16e>
 800aff6:	69a0      	ldr	r0, [r4, #24]
 800aff8:	47c0      	blx	r8
 800affa:	2d07      	cmp	r5, #7
 800affc:	ea46 0040 	orr.w	r0, r6, r0, lsl #1
 800b000:	b2c6      	uxtb	r6, r0
 800b002:	d1b6      	bne.n	800af72 <GUI__ConvertColor2Index+0x38>
 800b004:	341c      	adds	r4, #28
 800b006:	e04f      	b.n	800b0a8 <GUI__ConvertColor2Index+0x16e>
 800b008:	68e0      	ldr	r0, [r4, #12]
 800b00a:	47c0      	blx	r8
 800b00c:	f104 0910 	add.w	r9, r4, #16
 800b010:	4330      	orrs	r0, r6
 800b012:	b2c6      	uxtb	r6, r0
 800b014:	3d04      	subs	r5, #4
 800b016:	464c      	mov	r4, r9
 800b018:	f807 6b01 	strb.w	r6, [r7], #1
 800b01c:	2d00      	cmp	r5, #0
 800b01e:	d03f      	beq.n	800b0a0 <GUI__ConvertColor2Index+0x166>
 800b020:	6820      	ldr	r0, [r4, #0]
 800b022:	47c0      	blx	r8
 800b024:	2d01      	cmp	r5, #1
 800b026:	ea4f 1080 	mov.w	r0, r0, lsl #6
 800b02a:	b2c6      	uxtb	r6, r0
 800b02c:	d03e      	beq.n	800b0ac <GUI__ConvertColor2Index+0x172>
 800b02e:	6860      	ldr	r0, [r4, #4]
 800b030:	47c0      	blx	r8
 800b032:	2d02      	cmp	r5, #2
 800b034:	ea46 1000 	orr.w	r0, r6, r0, lsl #4
 800b038:	b2c6      	uxtb	r6, r0
 800b03a:	d101      	bne.n	800b040 <GUI__ConvertColor2Index+0x106>
 800b03c:	3408      	adds	r4, #8
 800b03e:	e036      	b.n	800b0ae <GUI__ConvertColor2Index+0x174>
 800b040:	68a0      	ldr	r0, [r4, #8]
 800b042:	47c0      	blx	r8
 800b044:	2d03      	cmp	r5, #3
 800b046:	ea46 0080 	orr.w	r0, r6, r0, lsl #2
 800b04a:	b2c6      	uxtb	r6, r0
 800b04c:	d1dc      	bne.n	800b008 <GUI__ConvertColor2Index+0xce>
 800b04e:	340c      	adds	r4, #12
 800b050:	e02d      	b.n	800b0ae <GUI__ConvertColor2Index+0x174>
 800b052:	6860      	ldr	r0, [r4, #4]
 800b054:	47c0      	blx	r8
 800b056:	f104 0908 	add.w	r9, r4, #8
 800b05a:	4330      	orrs	r0, r6
 800b05c:	b2c6      	uxtb	r6, r0
 800b05e:	3d02      	subs	r5, #2
 800b060:	464c      	mov	r4, r9
 800b062:	f807 6b01 	strb.w	r6, [r7], #1
 800b066:	b1dd      	cbz	r5, 800b0a0 <GUI__ConvertColor2Index+0x166>
 800b068:	6820      	ldr	r0, [r4, #0]
 800b06a:	47c0      	blx	r8
 800b06c:	2d01      	cmp	r5, #1
 800b06e:	ea4f 1000 	mov.w	r0, r0, lsl #4
 800b072:	b2c6      	uxtb	r6, r0
 800b074:	d1ed      	bne.n	800b052 <GUI__ConvertColor2Index+0x118>
 800b076:	3404      	adds	r4, #4
 800b078:	2500      	movs	r5, #0
 800b07a:	e7f2      	b.n	800b062 <GUI__ConvertColor2Index+0x128>
 800b07c:	691e      	ldr	r6, [r3, #16]
 800b07e:	b12e      	cbz	r6, 800b08c <GUI__ConvertColor2Index+0x152>
 800b080:	2301      	movs	r3, #1
 800b082:	462a      	mov	r2, r5
 800b084:	4639      	mov	r1, r7
 800b086:	4620      	mov	r0, r4
 800b088:	47b0      	blx	r6
 800b08a:	e009      	b.n	800b0a0 <GUI__ConvertColor2Index+0x166>
 800b08c:	1e7e      	subs	r6, r7, #1
 800b08e:	f854 0b04 	ldr.w	r0, [r4], #4
 800b092:	47c0      	blx	r8
 800b094:	f806 0f01 	strb.w	r0, [r6, #1]!
 800b098:	43f3      	mvns	r3, r6
 800b09a:	442b      	add	r3, r5
 800b09c:	42df      	cmn	r7, r3
 800b09e:	d1f6      	bne.n	800b08e <GUI__ConvertColor2Index+0x154>
 800b0a0:	2001      	movs	r0, #1
 800b0a2:	e8bd 83f8 	ldmia.w	sp!, {r3, r4, r5, r6, r7, r8, r9, pc}
 800b0a6:	3404      	adds	r4, #4
 800b0a8:	2500      	movs	r5, #0
 800b0aa:	e76a      	b.n	800af82 <GUI__ConvertColor2Index+0x48>
 800b0ac:	3404      	adds	r4, #4
 800b0ae:	2500      	movs	r5, #0
 800b0b0:	e7b2      	b.n	800b018 <GUI__ConvertColor2Index+0xde>
 800b0b2:	691e      	ldr	r6, [r3, #16]
 800b0b4:	b11e      	cbz	r6, 800b0be <GUI__ConvertColor2Index+0x184>
 800b0b6:	2302      	movs	r3, #2
 800b0b8:	462a      	mov	r2, r5
 800b0ba:	4639      	mov	r1, r7
 800b0bc:	e7e4      	b.n	800b088 <GUI__ConvertColor2Index+0x14e>
 800b0be:	3f02      	subs	r7, #2
 800b0c0:	f854 0b04 	ldr.w	r0, [r4], #4
 800b0c4:	47c0      	blx	r8
 800b0c6:	3d01      	subs	r5, #1
 800b0c8:	f827 0f02 	strh.w	r0, [r7, #2]!
 800b0cc:	d1f8      	bne.n	800b0c0 <GUI__ConvertColor2Index+0x186>
 800b0ce:	e7e7      	b.n	800b0a0 <GUI__ConvertColor2Index+0x166>

0800b0d0 <GUI__CompactPixelIndicesEx>:
 800b0d0:	b513      	push	{r0, r1, r4, lr}
 800b0d2:	2400      	movs	r4, #0
 800b0d4:	9400      	str	r4, [sp, #0]
 800b0d6:	f7ff ff30 	bl	800af3a <GUI__ConvertColor2Index>
 800b0da:	b002      	add	sp, #8
 800b0dc:	bd10      	pop	{r4, pc}
	...

0800b0e0 <GUI__ManageCacheEx>:
 800b0e0:	2801      	cmp	r0, #1
 800b0e2:	b5f7      	push	{r0, r1, r2, r4, r5, r6, r7, lr}
 800b0e4:	4606      	mov	r6, r0
 800b0e6:	460c      	mov	r4, r1
 800b0e8:	dc62      	bgt.n	800b1b0 <GUI__ManageCacheEx+0xd0>
 800b0ea:	4d33      	ldr	r5, [pc, #204]	; (800b1b8 <GUI__ManageCacheEx+0xd8>)
 800b0ec:	686b      	ldr	r3, [r5, #4]
 800b0ee:	b103      	cbz	r3, 800b0f2 <GUI__ManageCacheEx+0x12>
 800b0f0:	4798      	blx	r3
 800b0f2:	2c01      	cmp	r4, #1
 800b0f4:	d004      	beq.n	800b100 <GUI__ManageCacheEx+0x20>
 800b0f6:	2c02      	cmp	r4, #2
 800b0f8:	d020      	beq.n	800b13c <GUI__ManageCacheEx+0x5c>
 800b0fa:	2c00      	cmp	r4, #0
 800b0fc:	d158      	bne.n	800b1b0 <GUI__ManageCacheEx+0xd0>
 800b0fe:	e033      	b.n	800b168 <GUI__ManageCacheEx+0x88>
 800b100:	eb05 0586 	add.w	r5, r5, r6, lsl #2
 800b104:	68af      	ldr	r7, [r5, #8]
 800b106:	b9af      	cbnz	r7, 800b134 <GUI__ManageCacheEx+0x54>
 800b108:	4630      	mov	r0, r6
 800b10a:	f7fa fe27 	bl	8005d5c <GUI_DEVICE__GetpDriver>
 800b10e:	9001      	str	r0, [sp, #4]
 800b110:	2800      	cmp	r0, #0
 800b112:	d04d      	beq.n	800b1b0 <GUI__ManageCacheEx+0xd0>
 800b114:	68c3      	ldr	r3, [r0, #12]
 800b116:	210d      	movs	r1, #13
 800b118:	6a5b      	ldr	r3, [r3, #36]	; 0x24
 800b11a:	a801      	add	r0, sp, #4
 800b11c:	4798      	blx	r3
 800b11e:	4603      	mov	r3, r0
 800b120:	2800      	cmp	r0, #0
 800b122:	d045      	beq.n	800b1b0 <GUI__ManageCacheEx+0xd0>
 800b124:	4621      	mov	r1, r4
 800b126:	9801      	ldr	r0, [sp, #4]
 800b128:	4798      	blx	r3
 800b12a:	68ab      	ldr	r3, [r5, #8]
 800b12c:	3301      	adds	r3, #1
 800b12e:	60ab      	str	r3, [r5, #8]
 800b130:	4638      	mov	r0, r7
 800b132:	e03e      	b.n	800b1b2 <GUI__ManageCacheEx+0xd2>
 800b134:	1c78      	adds	r0, r7, #1
 800b136:	60a8      	str	r0, [r5, #8]
 800b138:	4620      	mov	r0, r4
 800b13a:	e03a      	b.n	800b1b2 <GUI__ManageCacheEx+0xd2>
 800b13c:	4630      	mov	r0, r6
 800b13e:	f7fa fe0d 	bl	8005d5c <GUI_DEVICE__GetpDriver>
 800b142:	9001      	str	r0, [sp, #4]
 800b144:	2800      	cmp	r0, #0
 800b146:	d033      	beq.n	800b1b0 <GUI__ManageCacheEx+0xd0>
 800b148:	68c3      	ldr	r3, [r0, #12]
 800b14a:	210d      	movs	r1, #13
 800b14c:	6a5b      	ldr	r3, [r3, #36]	; 0x24
 800b14e:	a801      	add	r0, sp, #4
 800b150:	4798      	blx	r3
 800b152:	4604      	mov	r4, r0
 800b154:	2800      	cmp	r0, #0
 800b156:	d02b      	beq.n	800b1b0 <GUI__ManageCacheEx+0xd0>
 800b158:	682b      	ldr	r3, [r5, #0]
 800b15a:	b103      	cbz	r3, 800b15e <GUI__ManageCacheEx+0x7e>
 800b15c:	4798      	blx	r3
 800b15e:	2102      	movs	r1, #2
 800b160:	9801      	ldr	r0, [sp, #4]
 800b162:	47a0      	blx	r4
 800b164:	2000      	movs	r0, #0
 800b166:	e024      	b.n	800b1b2 <GUI__ManageCacheEx+0xd2>
 800b168:	00b4      	lsls	r4, r6, #2
 800b16a:	192b      	adds	r3, r5, r4
 800b16c:	689b      	ldr	r3, [r3, #8]
 800b16e:	2b01      	cmp	r3, #1
 800b170:	d001      	beq.n	800b176 <GUI__ManageCacheEx+0x96>
 800b172:	2001      	movs	r0, #1
 800b174:	e015      	b.n	800b1a2 <GUI__ManageCacheEx+0xc2>
 800b176:	4630      	mov	r0, r6
 800b178:	f7fa fdf0 	bl	8005d5c <GUI_DEVICE__GetpDriver>
 800b17c:	9001      	str	r0, [sp, #4]
 800b17e:	2800      	cmp	r0, #0
 800b180:	d0f7      	beq.n	800b172 <GUI__ManageCacheEx+0x92>
 800b182:	68c3      	ldr	r3, [r0, #12]
 800b184:	210d      	movs	r1, #13
 800b186:	6a5b      	ldr	r3, [r3, #36]	; 0x24
 800b188:	a801      	add	r0, sp, #4
 800b18a:	4798      	blx	r3
 800b18c:	4606      	mov	r6, r0
 800b18e:	2800      	cmp	r0, #0
 800b190:	d0ef      	beq.n	800b172 <GUI__ManageCacheEx+0x92>
 800b192:	4b09      	ldr	r3, [pc, #36]	; (800b1b8 <GUI__ManageCacheEx+0xd8>)
 800b194:	681b      	ldr	r3, [r3, #0]
 800b196:	b103      	cbz	r3, 800b19a <GUI__ManageCacheEx+0xba>
 800b198:	4798      	blx	r3
 800b19a:	2100      	movs	r1, #0
 800b19c:	9801      	ldr	r0, [sp, #4]
 800b19e:	47b0      	blx	r6
 800b1a0:	2000      	movs	r0, #0
 800b1a2:	4425      	add	r5, r4
 800b1a4:	68ab      	ldr	r3, [r5, #8]
 800b1a6:	2b00      	cmp	r3, #0
 800b1a8:	bf18      	it	ne
 800b1aa:	3b01      	subne	r3, #1
 800b1ac:	60ab      	str	r3, [r5, #8]
 800b1ae:	e000      	b.n	800b1b2 <GUI__ManageCacheEx+0xd2>
 800b1b0:	2001      	movs	r0, #1
 800b1b2:	b003      	add	sp, #12
 800b1b4:	bdf0      	pop	{r4, r5, r6, r7, pc}
 800b1b6:	bf00      	nop
 800b1b8:	20029020 	.word	0x20029020

0800b1bc <GUI__ManageCache>:
 800b1bc:	4b02      	ldr	r3, [pc, #8]	; (800b1c8 <GUI__ManageCache+0xc>)
 800b1be:	681b      	ldr	r3, [r3, #0]
 800b1c0:	4601      	mov	r1, r0
 800b1c2:	7c58      	ldrb	r0, [r3, #17]
 800b1c4:	f7ff bf8c 	b.w	800b0e0 <GUI__ManageCacheEx>
 800b1c8:	20000098 	.word	0x20000098

0800b1cc <LCD_SetClipRectEx>:
 800b1cc:	b537      	push	{r0, r1, r2, r4, r5, lr}
 800b1ce:	4c09      	ldr	r4, [pc, #36]	; (800b1f4 <LCD_SetClipRectEx+0x28>)
 800b1d0:	6823      	ldr	r3, [r4, #0]
 800b1d2:	7c5a      	ldrb	r2, [r3, #17]
 800b1d4:	4b08      	ldr	r3, [pc, #32]	; (800b1f8 <LCD_SetClipRectEx+0x2c>)
 800b1d6:	4605      	mov	r5, r0
 800b1d8:	f853 0022 	ldr.w	r0, [r3, r2, lsl #2]
 800b1dc:	68c3      	ldr	r3, [r0, #12]
 800b1de:	4669      	mov	r1, sp
 800b1e0:	6b1b      	ldr	r3, [r3, #48]	; 0x30
 800b1e2:	4798      	blx	r3
 800b1e4:	6820      	ldr	r0, [r4, #0]
 800b1e6:	466a      	mov	r2, sp
 800b1e8:	4629      	mov	r1, r5
 800b1ea:	3008      	adds	r0, #8
 800b1ec:	f7fb fa63 	bl	80066b6 <GUI__IntersectRects>
 800b1f0:	b003      	add	sp, #12
 800b1f2:	bd30      	pop	{r4, r5, pc}
 800b1f4:	20000098 	.word	0x20000098
 800b1f8:	20029160 	.word	0x20029160

0800b1fc <GUI_MEMDEV_Delete>:
 800b1fc:	b537      	push	{r0, r1, r2, r4, r5, lr}
 800b1fe:	4604      	mov	r4, r0
 800b200:	b1d0      	cbz	r0, 800b238 <GUI_MEMDEV_Delete+0x3c>
 800b202:	4b0e      	ldr	r3, [pc, #56]	; (800b23c <GUI_MEMDEV_Delete+0x40>)
 800b204:	681b      	ldr	r3, [r3, #0]
 800b206:	6e1b      	ldr	r3, [r3, #96]	; 0x60
 800b208:	4298      	cmp	r0, r3
 800b20a:	d101      	bne.n	800b210 <GUI_MEMDEV_Delete+0x14>
 800b20c:	f7fa fbe5 	bl	80059da <GUI_SelectLCD>
 800b210:	4620      	mov	r0, r4
 800b212:	f7fa f923 	bl	800545c <GUI_ALLOC_LockH>
 800b216:	9001      	str	r0, [sp, #4]
 800b218:	6940      	ldr	r0, [r0, #20]
 800b21a:	b108      	cbz	r0, 800b220 <GUI_MEMDEV_Delete+0x24>
 800b21c:	f7fd fb7c 	bl	8008918 <GUI_USAGE_DecUseCnt>
 800b220:	ad02      	add	r5, sp, #8
 800b222:	f855 3d04 	ldr.w	r3, [r5, #-4]!
 800b226:	6818      	ldr	r0, [r3, #0]
 800b228:	f7fa fda8 	bl	8005d7c <GUI_DEVICE_Delete>
 800b22c:	4628      	mov	r0, r5
 800b22e:	f7fa f923 	bl	8005478 <GUI_ALLOC_UnlockH>
 800b232:	4620      	mov	r0, r4
 800b234:	f7fa f940 	bl	80054b8 <GUI_ALLOC_Free>
 800b238:	b003      	add	sp, #12
 800b23a:	bd30      	pop	{r4, r5, pc}
 800b23c:	20000098 	.word	0x20000098

0800b240 <GUI_MEMDEV_Select>:
 800b240:	4b11      	ldr	r3, [pc, #68]	; (800b288 <GUI_MEMDEV_Select+0x48>)
 800b242:	b5f7      	push	{r0, r1, r2, r4, r5, r6, r7, lr}
 800b244:	681a      	ldr	r2, [r3, #0]
 800b246:	4606      	mov	r6, r0
 800b248:	6e17      	ldr	r7, [r2, #96]	; 0x60
 800b24a:	461c      	mov	r4, r3
 800b24c:	b910      	cbnz	r0, 800b254 <GUI_MEMDEV_Select+0x14>
 800b24e:	f7fa fbc4 	bl	80059da <GUI_SelectLCD>
 800b252:	e016      	b.n	800b282 <GUI_MEMDEV_Select+0x42>
 800b254:	b10f      	cbz	r7, 800b25a <GUI_MEMDEV_Select+0x1a>
 800b256:	f7fa fbc0 	bl	80059da <GUI_SelectLCD>
 800b25a:	f7fe f9d5 	bl	8009608 <WM_Deactivate>
 800b25e:	4630      	mov	r0, r6
 800b260:	f7fa f8fc 	bl	800545c <GUI_ALLOC_LockH>
 800b264:	ad02      	add	r5, sp, #8
 800b266:	6823      	ldr	r3, [r4, #0]
 800b268:	f845 0d04 	str.w	r0, [r5, #-4]!
 800b26c:	661e      	str	r6, [r3, #96]	; 0x60
 800b26e:	6800      	ldr	r0, [r0, #0]
 800b270:	f7fa fdc4 	bl	8005dfc <GUI_DEVICE_Link>
 800b274:	4628      	mov	r0, r5
 800b276:	f7fa f8ff 	bl	8005478 <GUI_ALLOC_UnlockH>
 800b27a:	f7fc f815 	bl	80072a8 <LCD_UpdateColorIndices>
 800b27e:	f7fb fc25 	bl	8006acc <LCD_SetClipRectMax>
 800b282:	4638      	mov	r0, r7
 800b284:	b003      	add	sp, #12
 800b286:	bdf0      	pop	{r4, r5, r6, r7, pc}
 800b288:	20000098 	.word	0x20000098

0800b28c <GUI_MEMDEV_GetDataPtr>:
 800b28c:	b513      	push	{r0, r1, r4, lr}
 800b28e:	b158      	cbz	r0, 800b2a8 <GUI_MEMDEV_GetDataPtr+0x1c>
 800b290:	f7fa f8e4 	bl	800545c <GUI_ALLOC_LockH>
 800b294:	ab02      	add	r3, sp, #8
 800b296:	f100 0418 	add.w	r4, r0, #24
 800b29a:	f843 0d04 	str.w	r0, [r3, #-4]!
 800b29e:	4618      	mov	r0, r3
 800b2a0:	f7fa f8ea 	bl	8005478 <GUI_ALLOC_UnlockH>
 800b2a4:	4620      	mov	r0, r4
 800b2a6:	e7ff      	b.n	800b2a8 <GUI_MEMDEV_GetDataPtr+0x1c>
 800b2a8:	b002      	add	sp, #8
 800b2aa:	bd10      	pop	{r4, pc}

0800b2ac <WM_PID__SetPrevState>:
 800b2ac:	4a03      	ldr	r2, [pc, #12]	; (800b2bc <WM_PID__SetPrevState+0x10>)
 800b2ae:	230c      	movs	r3, #12
 800b2b0:	fb03 2301 	mla	r3, r3, r1, r2
 800b2b4:	c807      	ldmia	r0, {r0, r1, r2}
 800b2b6:	e883 0007 	stmia.w	r3, {r0, r1, r2}
 800b2ba:	4770      	bx	lr
 800b2bc:	20029038 	.word	0x20029038

0800b2c0 <WM__IsInWindow>:
 800b2c0:	6a83      	ldr	r3, [r0, #40]	; 0x28
 800b2c2:	f013 0302 	ands.w	r3, r3, #2
 800b2c6:	d012      	beq.n	800b2ee <WM__IsInWindow+0x2e>
 800b2c8:	f9b0 3000 	ldrsh.w	r3, [r0]
 800b2cc:	428b      	cmp	r3, r1
 800b2ce:	dc10      	bgt.n	800b2f2 <WM__IsInWindow+0x32>
 800b2d0:	f9b0 3004 	ldrsh.w	r3, [r0, #4]
 800b2d4:	4299      	cmp	r1, r3
 800b2d6:	dc0c      	bgt.n	800b2f2 <WM__IsInWindow+0x32>
 800b2d8:	f9b0 3002 	ldrsh.w	r3, [r0, #2]
 800b2dc:	4293      	cmp	r3, r2
 800b2de:	dc08      	bgt.n	800b2f2 <WM__IsInWindow+0x32>
 800b2e0:	f9b0 3006 	ldrsh.w	r3, [r0, #6]
 800b2e4:	429a      	cmp	r2, r3
 800b2e6:	bfcc      	ite	gt
 800b2e8:	2000      	movgt	r0, #0
 800b2ea:	2001      	movle	r0, #1
 800b2ec:	4770      	bx	lr
 800b2ee:	4618      	mov	r0, r3
 800b2f0:	4770      	bx	lr
 800b2f2:	2000      	movs	r0, #0
 800b2f4:	4770      	bx	lr

0800b2f6 <_Screen2hWin>:
 800b2f6:	e92d 43f7 	stmdb	sp!, {r0, r1, r2, r4, r5, r6, r7, r8, r9, lr}
 800b2fa:	460e      	mov	r6, r1
 800b2fc:	4617      	mov	r7, r2
 800b2fe:	4698      	mov	r8, r3
 800b300:	4604      	mov	r4, r0
 800b302:	b320      	cbz	r0, 800b34e <_Screen2hWin+0x58>
 800b304:	f7fa f8aa 	bl	800545c <GUI_ALLOC_LockH>
 800b308:	4642      	mov	r2, r8
 800b30a:	4639      	mov	r1, r7
 800b30c:	4605      	mov	r5, r0
 800b30e:	9001      	str	r0, [sp, #4]
 800b310:	f7ff ffd6 	bl	800b2c0 <WM__IsInWindow>
 800b314:	4681      	mov	r9, r0
 800b316:	b920      	cbnz	r0, 800b322 <_Screen2hWin+0x2c>
 800b318:	a801      	add	r0, sp, #4
 800b31a:	f7fa f8ad 	bl	8005478 <GUI_ALLOC_UnlockH>
 800b31e:	4648      	mov	r0, r9
 800b320:	e016      	b.n	800b350 <_Screen2hWin+0x5a>
 800b322:	69ed      	ldr	r5, [r5, #28]
 800b324:	b91d      	cbnz	r5, 800b32e <_Screen2hWin+0x38>
 800b326:	a801      	add	r0, sp, #4
 800b328:	f7fa f8a6 	bl	8005478 <GUI_ALLOC_UnlockH>
 800b32c:	e00f      	b.n	800b34e <_Screen2hWin+0x58>
 800b32e:	42b5      	cmp	r5, r6
 800b330:	d0f9      	beq.n	800b326 <_Screen2hWin+0x30>
 800b332:	4643      	mov	r3, r8
 800b334:	463a      	mov	r2, r7
 800b336:	4631      	mov	r1, r6
 800b338:	4628      	mov	r0, r5
 800b33a:	f7ff ffdc 	bl	800b2f6 <_Screen2hWin>
 800b33e:	2800      	cmp	r0, #0
 800b340:	bf18      	it	ne
 800b342:	4604      	movne	r4, r0
 800b344:	4628      	mov	r0, r5
 800b346:	f7fa f87f 	bl	8005448 <GUI_ALLOC_h2p>
 800b34a:	6a05      	ldr	r5, [r0, #32]
 800b34c:	e7ea      	b.n	800b324 <_Screen2hWin+0x2e>
 800b34e:	4620      	mov	r0, r4
 800b350:	b003      	add	sp, #12
 800b352:	e8bd 83f0 	ldmia.w	sp!, {r4, r5, r6, r7, r8, r9, pc}
	...

0800b358 <WM_Screen2hWin>:
 800b358:	b570      	push	{r4, r5, r6, lr}
 800b35a:	4b06      	ldr	r3, [pc, #24]	; (800b374 <WM_Screen2hWin+0x1c>)
 800b35c:	460d      	mov	r5, r1
 800b35e:	4604      	mov	r4, r0
 800b360:	6818      	ldr	r0, [r3, #0]
 800b362:	f7fe fa37 	bl	80097d4 <WM_GetDesktopWindowEx>
 800b366:	462b      	mov	r3, r5
 800b368:	4622      	mov	r2, r4
 800b36a:	2100      	movs	r1, #0
 800b36c:	e8bd 4070 	ldmia.w	sp!, {r4, r5, r6, lr}
 800b370:	f7ff bfc1 	b.w	800b2f6 <_Screen2hWin>
 800b374:	2002919c 	.word	0x2002919c

0800b378 <WM__ReleaseCapture>:
 800b378:	b530      	push	{r4, r5, lr}
 800b37a:	4d09      	ldr	r5, [pc, #36]	; (800b3a0 <WM__ReleaseCapture+0x28>)
 800b37c:	4c09      	ldr	r4, [pc, #36]	; (800b3a4 <WM__ReleaseCapture+0x2c>)
 800b37e:	682b      	ldr	r3, [r5, #0]
 800b380:	f854 0023 	ldr.w	r0, [r4, r3, lsl #2]
 800b384:	b085      	sub	sp, #20
 800b386:	b148      	cbz	r0, 800b39c <WM__ReleaseCapture+0x24>
 800b388:	a904      	add	r1, sp, #16
 800b38a:	2318      	movs	r3, #24
 800b38c:	f841 3d10 	str.w	r3, [r1, #-16]!
 800b390:	f7fe fcf6 	bl	8009d80 <WM__SendMessage>
 800b394:	682b      	ldr	r3, [r5, #0]
 800b396:	2200      	movs	r2, #0
 800b398:	f844 2023 	str.w	r2, [r4, r3, lsl #2]
 800b39c:	b005      	add	sp, #20
 800b39e:	bd30      	pop	{r4, r5, pc}
 800b3a0:	2002919c 	.word	0x2002919c
 800b3a4:	200291c0 	.word	0x200291c0

0800b3a8 <WM_ReleaseCapture>:
 800b3a8:	f7ff bfe6 	b.w	800b378 <WM__ReleaseCapture>

0800b3ac <__libc_init_array>:
 800b3ac:	b570      	push	{r4, r5, r6, lr}
 800b3ae:	4d0d      	ldr	r5, [pc, #52]	; (800b3e4 <__libc_init_array+0x38>)
 800b3b0:	4c0d      	ldr	r4, [pc, #52]	; (800b3e8 <__libc_init_array+0x3c>)
 800b3b2:	1b64      	subs	r4, r4, r5
 800b3b4:	10a4      	asrs	r4, r4, #2
 800b3b6:	2600      	movs	r6, #0
 800b3b8:	42a6      	cmp	r6, r4
 800b3ba:	d109      	bne.n	800b3d0 <__libc_init_array+0x24>
 800b3bc:	4d0b      	ldr	r5, [pc, #44]	; (800b3ec <__libc_init_array+0x40>)
 800b3be:	4c0c      	ldr	r4, [pc, #48]	; (800b3f0 <__libc_init_array+0x44>)
 800b3c0:	f000 f858 	bl	800b474 <_init>
 800b3c4:	1b64      	subs	r4, r4, r5
 800b3c6:	10a4      	asrs	r4, r4, #2
 800b3c8:	2600      	movs	r6, #0
 800b3ca:	42a6      	cmp	r6, r4
 800b3cc:	d105      	bne.n	800b3da <__libc_init_array+0x2e>
 800b3ce:	bd70      	pop	{r4, r5, r6, pc}
 800b3d0:	f855 3b04 	ldr.w	r3, [r5], #4
 800b3d4:	4798      	blx	r3
 800b3d6:	3601      	adds	r6, #1
 800b3d8:	e7ee      	b.n	800b3b8 <__libc_init_array+0xc>
 800b3da:	f855 3b04 	ldr.w	r3, [r5], #4
 800b3de:	4798      	blx	r3
 800b3e0:	3601      	adds	r6, #1
 800b3e2:	e7f2      	b.n	800b3ca <__libc_init_array+0x1e>
 800b3e4:	0800e29c 	.word	0x0800e29c
 800b3e8:	0800e29c 	.word	0x0800e29c
 800b3ec:	0800e29c 	.word	0x0800e29c
 800b3f0:	0800e2a0 	.word	0x0800e2a0

0800b3f4 <memcmp>:
 800b3f4:	b510      	push	{r4, lr}
 800b3f6:	3901      	subs	r1, #1
 800b3f8:	4402      	add	r2, r0
 800b3fa:	4290      	cmp	r0, r2
 800b3fc:	d101      	bne.n	800b402 <memcmp+0xe>
 800b3fe:	2000      	movs	r0, #0
 800b400:	e005      	b.n	800b40e <memcmp+0x1a>
 800b402:	7803      	ldrb	r3, [r0, #0]
 800b404:	f811 4f01 	ldrb.w	r4, [r1, #1]!
 800b408:	42a3      	cmp	r3, r4
 800b40a:	d001      	beq.n	800b410 <memcmp+0x1c>
 800b40c:	1b18      	subs	r0, r3, r4
 800b40e:	bd10      	pop	{r4, pc}
 800b410:	3001      	adds	r0, #1
 800b412:	e7f2      	b.n	800b3fa <memcmp+0x6>

0800b414 <memcpy>:
 800b414:	440a      	add	r2, r1
 800b416:	4291      	cmp	r1, r2
 800b418:	f100 33ff 	add.w	r3, r0, #4294967295	; 0xffffffff
 800b41c:	d100      	bne.n	800b420 <memcpy+0xc>
 800b41e:	4770      	bx	lr
 800b420:	b510      	push	{r4, lr}
 800b422:	f811 4b01 	ldrb.w	r4, [r1], #1
 800b426:	f803 4f01 	strb.w	r4, [r3, #1]!
 800b42a:	4291      	cmp	r1, r2
 800b42c:	d1f9      	bne.n	800b422 <memcpy+0xe>
 800b42e:	bd10      	pop	{r4, pc}

0800b430 <memmove>:
 800b430:	4288      	cmp	r0, r1
 800b432:	b510      	push	{r4, lr}
 800b434:	eb01 0402 	add.w	r4, r1, r2
 800b438:	d902      	bls.n	800b440 <memmove+0x10>
 800b43a:	4284      	cmp	r4, r0
 800b43c:	4623      	mov	r3, r4
 800b43e:	d807      	bhi.n	800b450 <memmove+0x20>
 800b440:	1e43      	subs	r3, r0, #1
 800b442:	42a1      	cmp	r1, r4
 800b444:	d008      	beq.n	800b458 <memmove+0x28>
 800b446:	f811 2b01 	ldrb.w	r2, [r1], #1
 800b44a:	f803 2f01 	strb.w	r2, [r3, #1]!
 800b44e:	e7f8      	b.n	800b442 <memmove+0x12>
 800b450:	4402      	add	r2, r0
 800b452:	4601      	mov	r1, r0
 800b454:	428a      	cmp	r2, r1
 800b456:	d100      	bne.n	800b45a <memmove+0x2a>
 800b458:	bd10      	pop	{r4, pc}
 800b45a:	f813 4d01 	ldrb.w	r4, [r3, #-1]!
 800b45e:	f802 4d01 	strb.w	r4, [r2, #-1]!
 800b462:	e7f7      	b.n	800b454 <memmove+0x24>

0800b464 <memset>:
 800b464:	4402      	add	r2, r0
 800b466:	4603      	mov	r3, r0
 800b468:	4293      	cmp	r3, r2
 800b46a:	d100      	bne.n	800b46e <memset+0xa>
 800b46c:	4770      	bx	lr
 800b46e:	f803 1b01 	strb.w	r1, [r3], #1
 800b472:	e7f9      	b.n	800b468 <memset+0x4>

0800b474 <_init>:
 800b474:	b5f8      	push	{r3, r4, r5, r6, r7, lr}
 800b476:	bf00      	nop
 800b478:	bcf8      	pop	{r3, r4, r5, r6, r7}
 800b47a:	bc08      	pop	{r3}
 800b47c:	469e      	mov	lr, r3
 800b47e:	4770      	bx	lr

0800b480 <_fini>:
 800b480:	b5f8      	push	{r3, r4, r5, r6, r7, lr}
 800b482:	bf00      	nop
 800b484:	bcf8      	pop	{r3, r4, r5, r6, r7}
 800b486:	bc08      	pop	{r3}
 800b488:	469e      	mov	lr, r3
 800b48a:	4770      	bx	lr
